L251 LINKER/LOCATER V4.66.93.0                                                          05/05/2025  21:49:10  PAGE 1


L251 LINKER/LOCATER V4.66.93.0, INVOKED BY:
C:\KEIL_V5\C251\BIN\L251.EXE .\out_file\ai8051u_isr.obj, .\out_file\zf_common_clock.obj, .\out_file\zf_common_debug.obj,
>>  .\out_file\zf_common_fifo.obj, .\out_file\zf_common_font.obj, .\out_file\zf_common_function.obj, .\out_file\zf_commo
>> n_typedef.obj, .\out_file\zf_common_interrupt.obj, .\out_file\START251.obj, .\out_file\zf_driver_adc.obj, .\out_file\
>> zf_driver_delay.obj, .\out_file\zf_driver_encoder.obj, .\out_file\zf_driver_exti.obj, .\out_file\zf_driver_gpio.obj, 
>> .\out_file\zf_driver_pit.obj, .\out_file\zf_driver_pwm.obj, .\out_file\zf_driver_soft_iic.obj, .\out_file\zf_driver_s
>> pi.obj, .\out_file\zf_driver_timer.obj, .\out_file\zf_driver_uart.obj, .\out_file\zf_device_config.obj, .\out_file\zf
>> _device_ips114.obj, .\out_file\zf_device_ble6a20.obj, .\out_file\zf_device_imu660ra.obj, .\out_file\zf_device_gps_tau
>> 1201.obj, .\out_file\zf_device_tsl1401.obj, .\out_file\zf_device_type.obj, .\out_file\isr.obj, .\out_file\main.obj, .
>> \out_file\pid.obj, .\out_file\ips114.obj, .\out_file\imu.obj, .\out_file\gps.obj, .\out_file\bluetooth.obj, .\out_fil
>> e\init.obj, .\out_file\pwm.obj, .\out_file\filter.obj, .\out_file\StateMachine.obj, .\out_file\qspi.obj, .\out_file\w
>> 25qxx.obj TO .\out_file\SEEKFREE PRINT (.\out_file\SEEKFREE.map) CASE DISABLEWARNING (57, 16) REMOVEUNUSED CLASSES (E
>> DATA (0X0-0X7FF), HDATA (0X0-0X7FF))


CPU MODE:     251 SOURCE MODE
INTR FRAME:   4 BYTES SAVED ON INTERRUPT
MEMORY MODEL: LARGE WITH DOUBLE PRECISION FLOATING POINT ARITHMETIC


INPUT MODULES INCLUDED:
  .\out_file\ai8051u_isr.obj (ai8051u_isr)
         COMMENT TYPE 0: A251 V4.69.13.0
  .\out_file\zf_common_clock.obj (zf_common_clock)
         COMMENT TYPE 0: C251 V5.60.0
  .\out_file\zf_common_debug.obj (zf_common_debug)
         COMMENT TYPE 0: C251 V5.60.0
  .\out_file\zf_common_fifo.obj (zf_common_fifo)
         COMMENT TYPE 0: C251 V5.60.0
  .\out_file\zf_common_font.obj (zf_common_font)
         COMMENT TYPE 0: C251 V5.60.0
  .\out_file\zf_common_function.obj (zf_common_function)
         COMMENT TYPE 0: C251 V5.60.0
  .\out_file\zf_common_typedef.obj (zf_common_typedef)
         COMMENT TYPE 0: C251 V5.60.0
  .\out_file\zf_common_interrupt.obj (zf_common_interrupt)
         COMMENT TYPE 0: C251 V5.60.0
  .\out_file\START251.obj (?C_START)
         COMMENT TYPE 0: A251 V4.69.13.0
  .\out_file\zf_driver_adc.obj (zf_driver_adc)
         COMMENT TYPE 0: C251 V5.60.0
  .\out_file\zf_driver_delay.obj (zf_driver_delay)
         COMMENT TYPE 0: C251 V5.60.0
  .\out_file\zf_driver_encoder.obj (zf_driver_encoder)
         COMMENT TYPE 0: C251 V5.60.0
  .\out_file\zf_driver_exti.obj (zf_driver_exti)
         COMMENT TYPE 0: C251 V5.60.0
  .\out_file\zf_driver_gpio.obj (zf_driver_gpio)
         COMMENT TYPE 0: C251 V5.60.0
  .\out_file\zf_driver_pit.obj (zf_driver_pit)
         COMMENT TYPE 0: C251 V5.60.0
  .\out_file\zf_driver_pwm.obj (zf_driver_pwm)
         COMMENT TYPE 0: C251 V5.60.0
  .\out_file\zf_driver_soft_iic.obj (zf_driver_soft_iic)
         COMMENT TYPE 0: C251 V5.60.0
  .\out_file\zf_driver_spi.obj (zf_driver_spi)
         COMMENT TYPE 0: C251 V5.60.0
  .\out_file\zf_driver_timer.obj (zf_driver_timer)
         COMMENT TYPE 0: C251 V5.60.0
  .\out_file\zf_driver_uart.obj (zf_driver_uart)
         COMMENT TYPE 0: C251 V5.60.0
  .\out_file\zf_device_config.obj (zf_device_config)
         COMMENT TYPE 0: C251 V5.60.0
  .\out_file\zf_device_ips114.obj (zf_device_ips114)
         COMMENT TYPE 0: C251 V5.60.0
  .\out_file\zf_device_ble6a20.obj (zf_device_ble6a20)
L251 LINKER/LOCATER V4.66.93.0                                                        05/05/2025  21:49:10  PAGE 2


         COMMENT TYPE 0: C251 V5.60.0
  .\out_file\zf_device_imu660ra.obj (zf_device_imu660ra)
         COMMENT TYPE 0: C251 V5.60.0
  .\out_file\zf_device_gps_tau1201.obj (zf_device_gps_tau1201)
         COMMENT TYPE 0: C251 V5.60.0
  .\out_file\zf_device_tsl1401.obj (zf_device_tsl1401)
         COMMENT TYPE 0: C251 V5.60.0
  .\out_file\zf_device_type.obj (zf_device_type)
         COMMENT TYPE 0: C251 V5.60.0
  .\out_file\isr.obj (isr)
         COMMENT TYPE 0: C251 V5.60.0
  .\out_file\main.obj (main)
         COMMENT TYPE 0: C251 V5.60.0
  .\out_file\pid.obj (pid)
         COMMENT TYPE 0: C251 V5.60.0
  .\out_file\ips114.obj (ips114)
         COMMENT TYPE 0: C251 V5.60.0
  .\out_file\imu.obj (imu)
         COMMENT TYPE 0: C251 V5.60.0
  .\out_file\gps.obj (gps)
         COMMENT TYPE 0: C251 V5.60.0
  .\out_file\bluetooth.obj (bluetooth)
         COMMENT TYPE 0: C251 V5.60.0
  .\out_file\init.obj (init)
         COMMENT TYPE 0: C251 V5.60.0
  .\out_file\pwm.obj (pwm)
         COMMENT TYPE 0: C251 V5.60.0
  .\out_file\filter.obj (filter)
         COMMENT TYPE 0: C251 V5.60.0
  .\out_file\StateMachine.obj (StateMachine)
         COMMENT TYPE 0: C251 V5.60.0
  .\out_file\qspi.obj (qspi)
         COMMENT TYPE 0: C251 V5.60.0
  .\out_file\w25qxx.obj (w25qxx)
         COMMENT TYPE 0: C251 V5.60.0
  C:\KEIL_V5\C251\LIB\C2SDPL.LIB (?C?DPADD)
         COMMENT TYPE 0: A251 V4.69.6.0
  C:\KEIL_V5\C251\LIB\C2SDPL.LIB (?C?DPMUL)
         COMMENT TYPE 0: A251 V4.69.6.0
  C:\KEIL_V5\C251\LIB\C2SDPL.LIB (?C?DPDIV)
         COMMENT TYPE 0: A251 V4.69.6.0
  C:\KEIL_V5\C251\LIB\C2SDPL.LIB (?C?DPCMP)
         COMMENT TYPE 0: A251 V4.69.6.0
  C:\KEIL_V5\C251\LIB\C2SDPL.LIB (?C?DPNEG)
         COMMENT TYPE 0: A251 V4.69.6.0
  C:\KEIL_V5\C251\LIB\C2SDPL.LIB (?C?DCAST)
         COMMENT TYPE 0: A251 V4.69.6.0
  C:\KEIL_V5\C251\LIB\C2SDPL.LIB (?C?CASTD)
         COMMENT TYPE 0: A251 V4.69.6.0
  C:\KEIL_V5\C251\LIB\C2SDPL.LIB (?C?DCASTF)
         COMMENT TYPE 0: A251 V4.69.6.0
  C:\KEIL_V5\C251\LIB\C2SDPL.LIB (?C?FCASTD)
         COMMENT TYPE 0: A251 V4.69.6.0
  C:\KEIL_V5\C251\LIB\C2SDPL.LIB (PRINTF)
         COMMENT TYPE 0: A251 V4.69.6.0
  C:\KEIL_V5\C251\LIB\C2SDPL.LIB (SPRINTF)
         COMMENT TYPE 0: A251 V4.69.6.0
  C:\KEIL_V5\C251\LIB\C2SDPL.LIB (SQRT?_)
         COMMENT TYPE 0: A251 V4.69.6.0
  C:\KEIL_V5\C251\LIB\C2SDPL.LIB (pow)
         COMMENT TYPE 0: C251 V5.58.7
  C:\KEIL_V5\C251\LIB\C2SDPL.LIB (SIN?_)
         COMMENT TYPE 0: A251 V4.69.6.0
  C:\KEIL_V5\C251\LIB\C2SDPL.LIB (ATAN?_)
         COMMENT TYPE 0: A251 V4.69.6.0
L251 LINKER/LOCATER V4.66.93.0                                                        05/05/2025  21:49:10  PAGE 3


  C:\KEIL_V5\C251\LIB\C2SDPL.LIB (ASIN?_)
         COMMENT TYPE 0: A251 V4.69.6.0
  C:\KEIL_V5\C251\LIB\C2SDPL.LIB (?C?DPGETOPN)
         COMMENT TYPE 0: A251 V4.69.6.0
  C:\KEIL_V5\C251\LIB\C2SDPL.LIB (_CHKDOUBLE_?_)
         COMMENT TYPE 0: A251 V4.69.6.0
  C:\KEIL_V5\C251\LIB\C2SDPL.LIB (?C?PRNFMT)
         COMMENT TYPE 0: A251 V4.69.6.0
  C:\KEIL_V5\C251\LIB\C2SDPL.LIB (?C?DPSERIES)
         COMMENT TYPE 0: A251 V4.69.6.0
  C:\KEIL_V5\C251\LIB\C2SDPL.LIB (EXP?_)
         COMMENT TYPE 0: A251 V4.69.6.0
  C:\KEIL_V5\C251\LIB\C2SDPL.LIB (LOG?_)
         COMMENT TYPE 0: A251 V4.69.6.0
  C:\KEIL_V5\C251\LIB\C2SDPL.LIB (?C?DPCONVERT)
         COMMENT TYPE 0: A251 V4.69.6.0
  C:\KEIL_V5\C251\LIB\C2SDPL.LIB (?C?DTNPWR)
         COMMENT TYPE 0: A251 V4.69.6.0
  C:\KEIL_V5\C251\LIB\C2SFPL.LIB (?C?FPGETOPN)
         COMMENT TYPE 0: A251 V4.69.6.0
  C:\KEIL_V5\C251\LIB\C2SFPL.LIB (?C?FPADD)
         COMMENT TYPE 0: A251 V4.69.6.0
  C:\KEIL_V5\C251\LIB\C2SFPL.LIB (?C?FPMUL)
         COMMENT TYPE 0: A251 V4.69.6.0
  C:\KEIL_V5\C251\LIB\C2SFPL.LIB (?C?FPDIV)
         COMMENT TYPE 0: A251 V4.69.6.0
  C:\KEIL_V5\C251\LIB\C2SFPL.LIB (?C?FPCMP)
         COMMENT TYPE 0: A251 V4.69.6.0
  C:\KEIL_V5\C251\LIB\C2SFPL.LIB (?C?FPNEG)
         COMMENT TYPE 0: A251 V4.69.6.0
  C:\KEIL_V5\C251\LIB\C2SFPL.LIB (?C?FCAST)
         COMMENT TYPE 0: A251 V4.69.6.0
  C:\KEIL_V5\C251\LIB\C2SFPL.LIB (?C?CASTF)
         COMMENT TYPE 0: A251 V4.69.6.0
  C:\KEIL_V5\C251\LIB\C2SL.LIB (?C?INITHDATA)
         COMMENT TYPE 0: A251 V4.69.6.0
  C:\KEIL_V5\C251\LIB\C2SL.LIB (?C?SCDIV)
         COMMENT TYPE 0: A251 V4.69.6.0
  C:\KEIL_V5\C251\LIB\C2SL.LIB (?C?SIDIV)
         COMMENT TYPE 0: A251 V4.69.6.0
  C:\KEIL_V5\C251\LIB\C2SL.LIB (?C?LIMUL)
         COMMENT TYPE 0: A251 V4.69.6.0
  C:\KEIL_V5\C251\LIB\C2SL.LIB (?C?ULDIV)
         COMMENT TYPE 0: A251 V4.69.6.0
  C:\KEIL_V5\C251\LIB\C2SL.LIB (?C?SLDIV)
         COMMENT TYPE 0: A251 V4.69.6.0
  C:\KEIL_V5\C251\LIB\C2SL.LIB (?C?BMOVEPP)
         COMMENT TYPE 0: A251 V4.69.6.0
  C:\KEIL_V5\C251\LIB\C2SL.LIB (STRNCMP)
         COMMENT TYPE 0: C251 V5.58.7
  C:\KEIL_V5\C251\LIB\C2SL.LIB (STRNCPY)
         COMMENT TYPE 0: C251 V5.58.7
  C:\KEIL_V5\C251\LIB\C2SL.LIB (STRLEN)
         COMMENT TYPE 0: C251 V5.58.7
  C:\KEIL_V5\C251\LIB\C2SL.LIB (STRCHR)
         COMMENT TYPE 0: C251 V5.58.7
  C:\KEIL_V5\C251\LIB\C2SL.LIB (memcpy)
         COMMENT TYPE 0: C251 V5.58.7
  C:\KEIL_V5\C251\LIB\C2SL.LIB (memset)
         COMMENT TYPE 0: C251 V5.58.7
  C:\KEIL_V5\C251\LIB\C2SL.LIB (?C?INITHDATA_END)
         COMMENT TYPE 0: A251 V4.69.6.0


ACTIVE MEMORY CLASSES OF MODULE:  .\out_file\SEEKFREE (ai8051u_isr)
L251 LINKER/LOCATER V4.66.93.0                                                        05/05/2025  21:49:10  PAGE 4



BASE        START       END         USED      MEMORY CLASS
==========================================================
000000H     000000H     0007FFH     000700H   EDATA
000000H     000000H     0007FFH               HDATA
FF0000H     FF0000H     FFFFFFH     00E3E8H   CODE
010000H     010000H     01FFFFH     0014DFH   XDATA
000000H     FF0000H     FFFFFFH     000649H   HCONST
000020H.0   000020H.0   00002FH.7   000001H.5 BIT
FF0000H     FF0000H     FFFFFFH     000004H   CONST
000000H     000000H     00007FH     000008H   DATA


MEMORY MAP OF MODULE:  .\out_file\SEEKFREE (ai8051u_isr)


START     STOP      LENGTH    ALIGN  RELOC    MEMORY CLASS   SEGMENT NAME
=========================================================================
000000H   000007H   000008H   ---    AT..     DATA           "REG BANK 0"
000008H.0 00001FH.7 000018H.0 ---    ---      **GAP**
000020H.0 000020H.1 000000H.2 BIT    UNIT     BIT            ?BI?GPS
000020H.2 000020H.2 000000H.1 BIT    UNIT     BIT            ?BI?ISR
000020H.3 000020H.3 000000H.1 BIT    UNIT     BIT            ?BI?W25Q_ERASE4K_20?W25QXX
000020H.4 000020H.4 000000H.1 BIT    UNIT     BIT            ?BI?W25Q_QPI_ERASE4K_20?W25QXX
000020H.5 000020H.5 000000H.1 BIT    UNIT     BIT            ?BI?W25Q_ERASE4K_ADDR32_21?W25QXX
000020H.6 000020H.6 000000H.1 BIT    UNIT     BIT            ?BI?W25Q_ERASE32K_52?W25QXX
000020H.7 000020H.7 000000H.1 BIT    UNIT     BIT            ?BI?W25Q_QPI_ERASE32K_52?W25QXX
000021H.0 000021H.0 000000H.1 BIT    UNIT     BIT            ?BI?W25Q_ERASE64K_D8?W25QXX
000021H.1 000021H.1 000000H.1 BIT    UNIT     BIT            ?BI?W25Q_QPI_ERASE64K_D8?W25QXX
000021H.2 000021H.2 000000H.1 BIT    UNIT     BIT            ?BI?W25Q_ERASE64K_ADDR32_DC?W25QXX
000021H.3 000021H.3 000000H.1 BIT    UNIT     BIT            ?BI?W25Q_ERASECHIP_C7?W25QXX
000021H.4 000021H.4 000000H.1 BIT    UNIT     BIT            ?BI?W25Q_QPI_ERASECHIP_C7?W25QXX
000021H.5 000021H   000000H.3 ---    ---      **GAP**
000022H   000721H   000700H   BYTE   UNIT     EDATA          ?STACK
000722H   00FFFFH   00F8DEH   ---    ---      **GAP**
010000H   010201H   000202H   BYTE   INSEG    XDATA          ?XD?ZF_DEVICE_TSL1401
010202H   0103D1H   0001D0H   BYTE   INSEG    XDATA          ?XD?ZF_DEVICE_GPS_TAU1201
0103D2H   0104D9H   000108H   BYTE   UNIT     XDATA          ?XD?UART_WRITE_STRING?ZF_DRIVER_UART
0104DAH   010579H   0000A0H   BYTE   INSEG    XDATA          ?XD?PID
01057AH   01060EH   000095H   BYTE   UNIT     XDATA          ?XD?GPS_INIT?ZF_DEVICE_GPS_TAU1201
01060FH   010698H   00008AH   BYTE   UNIT     XDATA          ?XD?BLE6A20_SEND_STRING?ZF_DEVICE_BLE6A20
010699H   0106FBH   000063H   BYTE   UNIT     XDATA          ?XD?ZF_SPRINTF?ZF_COMMON_FUNCTION
0106FCH   01075BH   000060H   BYTE   UNIT     XDATA          ?XD?GET_TWO_POINTS_DISTANCE?ZF_DEVICE_GPS_TAU1201
01075CH   0107B4H   000059H   BYTE   INSEG    XDATA          ?XD?ZF_COMMON_DEBUG
0107B5H   01080CH   000058H   BYTE   INSEG    XDATA          ?XD?IMU
01080DH   010863H   000057H   BYTE   INSEG    XDATA          ?XD?ZF_DEVICE_BLE6A20
010864H   0108A6H   000043H   BYTE   UNIT     XDATA          ?XD?GPS_GNRMC_PARSE?ZF_DEVICE_GPS_TAU1201
0108A7H   0108E7H   000041H   BYTE   INSEG    XDATA          ?XD?BLUETOOTH
0108E8H   010925H   00003EH   BYTE   UNIT     XDATA          ?XD?MAIN?MAIN
010926H   010961H   00003CH   BYTE   UNIT     XDATA          ?XD?FUNC_DOUBLE_TO_STR?ZF_COMMON_FUNCTION
010962H   010999H   000038H   BYTE   UNIT     XDATA          ?XD?GET_TWO_POINTS_AZIMUTH?ZF_DEVICE_GPS_TAU1201
01099AH   0109CDH   000034H   BYTE   UNIT     XDATA          ?XD?IPS114_SHOW_FLOAT?ZF_DEVICE_IPS114
0109CEH   0109F9H   00002CH   BYTE   UNIT     XDATA          ?XD?IPS114_SHOW_INT32?ZF_DEVICE_IPS114
0109FAH   010A24H   00002BH   BYTE   INSEG    XDATA          ?XD?GPS
010A25H   010A4EH   00002AH   BYTE   UNIT     XDATA          ?XD?FUNC_FLOAT_TO_STR?ZF_COMMON_FUNCTION
010A4FH   010A76H   000028H   BYTE   UNIT     XDATA          _XDATA_GROUP_
010A77H   010A9BH   000025H   BYTE   UNIT     XDATA          ?XD?FUNC_HEX_TO_STR?ZF_COMMON_FUNCTION
010A9CH   010ABBH   000020H   BYTE   UNIT     XDATA          ?XD?IPS114_SHOW_WAVE?ZF_DEVICE_IPS114
010ABCH   010ADBH   000020H   BYTE   INSEG    XDATA          ?XD?ZF_DEVICE_IMU660RA
010ADCH   010AF9H   00001EH   BYTE   INSEG    XDATA          ?XD?ZF_COMMON_TYPEDEF
010AFAH   010B16H   00001DH   BYTE   UNIT     XDATA          ?XD?FUNC_INT_TO_STR?ZF_COMMON_FUNCTION
010B17H   010B33H   00001DH   BYTE   UNIT     XDATA          ?XD?FUNC_STR_TO_DOUBLE?ZF_COMMON_FUNCTION
010B34H   010B4FH   00001CH   BYTE   UNIT     XDATA          ?XD?GET_DOUBLE_NUMBER?ZF_DEVICE_GPS_TAU1201
010B50H   010B68H   000019H   BYTE   UNIT     XDATA          ?XD?FUNC_UINT_TO_STR?ZF_COMMON_FUNCTION
010B69H   010B81H   000019H   BYTE   UNIT     XDATA          ?XD?IPS114_SHOW_CHINESE?ZF_DEVICE_IPS114
L251 LINKER/LOCATER V4.66.93.0                                                        05/05/2025  21:49:10  PAGE 5


010B82H   010B99H   000018H   BYTE   UNIT     XDATA          ?XD?FIFO_READ_BUFFER?ZF_COMMON_FIFO
010B9AH   010BB1H   000018H   BYTE   UNIT     XDATA          ?XD?GET_FLOAT_NUMBER?ZF_DEVICE_GPS_TAU1201
010BB2H   010BC9H   000018H   BYTE   UNIT     XDATA          ?XD?PID_PARAM_INIT?PID
010BCAH   010BE1H   000018H   BYTE   UNIT     XDATA          ?XD?MY_ATAN2?FILTER
010BE2H   010BF9H   000018H   BYTE   UNIT     XDATA          ?XD?GETEULER?FILTER
010BFAH   010C0DH   000014H   BYTE   UNIT     XDATA          ?XD?NUMBER_CONVERSION_ASCII?ZF_COMMON_FUNCTION
010C0EH   010C21H   000014H   BYTE   UNIT     XDATA          ?XD?PWM_SET_FREQ?ZF_DRIVER_PWM
010C22H   010C35H   000014H   BYTE   UNIT     XDATA          ?XD?SOFT_IIC_TRANSFER_8BIT_ARRAY?ZF_DRIVER_SOFT_IIC
010C36H   010C49H   000014H   BYTE   UNIT     XDATA          ?XD?SOFT_IIC_TRANSFER_16BIT_ARRAY?ZF_DRIVER_SOFT_IIC
010C4AH   010C5DH   000014H   BYTE   UNIT     XDATA          ?XD?SPI_INIT?ZF_DRIVER_SPI
010C5EH   010C70H   000013H   BYTE   UNIT     XDATA          ?XD?IMU660RA_READ_REGISTERS?ZF_DEVICE_IMU660RA
010C71H   010C82H   000012H   BYTE   UNIT     XDATA          ?XD?FIFO_WRITE_BUFFER?ZF_COMMON_FIFO
010C83H   010C94H   000012H   BYTE   UNIT     XDATA          ?XD?PWM_INIT?ZF_DRIVER_PWM
010C95H   010CA5H   000011H   BYTE   UNIT     XDATA          ?XD?FUNC_STR_TO_FLOAT?ZF_COMMON_FUNCTION
010CA6H   010CB6H   000011H   BYTE   UNIT     XDATA          ?XD?GET_INT_NUMBER?ZF_DEVICE_GPS_TAU1201
010CB7H   010CC6H   000010H   BYTE   INSEG    XDATA          ?XD?PWM
010CC7H   010CD4H   00000EH   BYTE   UNIT     XDATA          ?XD?FIFO_INIT?ZF_COMMON_FIFO
010CD5H   010CE2H   00000EH   BYTE   UNIT     XDATA          ?XD?FUNC_STR_TO_HEX?ZF_COMMON_FUNCTION
010CE3H   010CF0H   00000EH   BYTE   UNIT     XDATA          ?XD?PWM_SET_DUTY?ZF_DRIVER_PWM
010CF1H   010CFEH   00000EH   BYTE   UNIT     XDATA          ?XD?SOFT_IIC_WRITE_16BIT_REGISTERS?ZF_DRIVER_SOFT_IIC
010CFFH   010D0CH   00000EH   BYTE   UNIT     XDATA          ?XD?SOFT_IIC_READ_16BIT_REGISTERS?ZF_DRIVER_SOFT_IIC
010D0DH   010D1AH   00000EH   BYTE   UNIT     XDATA          ?XD?SPI_TRANSFER_8BIT?ZF_DRIVER_SPI
010D1BH   010D28H   00000EH   BYTE   UNIT     XDATA          ?XD?SPI_TRANSFER_16BIT?ZF_DRIVER_SPI
010D29H   010D36H   00000EH   BYTE   UNIT     XDATA          ?XD?GPS_GNGGA_PARSE?ZF_DEVICE_GPS_TAU1201
010D37H   010D43H   00000DH   BYTE   UNIT     XDATA          ?XD?PRINTF_REVERSE_ORDER?ZF_COMMON_FUNCTION
010D44H   010D50H   00000DH   BYTE   UNIT     XDATA          ?XD?SOFT_IIC_WRITE_8BIT_REGISTERS?ZF_DRIVER_SOFT_IIC
010D51H   010D5DH   00000DH   BYTE   UNIT     XDATA          ?XD?SOFT_IIC_READ_8BIT_REGISTERS?ZF_DRIVER_SOFT_IIC
010D5EH   010D6AH   00000DH   BYTE   UNIT     XDATA          ?XD?SOFT_IIC_INIT?ZF_DRIVER_SOFT_IIC
010D6BH   010D77H   00000DH   BYTE   UNIT     XDATA          ?XD?GET_PARAMETER_INDEX?ZF_DEVICE_GPS_TAU1201
010D78H   010D84H   00000DH   BYTE   UNIT     XDATA          ?XD?QSPI_READ_INSTR_QADDR24_QALT8_DUMMY_QDATA?QSPI
010D85H   010D91H   00000DH   BYTE   UNIT     XDATA          ?XD?QSPI_DMA_READ_INSTR_QADDR24_QALT8_DUMMY_QDATA?QSPI
010D92H   010D9EH   00000DH   BYTE   UNIT     XDATA          ?XD?QSPI_READ_INSTR_QADDR32_QALT8_DUMMY_QDATA?QSPI
010D9FH   010DABH   00000DH   BYTE   UNIT     XDATA          ?XD?QSPI_DMA_READ_INSTR_QADDR32_QALT8_DUMMY_QDATA?QSPI
010DACH   010DB8H   00000DH   BYTE   UNIT     XDATA          ?XD?QSPI_READ_QINSTR_QADDR24_QALT8_DUMMY_QDATA?QSPI
010DB9H   010DC5H   00000DH   BYTE   UNIT     XDATA          ?XD?QSPI_DMA_READ_QINSTR_QADDR24_QALT8_DUMMY_QDATA?QSPI
010DC6H   010DD1H   00000CH   BYTE   UNIT     XDATA          ?XD?SOFT_IIC_WRITE_8BIT_ARRAY?ZF_DRIVER_SOFT_IIC
010DD2H   010DDDH   00000CH   BYTE   UNIT     XDATA          ?XD?SOFT_IIC_WRITE_16BIT_ARRAY?ZF_DRIVER_SOFT_IIC
010DDEH   010DE9H   00000CH   BYTE   UNIT     XDATA          ?XD?SOFT_IIC_READ_8BIT_ARRAY?ZF_DRIVER_SOFT_IIC
010DEAH   010DF5H   00000CH   BYTE   UNIT     XDATA          ?XD?SOFT_IIC_READ_16BIT_ARRAY?ZF_DRIVER_SOFT_IIC
010DF6H   010E01H   00000CH   BYTE   UNIT     XDATA          ?XD?SPI_WRITE_16BIT_REGISTERS?ZF_DRIVER_SPI
010E02H   010E0DH   00000CH   BYTE   UNIT     XDATA          ?XD?SPI_READ_16BIT_REGISTERS?ZF_DRIVER_SPI
010E0EH   010E19H   00000CH   BYTE   INSEG    XDATA          ?XD?ZF_DRIVER_TIMER
010E1AH   010E25H   00000CH   BYTE   INSEG    XDATA          ?XD?ZF_DRIVER_UART
010E26H   010E31H   00000CH   BYTE   UNIT     XDATA          ?XD?UART_INIT?ZF_DRIVER_UART
010E32H   010E3DH   00000CH   BYTE   UNIT     XDATA          ?XD?IPS114_SHOW_INT16?ZF_DEVICE_IPS114
010E3EH   010E49H   00000CH   BYTE   UNIT     XDATA          ?XD?IPS114_SHOW_UINT16?ZF_DEVICE_IPS114
010E4AH   010E55H   00000CH   BYTE   UNIT     XDATA          ?XD?BLE6A20_READ_BUFFER?ZF_DEVICE_BLE6A20
010E56H   010E61H   00000CH   BYTE   UNIT     XDATA          ?XD?GPS_DATA_PARSE?ZF_DEVICE_GPS_TAU1201
010E62H   010E6DH   00000CH   BYTE   UNIT     XDATA          ?XD?PIT_HANLDER_ANGLE?ISR
010E6EH   010E79H   00000CH   BYTE   UNIT     XDATA          ?XD?PIDLOCCTRL?PID
010E7AH   010E85H   00000CH   BYTE   UNIT     XDATA          ?XD?PIDINCCTRL?PID
010E86H   010E91H   00000CH   BYTE   UNIT     XDATA          ?XD?CONSTRAIN_FLOAT?PID
010E92H   010E9DH   00000CH   BYTE   UNIT     XDATA          ?XD?FOCF?FILTER
010E9EH   010EA9H   00000CH   BYTE   UNIT     XDATA          ?XD?QSPI_READ_INSTR_SADDR24_DUMMY_SDATA?QSPI
010EAAH   010EB5H   00000CH   BYTE   UNIT     XDATA          ?XD?QSPI_DMA_READ_INSTR_SADDR24_DUMMY_SDATA?QSPI
010EB6H   010EC1H   00000CH   BYTE   UNIT     XDATA          ?XD?QSPI_READ_INSTR_SADDR32_DUMMY_SDATA?QSPI
010EC2H   010ECDH   00000CH   BYTE   UNIT     XDATA          ?XD?QSPI_DMA_READ_INSTR_SADDR32_DUMMY_SDATA?QSPI
010ECEH   010ED9H   00000CH   BYTE   UNIT     XDATA          ?XD?QSPI_READ_INSTR_DADDR24_DALT8_DDATA?QSPI
010EDAH   010EE5H   00000CH   BYTE   UNIT     XDATA          ?XD?QSPI_DMA_READ_INSTR_DADDR24_DALT8_DDATA?QSPI
010EE6H   010EF1H   00000CH   BYTE   UNIT     XDATA          ?XD?QSPI_READ_INSTR_DADDR32_DALT8_DDATA?QSPI
010EF2H   010EFDH   00000CH   BYTE   UNIT     XDATA          ?XD?QSPI_DMA_READ_INSTR_DADDR32_DALT8_DDATA?QSPI
010EFEH   010F09H   00000CH   BYTE   UNIT     XDATA          ?XD?QSPI_READ_INSTR_SADDR24_DUMMY_DDATA?QSPI
010F0AH   010F15H   00000CH   BYTE   UNIT     XDATA          ?XD?QSPI_DMA_READ_INSTR_SADDR24_DUMMY_DDATA?QSPI
010F16H   010F21H   00000CH   BYTE   UNIT     XDATA          ?XD?QSPI_READ_INSTR_SADDR24_DUMMY_QDATA?QSPI
010F22H   010F2DH   00000CH   BYTE   UNIT     XDATA          ?XD?QSPI_DMA_READ_INSTR_SADDR24_DUMMY_QDATA?QSPI
L251 LINKER/LOCATER V4.66.93.0                                                        05/05/2025  21:49:10  PAGE 6


010F2EH   010F39H   00000CH   BYTE   UNIT     XDATA          ?XD?QSPI_READ_INSTR_SADDR32_DUMMY_DDATA?QSPI
010F3AH   010F45H   00000CH   BYTE   UNIT     XDATA          ?XD?QSPI_DMA_READ_INSTR_SADDR32_DUMMY_DDATA?QSPI
010F46H   010F51H   00000CH   BYTE   UNIT     XDATA          ?XD?QSPI_READ_INSTR_SADDR32_DUMMY_QDATA?QSPI
010F52H   010F5DH   00000CH   BYTE   UNIT     XDATA          ?XD?QSPI_DMA_READ_INSTR_SADDR32_DUMMY_QDATA?QSPI
010F5EH   010F69H   00000CH   BYTE   UNIT     XDATA          ?XD?QSPI_READ_QINSTR_QADDR24_DUMMY_QDATA?QSPI
010F6AH   010F75H   00000CH   BYTE   UNIT     XDATA          ?XD?QSPI_DMA_READ_QINSTR_QADDR24_DUMMY_QDATA?QSPI
010F76H   010F80H   00000BH   BYTE   UNIT     XDATA          ?XD?PIT_INIT?ZF_DRIVER_PIT
010F81H   010F8BH   00000BH   BYTE   UNIT     XDATA          ?XD?SPI_WRITE_8BIT_REGISTERS?ZF_DRIVER_SPI
010F8CH   010F96H   00000BH   BYTE   UNIT     XDATA          ?XD?SPI_READ_8BIT_REGISTERS?ZF_DRIVER_SPI
010F97H   010FA1H   00000BH   BYTE   UNIT     XDATA          ?XD?GPS_UART_CALLBACK?ZF_DEVICE_GPS_TAU1201
010FA2H   010FACH   00000BH   BYTE   UNIT     XDATA          ?XD?QSPI_READ_INSTR_SADDR24_SDATA?QSPI
010FADH   010FB7H   00000BH   BYTE   UNIT     XDATA          ?XD?QSPI_DMA_READ_INSTR_SADDR24_SDATA?QSPI
010FB8H   010FC2H   00000BH   BYTE   UNIT     XDATA          ?XD?QSPI_READ_INSTR_SADDR32_SDATA?QSPI
010FC3H   010FCDH   00000BH   BYTE   UNIT     XDATA          ?XD?QSPI_DMA_READ_INSTR_SADDR32_SDATA?QSPI
010FCEH   010FD8H   00000BH   BYTE   UNIT     XDATA          ?XD?QSPI_WRITE_INSTR_SADDR24_SDATA?QSPI
010FD9H   010FE3H   00000BH   BYTE   UNIT     XDATA          ?XD?QSPI_DMA_WRITE_INSTR_SADDR24_SDATA?QSPI
010FE4H   010FEEH   00000BH   BYTE   UNIT     XDATA          ?XD?QSPI_WRITE_INSTR_SADDR24_QDATA?QSPI
010FEFH   010FF9H   00000BH   BYTE   UNIT     XDATA          ?XD?QSPI_DMA_WRITE_INSTR_SADDR24_QDATA?QSPI
010FFAH   011004H   00000BH   BYTE   UNIT     XDATA          ?XD?QSPI_WRITE_INSTR_SADDR32_SDATA?QSPI
011005H   01100FH   00000BH   BYTE   UNIT     XDATA          ?XD?QSPI_DMA_WRITE_INSTR_SADDR32_SDATA?QSPI
011010H   01101AH   00000BH   BYTE   UNIT     XDATA          ?XD?QSPI_WRITE_INSTR_SADDR32_QDATA?QSPI
01101BH   011025H   00000BH   BYTE   UNIT     XDATA          ?XD?QSPI_DMA_WRITE_INSTR_SADDR32_QDATA?QSPI
011026H   011030H   00000BH   BYTE   UNIT     XDATA          ?XD?QSPI_READ_QINSTR_QADDR24_QDATA?QSPI
011031H   01103BH   00000BH   BYTE   UNIT     XDATA          ?XD?W25Q_READDATA_03?W25QXX
01103CH   011046H   00000BH   BYTE   UNIT     XDATA          ?XD?W25Q_READDATA_ADDR32_13?W25QXX
011047H   011051H   00000BH   BYTE   UNIT     XDATA          ?XD?W25Q_FASTREAD_0B?W25QXX
011052H   01105CH   00000BH   BYTE   UNIT     XDATA          ?XD?W25Q_QPI_FASTREAD_0B?W25QXX
01105DH   011067H   00000BH   BYTE   UNIT     XDATA          ?XD?W25Q_FASTREAD_ADDR32_0C?W25QXX
011068H   011072H   00000BH   BYTE   UNIT     XDATA          ?XD?W25Q_FASTREAD_3B?W25QXX
011073H   01107DH   00000BH   BYTE   UNIT     XDATA          ?XD?W25Q_FASTREAD_ADDR32_3C?W25QXX
01107EH   011088H   00000BH   BYTE   UNIT     XDATA          ?XD?W25Q_FASTREAD_6B?W25QXX
011089H   011093H   00000BH   BYTE   UNIT     XDATA          ?XD?W25Q_FASTREAD_ADDR32_6C?W25QXX
011094H   01109EH   00000BH   BYTE   UNIT     XDATA          ?XD?W25Q_FASTREAD_BB?W25QXX
01109FH   0110A9H   00000BH   BYTE   UNIT     XDATA          ?XD?W25Q_FASTREAD_ADDR32_BC?W25QXX
0110AAH   0110B4H   00000BH   BYTE   UNIT     XDATA          ?XD?W25Q_FASTREAD_EB?W25QXX
0110B5H   0110BFH   00000BH   BYTE   UNIT     XDATA          ?XD?W25Q_QPI_FASTREAD_EB?W25QXX
0110C0H   0110CAH   00000BH   BYTE   UNIT     XDATA          ?XD?W25Q_FASTREAD_ADDR32_EC?W25QXX
0110CBH   0110D5H   00000BH   BYTE   UNIT     XDATA          ?XD?W25Q_WORDREAD_E7?W25QXX
0110D6H   0110E0H   00000BH   BYTE   UNIT     XDATA          ?XD?W25Q_OCTALWORDREAD_E3?W25QXX
0110E1H   0110EBH   00000BH   BYTE   UNIT     XDATA          ?XD?W25Q_PAGEPROGRAM_02?W25QXX
0110ECH   0110F6H   00000BH   BYTE   UNIT     XDATA          ?XD?W25Q_PAGEPROGRAM_ADDR32_12?W25QXX
0110F7H   011101H   00000BH   BYTE   UNIT     XDATA          ?XD?W25Q_PAGEPROGRAM_32?W25QXX
011102H   01110CH   00000BH   BYTE   UNIT     XDATA          ?XD?W25Q_PAGEPROGRAM_ADDR32_34?W25QXX
01110DH   011117H   00000BH   BYTE   UNIT     XDATA          ?XD?W25Q_PROGRAMSECURITYREG_42?W25QXX
011118H   011122H   00000BH   BYTE   UNIT     XDATA          ?XD?W25Q_READSECURITYREG_48?W25QXX
011123H   01112DH   00000BH   BYTE   UNIT     XDATA          ?XD?W25Q_QPI_BURSTREADWITHWRAP_0C?W25QXX
01112EH   011137H   00000AH   BYTE   UNIT     XDATA          ?XD?SPI_WRITE_8BIT_ARRAY?ZF_DRIVER_SPI
011138H   011141H   00000AH   BYTE   UNIT     XDATA          ?XD?SPI_WRITE_16BIT_ARRAY?ZF_DRIVER_SPI
011142H   01114BH   00000AH   BYTE   UNIT     XDATA          ?XD?SPI_READ_8BIT_ARRAY?ZF_DRIVER_SPI
01114CH   011155H   00000AH   BYTE   UNIT     XDATA          ?XD?SPI_READ_16BIT_ARRAY?ZF_DRIVER_SPI
011156H   01115FH   00000AH   BYTE   UNIT     XDATA          ?XD?IPS114_SHOW_STRING?ZF_DEVICE_IPS114
011160H   011169H   00000AH   BYTE   UNIT     XDATA          ?XD?BLE6A20_SEND_BUFFER?ZF_DEVICE_BLE6A20
01116AH   011173H   00000AH   BYTE   UNIT     XDATA          ?XD?W25Q_DMA_READDATA_03?W25QXX
011174H   01117DH   00000AH   BYTE   UNIT     XDATA          ?XD?W25Q_DMA_READDATA_ADDR32_13?W25QXX
01117EH   011187H   00000AH   BYTE   UNIT     XDATA          ?XD?W25Q_DMA_FASTREAD_0B?W25QXX
011188H   011191H   00000AH   BYTE   UNIT     XDATA          ?XD?W25Q_QPI_DMA_FASTREAD_0B?W25QXX
011192H   01119BH   00000AH   BYTE   UNIT     XDATA          ?XD?W25Q_DMA_FASTREAD_ADDR32_0C?W25QXX
01119CH   0111A5H   00000AH   BYTE   UNIT     XDATA          ?XD?W25Q_DMA_FASTREAD_3B?W25QXX
0111A6H   0111AFH   00000AH   BYTE   UNIT     XDATA          ?XD?W25Q_DMA_FASTREAD_ADDR32_3C?W25QXX
0111B0H   0111B9H   00000AH   BYTE   UNIT     XDATA          ?XD?W25Q_DMA_FASTREAD_6B?W25QXX
0111BAH   0111C3H   00000AH   BYTE   UNIT     XDATA          ?XD?W25Q_DMA_FASTREAD_ADDR32_6C?W25QXX
0111C4H   0111CDH   00000AH   BYTE   UNIT     XDATA          ?XD?W25Q_DMA_FASTREAD_BB?W25QXX
0111CEH   0111D7H   00000AH   BYTE   UNIT     XDATA          ?XD?W25Q_DMA_FASTREAD_ADDR32_BC?W25QXX
0111D8H   0111E1H   00000AH   BYTE   UNIT     XDATA          ?XD?W25Q_DMA_FASTREAD_EB?W25QXX
0111E2H   0111EBH   00000AH   BYTE   UNIT     XDATA          ?XD?W25Q_QPI_DMA_FASTREAD_EB?W25QXX
L251 LINKER/LOCATER V4.66.93.0                                                        05/05/2025  21:49:10  PAGE 7


0111ECH   0111F5H   00000AH   BYTE   UNIT     XDATA          ?XD?W25Q_DMA_FASTREAD_ADDR32_EC?W25QXX
0111F6H   0111FFH   00000AH   BYTE   UNIT     XDATA          ?XD?W25Q_DMA_WORDREAD_E7?W25QXX
011200H   011209H   00000AH   BYTE   UNIT     XDATA          ?XD?W25Q_DMA_OCTALWORDREAD_E3?W25QXX
01120AH   011213H   00000AH   BYTE   UNIT     XDATA          ?XD?W25Q_DMA_PAGEPROGRAM_02?W25QXX
011214H   01121DH   00000AH   BYTE   UNIT     XDATA          ?XD?W25Q_DMA_PAGEPROGRAM_ADDR32_12?W25QXX
01121EH   011227H   00000AH   BYTE   UNIT     XDATA          ?XD?W25Q_DMA_PAGEPROGRAM_32?W25QXX
011228H   011231H   00000AH   BYTE   UNIT     XDATA          ?XD?W25Q_DMA_PAGEPROGRAM_ADDR32_34?W25QXX
011232H   01123AH   000009H   BYTE   UNIT     XDATA          ?XD?FUNC_STR_TO_INT?ZF_COMMON_FUNCTION
01123BH   011243H   000009H   BYTE   UNIT     XDATA          ?XD?IPS114_SHOW_INT8?ZF_DEVICE_IPS114
011244H   01124CH   000009H   BYTE   UNIT     XDATA          ?XD?IPS114_SHOW_UINT8?ZF_DEVICE_IPS114
01124DH   011255H   000009H   BYTE   UNIT     XDATA          ?XD?IMU660RA_WRITE_REGISTERS?ZF_DEVICE_IMU660RA
011256H   01125DH   000008H   BYTE   UNIT     XDATA          ?XD?DEBUG_SEND_BUFFER?ZF_COMMON_DEBUG
01125EH   011265H   000008H   BYTE   UNIT     XDATA          ?XD?DEBUG_READ_BUFFER?ZF_COMMON_DEBUG
011266H   01126DH   000008H   BYTE   UNIT     XDATA          ?XD?FIFO_HEAD_OFFSET?ZF_COMMON_FIFO
01126EH   011275H   000008H   BYTE   UNIT     XDATA          ?XD?FIFO_END_OFFSET?ZF_COMMON_FIFO
011276H   01127DH   000008H   BYTE   UNIT     XDATA          ?XD?FUNC_GET_GREATEST_COMMON_DIVISOR?ZF_COMMON_FUNCTION
01127EH   011285H   000008H   BYTE   UNIT     XDATA          ?XD?FUNC_STR_TO_UINT?ZF_COMMON_FUNCTION
011286H   01128DH   000008H   BYTE   UNIT     XDATA          ?XD?ADC_MEAN_FILTER_CONVERT?ZF_DRIVER_ADC
01128EH   011295H   000008H   BYTE   UNIT     XDATA          ?XD?SOFT_IIC_DELAY?ZF_DRIVER_SOFT_IIC
011296H   01129DH   000008H   BYTE   UNIT     XDATA          ?XD?SOFT_IIC_WRITE_16BIT_REGISTER?ZF_DRIVER_SOFT_IIC
01129EH   0112A5H   000008H   BYTE   UNIT     XDATA          ?XD?SOFT_IIC_READ_16BIT_REGISTER?ZF_DRIVER_SOFT_IIC
0112A6H   0112ADH   000008H   BYTE   UNIT     XDATA          ?XD?UART_WRITE_BUFFER?ZF_DRIVER_UART
0112AEH   0112B5H   000008H   BYTE   INSEG    XDATA          ?XD?ZF_DEVICE_IPS114
0112B6H   0112BDH   000008H   BYTE   UNIT     XDATA          ?XD?IPS114_SET_REGION?ZF_DEVICE_IPS114
0112BEH   0112C5H   000008H   BYTE   UNIT     XDATA          ?XD?IPS114_SHOW_CHAR?ZF_DEVICE_IPS114
0112C6H   0112CDH   000008H   BYTE   INSEG    XDATA          ?XD?ZF_DEVICE_TYPE
0112CEH   0112D5H   000008H   BYTE   UNIT     XDATA          ?XD?SET_WIRELESS_TYPE?ZF_DEVICE_TYPE
0112D6H   0112DDH   000008H   BYTE   UNIT     XDATA          ?XD?SET_GPS_TYPE?ZF_DEVICE_TYPE
0112DEH   0112E5H   000008H   BYTE   UNIT     XDATA          ?XD?W25Q_READSFDP_5A?W25QXX
0112E6H   0112ECH   000007H   BYTE   UNIT     XDATA          ?XD?GPIO_INIT?ZF_DRIVER_GPIO
0112EDH   0112F3H   000007H   BYTE   UNIT     XDATA          ?XD?SOFT_IIC_READ_DATA?ZF_DRIVER_SOFT_IIC
0112F4H   0112FAH   000007H   BYTE   UNIT     XDATA          ?XD?UART_QUERY_BYTE?ZF_DRIVER_UART
0112FBH   011301H   000007H   BYTE   UNIT     XDATA          ?XD?QSPI_READ_INSTR_SDATA?QSPI
011302H   011308H   000007H   BYTE   UNIT     XDATA          ?XD?QSPI_READ_QINSTR_QDATA?QSPI
011309H   01130EH   000006H   BYTE   UNIT     XDATA          ?XD?FIFO_CLEAR?ZF_COMMON_FIFO
01130FH   011314H   000006H   BYTE   INSEG    XDATA          ?XD?ZF_DRIVER_ENCODER
011315H   01131AH   000006H   BYTE   UNIT     XDATA          ?XD?ENCODER_DIR_INIT?ZF_DRIVER_ENCODER
01131BH   011320H   000006H   BYTE   UNIT     XDATA          ?XD?SOFT_IIC_SEND_DATA?ZF_DRIVER_SOFT_IIC
011321H   011326H   000006H   BYTE   UNIT     XDATA          ?XD?SOFT_IIC_WRITE_16BIT?ZF_DRIVER_SOFT_IIC
011327H   01132CH   000006H   BYTE   UNIT     XDATA          ?XD?SOFT_IIC_WRITE_8BIT_REGISTER?ZF_DRIVER_SOFT_IIC
01132DH   011332H   000006H   BYTE   UNIT     XDATA          ?XD?SOFT_IIC_READ_16BIT?ZF_DRIVER_SOFT_IIC
011333H   011338H   000006H   BYTE   UNIT     XDATA          ?XD?SOFT_IIC_READ_8BIT_REGISTER?ZF_DRIVER_SOFT_IIC
011339H   01133EH   000006H   BYTE   UNIT     XDATA          ?XD?SOFT_IIC_SCCB_WRITE_REGISTER?ZF_DRIVER_SOFT_IIC
01133FH   011344H   000006H   BYTE   UNIT     XDATA          ?XD?SOFT_IIC_SCCB_READ_REGISTER?ZF_DRIVER_SOFT_IIC
011345H   01134AH   000006H   BYTE   UNIT     XDATA          ?XD?SPI_WRITE_16BIT_REGISTER?ZF_DRIVER_SPI
01134BH   011350H   000006H   BYTE   UNIT     XDATA          ?XD?SPI_READ_16BIT_REGISTER?ZF_DRIVER_SPI
011351H   011356H   000006H   BYTE   UNIT     XDATA          ?XD?IPS114_CLEAR?ZF_DEVICE_IPS114
011357H   01135CH   000006H   BYTE   UNIT     XDATA          ?XD?IPS114_DRAW_POINT?ZF_DEVICE_IPS114
01135DH   011362H   000006H   BYTE   UNIT     XDATA          ?XD?IMU660RA_GET_ACC?ZF_DEVICE_IMU660RA
011363H   011368H   000006H   BYTE   UNIT     XDATA          ?XD?IMU660RA_GET_GYRO?ZF_DEVICE_IMU660RA
011369H   01136EH   000006H   BYTE   UNIT     XDATA          ?XD?SET_TOF_TYPE?ZF_DEVICE_TYPE
01136FH   011374H   000006H   BYTE   UNIT     XDATA          ?XD?CONSTRAIN_SHORT?PID
011375H   01137AH   000006H   BYTE   UNIT     XDATA          ?XD?QSPI_DMA_READ?QSPI
01137BH   011380H   000006H   BYTE   UNIT     XDATA          ?XD?QSPI_DMA_WRITE?QSPI
011381H   011385H   000005H   BYTE   UNIT     XDATA          ?XD?SOFT_IIC_SEND_ACK?ZF_DRIVER_SOFT_IIC
011386H   01138AH   000005H   BYTE   UNIT     XDATA          ?XD?SOFT_IIC_WAIT_ACK?ZF_DRIVER_SOFT_IIC
01138BH   01138FH   000005H   BYTE   UNIT     XDATA          ?XD?SOFT_IIC_WRITE_8BIT?ZF_DRIVER_SOFT_IIC
011390H   011394H   000005H   BYTE   UNIT     XDATA          ?XD?SOFT_IIC_READ_8BIT?ZF_DRIVER_SOFT_IIC
011395H   011399H   000005H   BYTE   UNIT     XDATA          ?XD?TIMER_FUNCITON_CHECK?ZF_DRIVER_TIMER
01139AH   01139EH   000005H   BYTE   UNIT     XDATA          ?XD?UART_FUNCITON_CHECK?ZF_DRIVER_UART
01139FH   0113A3H   000005H   BYTE   UNIT     XDATA          ?XD?UTC_TO_BTC?ZF_DEVICE_GPS_TAU1201
0113A4H   0113A8H   000005H   BYTE   UNIT     XDATA          ?XD?QSPI_WRITE_INSTR_SADDR24?QSPI
0113A9H   0113ADH   000005H   BYTE   UNIT     XDATA          ?XD?QSPI_WRITE_INSTR_SADDR32?QSPI
0113AEH   0113B2H   000005H   BYTE   UNIT     XDATA          ?XD?QSPI_WRITE_INSTR_QADDR32?QSPI
0113B3H   0113B7H   000005H   BYTE   UNIT     XDATA          ?XD?QSPI_WRITE_QINSTR_QADDR24?QSPI
L251 LINKER/LOCATER V4.66.93.0                                                        05/05/2025  21:49:10  PAGE 8


0113B8H   0113BCH   000005H   BYTE   UNIT     XDATA          ?XD?QSPI_POLLING_READ_INSTR_SDATA?QSPI
0113BDH   0113C1H   000005H   BYTE   UNIT     XDATA          ?XD?QSPI_POLLING_READ_QINSTR_QDATA?QSPI
0113C2H   0113C6H   000005H   BYTE   UNIT     XDATA          ?XD?W25Q_READLOCKSECTOR_3D?W25QXX
0113C7H   0113CBH   000005H   BYTE   UNIT     XDATA          ?XD?W25Q_QPI_READLOCKSECTOR_3D?W25QXX
0113CCH   0113CFH   000004H   BYTE   INSEG    XDATA          ?XD?ZF_COMMON_CLOCK
0113D0H   0113D3H   000004H   BYTE   UNIT     XDATA          ?XD?CLOCK_INIT?ZF_COMMON_CLOCK
0113D4H   0113D7H   000004H   BYTE   UNIT     XDATA          ?XD?FIFO_USED?ZF_COMMON_FIFO
0113D8H   0113DBH   000004H   BYTE   UNIT     XDATA          ?XD?FUNC_SOFT_DELAY?ZF_COMMON_FUNCTION
0113DCH   0113DFH   000004H   BYTE   UNIT     XDATA          ?XD?ADC_CONVERT?ZF_DRIVER_ADC
0113E0H   0113E3H   000004H   BYTE   UNIT     XDATA          ?XD?ADC_INIT?ZF_DRIVER_ADC
0113E4H   0113E7H   000004H   BYTE   INSEG    XDATA          ?XD?ZF_DRIVER_DELAY
0113E8H   0113EBH   000004H   BYTE   UNIT     XDATA          ?XD?SYSTEM_DELAY_MS?ZF_DRIVER_DELAY
0113ECH   0113EFH   000004H   BYTE   UNIT     XDATA          ?XD?SYSTEM_DELAY_US?ZF_DRIVER_DELAY
0113F0H   0113F3H   000004H   BYTE   UNIT     XDATA          ?XD?ENCODER_GET_COUNT?ZF_DRIVER_ENCODER
0113F4H   0113F7H   000004H   BYTE   UNIT     XDATA          ?XD?GPIO_SET_MODE?ZF_DRIVER_GPIO
0113F8H   0113FBH   000004H   BYTE   UNIT     XDATA          ?XD?GPIO_SET_LEVEL_SPEED?ZF_DRIVER_GPIO
0113FCH   0113FFH   000004H   BYTE   UNIT     XDATA          ?XD?GPIO_SET_DIR?ZF_DRIVER_GPIO
011400H   011403H   000004H   BYTE   UNIT     XDATA          ?XD?SOFT_IIC_START?ZF_DRIVER_SOFT_IIC
011404H   011407H   000004H   BYTE   UNIT     XDATA          ?XD?SOFT_IIC_STOP?ZF_DRIVER_SOFT_IIC
011408H   01140BH   000004H   BYTE   UNIT     XDATA          ?XD?SPI_READ_DAT?ZF_DRIVER_SPI
01140CH   01140FH   000004H   BYTE   UNIT     XDATA          ?XD?SPI_WRITE_16BIT?ZF_DRIVER_SPI
011410H   011413H   000004H   BYTE   UNIT     XDATA          ?XD?SPI_WRITE_8BIT_REGISTER?ZF_DRIVER_SPI
011414H   011417H   000004H   BYTE   UNIT     XDATA          ?XD?SPI_READ_16BIT?ZF_DRIVER_SPI
011418H   01141BH   000004H   BYTE   UNIT     XDATA          ?XD?IPS114_SET_COLOR?ZF_DEVICE_IPS114
01141CH   01141FH   000004H   BYTE   UNIT     XDATA          ?XD?IMU660RA_SELF_CHECK?ZF_DEVICE_IMU660RA
011420H   011423H   000004H   BYTE   UNIT     XDATA          ?XD?TSL1401_SEND_DATA?ZF_DEVICE_TSL1401
011424H   011427H   000004H   BYTE   UNIT     XDATA          ?XD?ANGLE_PID_FUN?PID
011428H   01142BH   000004H   BYTE   UNIT     XDATA          ?XD?VELOCITY_PID_FUN?PID
01142CH   01142FH   000004H   BYTE   UNIT     XDATA          ?XD?CONSTRAIN_UINT32?PID
011430H   011433H   000004H   BYTE   UNIT     XDATA          ?XD?BLUE_TOOTH_READ?BLUETOOTH
011434H   011437H   000004H   BYTE   INSEG    XDATA          ?XD?STATEMACHINE
011438H   01143BH   000004H   BYTE   UNIT     XDATA          ?XD?STATEUPDATE?STATEMACHINE
01143CH   01143FH   000004H   BYTE   UNIT     XDATA          ?XD?W25Q_ERASE4K_20?W25QXX
011440H   011443H   000004H   BYTE   UNIT     XDATA          ?XD?W25Q_QPI_ERASE4K_20?W25QXX
011444H   011447H   000004H   BYTE   UNIT     XDATA          ?XD?W25Q_ERASE4K_ADDR32_21?W25QXX
011448H   01144BH   000004H   BYTE   UNIT     XDATA          ?XD?W25Q_ERASE32K_52?W25QXX
01144CH   01144FH   000004H   BYTE   UNIT     XDATA          ?XD?W25Q_QPI_ERASE32K_52?W25QXX
011450H   011453H   000004H   BYTE   UNIT     XDATA          ?XD?W25Q_ERASE64K_D8?W25QXX
011454H   011457H   000004H   BYTE   UNIT     XDATA          ?XD?W25Q_QPI_ERASE64K_D8?W25QXX
011458H   01145BH   000004H   BYTE   UNIT     XDATA          ?XD?W25Q_ERASE64K_ADDR32_DC?W25QXX
01145CH   01145FH   000004H   BYTE   UNIT     XDATA          ?XD?W25Q_READUNIQUEID_4B?W25QXX
011460H   011463H   000004H   BYTE   UNIT     XDATA          ?XD?W25Q_READJEDECID_9F?W25QXX
011464H   011467H   000004H   BYTE   UNIT     XDATA          ?XD?W25Q_QPI_READJEDECID_9F?W25QXX
011468H   01146BH   000004H   BYTE   UNIT     XDATA          ?XD?W25Q_ERASESECURITYREG_44?W25QXX
01146CH   01146FH   000004H   BYTE   UNIT     XDATA          ?XD?W25Q_LOCKSECTOR_36?W25QXX
011470H   011473H   000004H   BYTE   UNIT     XDATA          ?XD?W25Q_QPI_LOCKSECTOR_36?W25QXX
011474H   011477H   000004H   BYTE   UNIT     XDATA          ?XD?W25Q_UNLOCKSECTOR_39?W25QXX
011478H   01147BH   000004H   BYTE   UNIT     XDATA          ?XD?W25Q_QPI_UNLOCKSECTOR_39?W25QXX
01147CH   01147EH   000003H   BYTE   UNIT     XDATA          ?XD?INTERRUPT_SET_PRIORITY?ZF_COMMON_INTERRUPT
01147FH   011481H   000003H   BYTE   UNIT     XDATA          ?XD?GPIO_GET_LEVEL?ZF_DRIVER_GPIO
011482H   011484H   000003H   BYTE   UNIT     XDATA          ?XD?GPIO_SET_LEVEL?ZF_DRIVER_GPIO
011485H   011487H   000003H   BYTE   UNIT     XDATA          ?XD?SPI_WRITE_DAT?ZF_DRIVER_SPI
011488H   01148AH   000003H   BYTE   UNIT     XDATA          ?XD?SPI_WRITE_8BIT?ZF_DRIVER_SPI
01148BH   01148DH   000003H   BYTE   UNIT     XDATA          ?XD?SPI_READ_8BIT_REGISTER?ZF_DRIVER_SPI
01148EH   011490H   000003H   BYTE   UNIT     XDATA          ?XD?UART_WRITE_BYTE?ZF_DRIVER_UART
011491H   011493H   000003H   BYTE   UNIT     XDATA          ?XD?UART_RX_INTERRUPT?ZF_DRIVER_UART
011494H   011496H   000003H   BYTE   UNIT     XDATA          ?XD?UART_READ_BYTE?ZF_DRIVER_UART
011497H   011499H   000003H   BYTE   UNIT     XDATA          ?XD?BLE6A20_SEND_BYTE?ZF_DEVICE_BLE6A20
01149AH   01149CH   000003H   BYTE   UNIT     XDATA          ?XD?IMU660RA_READ_REGISTER?ZF_DEVICE_IMU660RA
01149DH   01149FH   000003H   BYTE   UNIT     XDATA          ?XD?QSPI_WRITE_INSTR_SADDR16?QSPI
0114A0H   0114A1H   000002H   BYTE   UNIT     XDATA          ?XD?ENCODER_CLEAR_COUNT?ZF_DRIVER_ENCODER
0114A2H   0114A3H   000002H   BYTE   UNIT     XDATA          ?XD?GPIO_TOGGLE_LEVEL?ZF_DRIVER_GPIO
0114A4H   0114A5H   000002H   BYTE   UNIT     XDATA          ?XD?GPIO_SET_IMPEDANCE?ZF_DRIVER_GPIO
0114A6H   0114A7H   000002H   BYTE   UNIT     XDATA          ?XD?SPI_READ_8BIT?ZF_DRIVER_SPI
0114A8H   0114A9H   000002H   BYTE   UNIT     XDATA          ?XD?UART_RX_START_BUFF?ZF_DRIVER_UART
L251 LINKER/LOCATER V4.66.93.0                                                        05/05/2025  21:49:10  PAGE 9


0114AAH   0114ABH   000002H   BYTE   UNIT     XDATA          ?XD?UART_DMA_INIT?ZF_DRIVER_UART
0114ACH   0114ADH   000002H   BYTE   UNIT     XDATA          ?XD?IPS114_SET_DIR?ZF_DEVICE_IPS114
0114AEH   0114AFH   000002H   BYTE   UNIT     XDATA          ?XD?IMU660RA_WRITE_REGISTER?ZF_DEVICE_IMU660RA
0114B0H   0114B1H   000002H   BYTE   UNIT     XDATA          ?XD?QSPI_WRITE_INSTR_SADDR8?QSPI
0114B2H   0114B3H   000002H   BYTE   UNIT     XDATA          ?XD?QSPI_WRITE_QINSTR_QADDR8?QSPI
0114B4H   0114B5H   000002H   BYTE   UNIT     XDATA          ?XD?W25Q_QPI_WAITBUSY?W25QXX
0114B6H   0114B7H   000002H   BYTE   UNIT     XDATA          ?XD?W25Q_WRITESR12_01?W25QXX
0114B8H   0114B9H   000002H   BYTE   UNIT     XDATA          ?XD?W25Q_READID_90?W25QXX
0114BAH   0114BBH   000002H   BYTE   UNIT     XDATA          ?XD?W25Q_READID_92?W25QXX
0114BCH   0114BDH   000002H   BYTE   UNIT     XDATA          ?XD?W25Q_READID_94?W25QXX
0114BEH   0114BEH   000001H   BYTE   UNIT     XDATA          ?XD?DEBUG_INTERRUPR_HANDLER?ZF_COMMON_DEBUG
0114BFH   0114BFH   000001H   BYTE   UNIT     XDATA          ?XD?PUTCHAR?ZF_COMMON_DEBUG
0114C0H   0114C0H   000001H   BYTE   UNIT     XDATA          ?XD?DEBUG_INIT?ZF_COMMON_DEBUG
0114C1H   0114C1H   000001H   BYTE   INSEG    XDATA          ?XD?ZF_DRIVER_ADC
0114C2H   0114C2H   000001H   BYTE   UNIT     XDATA          ?XD?IPS114_WRITE_INDEX?ZF_DEVICE_IPS114
0114C3H   0114C3H   000001H   BYTE   UNIT     XDATA          ?XD?BLE6A20_CALLBACK?ZF_DEVICE_BLE6A20
0114C4H   0114C4H   000001H   BYTE   UNIT     XDATA          ?XD?BLE6A20_INIT?ZF_DEVICE_BLE6A20
0114C5H   0114C5H   000001H   BYTE   UNIT     XDATA          ?XD?IMU660RA_INIT?ZF_DEVICE_IMU660RA
0114C6H   0114C6H   000001H   BYTE   UNIT     XDATA          ?XD?TSL1401_COLLECT_PIT_HANDLER?ZF_DEVICE_TSL1401
0114C7H   0114C7H   000001H   BYTE   INSEG    XDATA          ?XD?ISR
0114C8H   0114C8H   000001H   BYTE   UNIT     XDATA          ?XD?IPS114_SHOW_INFO?IPS114
0114C9H   0114C9H   000001H   BYTE   UNIT     XDATA          ?XD?WRITEPOINT?GPS
0114CAH   0114CAH   000001H   BYTE   UNIT     XDATA          ?XD?READPOINT?GPS
0114CBH   0114CBH   000001H   BYTE   UNIT     XDATA          ?XD?QSPI_WRITE_INSTR?QSPI
0114CCH   0114CCH   000001H   BYTE   UNIT     XDATA          ?XD?QSPI_WRITE_QINSTR?QSPI
0114CDH   0114CDH   000001H   BYTE   UNIT     XDATA          ?XD?W25Q_READSR1_05?W25QXX
0114CEH   0114CEH   000001H   BYTE   UNIT     XDATA          ?XD?W25Q_QPI_READSR1_05?W25QXX
0114CFH   0114CFH   000001H   BYTE   UNIT     XDATA          ?XD?W25Q_READSR2_35?W25QXX
0114D0H   0114D0H   000001H   BYTE   UNIT     XDATA          ?XD?W25Q_QPI_READSR2_35?W25QXX
0114D1H   0114D1H   000001H   BYTE   UNIT     XDATA          ?XD?W25Q_READSR3_15?W25QXX
0114D2H   0114D2H   000001H   BYTE   UNIT     XDATA          ?XD?W25Q_QPI_READSR3_15?W25QXX
0114D3H   0114D3H   000001H   BYTE   UNIT     XDATA          ?XD?W25Q_WRITESR1_01?W25QXX
0114D4H   0114D4H   000001H   BYTE   UNIT     XDATA          ?XD?W25Q_QPI_WRITESR1_01?W25QXX
0114D5H   0114D5H   000001H   BYTE   UNIT     XDATA          ?XD?W25Q_WRITESR2_31?W25QXX
0114D6H   0114D6H   000001H   BYTE   UNIT     XDATA          ?XD?W25Q_QPI_WRITESR2_31?W25QXX
0114D7H   0114D7H   000001H   BYTE   UNIT     XDATA          ?XD?W25Q_WRITESR3_11?W25QXX
0114D8H   0114D8H   000001H   BYTE   UNIT     XDATA          ?XD?W25Q_QPI_WRITESR3_11?W25QXX
0114D9H   0114D9H   000001H   BYTE   UNIT     XDATA          ?XD?W25Q_READEAR_C8?W25QXX
0114DAH   0114DAH   000001H   BYTE   UNIT     XDATA          ?XD?W25Q_WRITEEAR_C5?W25QXX
0114DBH   0114DBH   000001H   BYTE   UNIT     XDATA          ?XD?W25Q_SETBURSTWRAP_77?W25QXX
0114DCH   0114DCH   000001H   BYTE   UNIT     XDATA          ?XD?W25Q_READDEVICEID_AB?W25QXX
0114DDH   0114DDH   000001H   BYTE   UNIT     XDATA          ?XD?W25Q_QPI_READDEVICEID_AB?W25QXX
0114DEH   0114DEH   000001H   BYTE   UNIT     XDATA          ?XD?W25Q_QPI_SETREADPARAM_C0?W25QXX
0114DFH   FEFFFFH   FDEB21H   ---    ---      **GAP**
FF0000H   FF0002H   000003H   ---    OFFS..   CODE           ?CO?START251?4
FF0003H   FF0009H   000007H   BYTE   INSEG    CODE           ?PR?W25Q_WAITBUSY?W25QXX
FF000AH   FF000AH   000001H   ---    ---      **GAP**
FF000BH   FF000DH   000003H   ---    OFFS..   CODE           ?PR?IV?1
FF000EH   FF0013H   000006H   BYTE   INSEG    CODE           ?PR?W25Q_WRITEENABLEVSR_50?W25QXX
FF0014H   FF0019H   000006H   BYTE   INSEG    CODE           ?PR?W25Q_WRITEENABLE_06?W25QXX
FF001AH   FF001AH   000001H   ---    ---      **GAP**
FF001BH   FF001DH   000003H   ---    OFFS..   CODE           ?PR?IV?3
FF001EH   FF0020H   000003H   BYTE   INSEG    CODE           ?PR?INTERRUPT_GLOBAL_ENABLE?ZF_COMMON_INTERRUPT
FF0021H   FF0022H   000002H   ---    ---      **GAP**
FF0023H   FF0025H   000003H   ---    OFFS..   CODE           ?PR?IV?4
FF0026H   FF0040H   00001BH   BYTE   INSEG    CODE           ?PR?PIT_HANLDER_GPS?ISR
FF0041H   FF0042H   000002H   ---    ---      **GAP**
FF0043H   FF0045H   000003H   ---    OFFS..   CODE           ?PR?IV?8
FF0046H   FF005FH   00001AH   BYTE   INSEG    CODE           ?PR?IPS114_WRITE_INDEX?ZF_DEVICE_IPS114
FF0060H   FF0062H   000003H   ---    ---      **GAP**
FF0063H   FF0065H   000003H   ---    OFFS..   CODE           ?PR?IV?12
FF0066H   FF008AH   000025H   BYTE   INSEG    CODE           ?PR?IPS114_SET_COLOR?ZF_DEVICE_IPS114
FF008BH   FF008DH   000003H   ---    OFFS..   CODE           ?PR?IV?17
FF008EH   FF0091H   000004H   BYTE   UNIT     CONST          ?CO?PRINTF
FF0092H   FF0092H   000001H   ---    ---      **GAP**
L251 LINKER/LOCATER V4.66.93.0                                                        05/05/2025  21:49:10  PAGE 10


FF0093H   FF0095H   000003H   ---    OFFS..   CODE           ?PR?IV?18
FF0096H   FF009AH   000005H   ---    ---      **GAP**
FF009BH   FF009DH   000003H   ---    OFFS..   CODE           ?PR?IV?19
FF009EH   FF00A2H   000005H   ---    ---      **GAP**
FF00A3H   FF00A5H   000003H   ---    OFFS..   CODE           ?PR?IV?20
FF00A6H   FF00BFH   00001AH   BYTE   INSEG    CODE           ?PR?MEMSET?_?MEMSET
FF00C0H   FF00C2H   000003H   ---    ---      **GAP**
FF00C3H   FF00C5H   000003H   ---    OFFS..   CODE           ?PR?IV?24
FF00C6H   FF0190H   0000CBH   BYTE   INSEG    CODE           ?PR?MY_PID_INIT?PID
FF0191H   FF0196H   000006H   BYTE   UNIT     HCONST         ?HC?ZF_DEVICE_IPS114
FF0197H   FF019AH   000004H   ---    ---      **GAP**
FF019BH   FF019DH   000003H   ---    OFFS..   CODE           ?CO?ai8051u_isr?1
FF019EH   FF01AAH   00000DH   ---    ---      **GAP**
FF01ABH   FF01ADH   000003H   ---    OFFS..   CODE           ?CO?ai8051u_isr?2
FF01AEH   FF01BAH   00000DH   ---    ---      **GAP**
FF01BBH   FF01BDH   000003H   ---    OFFS..   CODE           ?CO?ai8051u_isr?3
FF01BEH   FF01CAH   00000DH   ---    ---      **GAP**
FF01CBH   FF01CDH   000003H   ---    OFFS..   CODE           ?CO?ai8051u_isr?4
FF01CEH   FF0219H   00004CH   BYTE   INSEG    CODE           ?PR?STATEUPDATE?STATEMACHINE
FF021AH   FF021AH   000001H   ---    ---      **GAP**
FF021BH   FF021DH   000003H   ---    OFFS..   CODE           ?CO?ai8051u_isr?5
FF021EH   FF221DH   002000H   BYTE   UNIT     CODE           ?CO?ZF_DEVICE_CONFIG
FF221EH   FF3950H   001733H   BYTE   UNIT     CODE           ?C?LIB_CODE
FF3951H   FF428FH   00093FH   BYTE   INSEG    CODE           ?PR?ZF_SPRINTF?ZF_COMMON_FUNCTION
FF4290H   FF4AA7H   000818H   BYTE   UNIT     CODE           ?CO?ZF_COMMON_FONT
FF4AA8H   FF5230H   000789H   BYTE   INSEG    CODE           ?PR?MAIN?MAIN
FF5231H   FF58F8H   0006C8H   BYTE   INSEG    CODE           ?PR?GPS_GNRMC_PARSE?ZF_DEVICE_GPS_TAU1201
FF58F9H   FF5E88H   000590H   BYTE   INSEG    CODE           ?PR?PWM_INIT?ZF_DRIVER_PWM
FF5E89H   FF63FFH   000577H   BYTE   INSEG    CODE           ?PR?GETEULER?FILTER
FF6400H   FF695BH   00055CH   BYTE   INSEG    CODE           ?PR?GET_TWO_POINTS_AZIMUTH?ZF_DEVICE_GPS_TAU1201
FF695CH   FF6E96H   00053BH   BYTE   INSEG    CODE           ?PR?FIFO_WRITE_BUFFER?ZF_COMMON_FIFO
FF6E97H   FF73BAH   000524H   BYTE   INSEG    CODE           ?PR?FIFO_READ_BUFFER?ZF_COMMON_FIFO
FF73BBH   FF787FH   0004C5H   BYTE   INSEG    CODE           ?PR?GPIO_SET_DIR?ZF_DRIVER_GPIO
FF7880H   FF7CF6H   000477H   BYTE   INSEG    CODE           ?PR?SPI_INIT?ZF_DRIVER_SPI
FF7CF7H   FF8068H   000372H   BYTE   INSEG    CODE           ?PR?GET_TWO_POINTS_DISTANCE?ZF_DEVICE_GPS_TAU1201
FF8069H   FF835BH   0002F3H   BYTE   INSEG    CODE           ?PR?PIT_INIT?ZF_DRIVER_PIT
FF835CH   FF8645H   0002EAH   BYTE   INSEG    CODE           ?PR?FUNC_STR_TO_DOUBLE?ZF_COMMON_FUNCTION
FF8646H   FF890CH   0002C7H   BYTE   INSEG    CODE           ?PR?GPIO_SET_LEVEL_SPEED?ZF_DRIVER_GPIO
FF890DH   FF8BA3H   000297H   BYTE   INSEG    CODE           ?PR?GPIO_SET_MODE?ZF_DRIVER_GPIO
FF8BA4H   FF8E33H   000290H   BYTE   INSEG    CODE           ?PR?GPS_INIT?ZF_DEVICE_GPS_TAU1201
FF8E34H   FF9084H   000251H   BYTE   INSEG    CODE           ?PR?UART_INIT?ZF_DRIVER_UART
FF9085H   FF92C7H   000243H   BYTE   INSEG    CODE           ?PR?PIDLOCCTRL?PID
FF92C8H   FF94FFH   000238H   BYTE   INSEG    CODE           ?PR?IPS114_INIT?ZF_DEVICE_IPS114
FF9500H   FF9736H   000237H   BYTE   INSEG    CODE           ?PR?IMU660RA_INIT?ZF_DEVICE_IMU660RA
FF9737H   FF9955H   00021FH   BYTE   INSEG    CODE           ?PR?IPS114_SHOW_INFO?IPS114
FF9956H   FF9B47H   0001F2H   BYTE   INSEG    CODE           ?PR?GPS_DATA_PARSE?ZF_DEVICE_GPS_TAU1201
FF9B48H   FF9D31H   0001EAH   BYTE   INSEG    CODE           ?PR?QSPI_READ_INSTR_SADDR24_DUMMY_QDATA?QSPI
FF9D32H   FF9F0EH   0001DDH   BYTE   INSEG    CODE           ?PR?PIT_HANLDER_IMU?ISR
FF9F0FH   FFA0BBH   0001ADH   BYTE   INSEG    CODE           ?PR?FUNC_STR_TO_HEX?ZF_COMMON_FUNCTION
FFA0BCH   FFA268H   0001ADH   BYTE   INSEG    CODE           ?PR?QSPI_WRITE_INSTR_SADDR24_QDATA?QSPI
FFA269H   FFA412H   0001AAH   BYTE   INSEG    CODE           ?PR?IPS114_SHOW_FLOAT?ZF_DEVICE_IPS114
FFA413H   FFA5BBH   0001A9H   BYTE   INSEG    CODE           ?PR?GPIO_SET_LEVEL?ZF_DRIVER_GPIO
FFA5BCH   FFA756H   00019BH   BYTE   INSEG    CODE           ?PR?POW?_?POW
FFA757H   FFA8EFH   000199H   BYTE   INSEG    CODE           ?PR?UTC_TO_BTC?ZF_DEVICE_GPS_TAU1201
FFA8F0H   FFAA77H   000188H   BYTE   INSEG    CODE           ?PR?PWM_SET_DUTY?ZF_DRIVER_PWM
FFAA78H   FFABFCH   000185H   BYTE   INSEG    CODE           ?PR?UART_DMA_INIT?ZF_DRIVER_UART
FFABFDH   FFAD80H   000184H   BYTE   INSEG    CODE           ?PR?GPS_UART_CALLBACK?ZF_DEVICE_GPS_TAU1201
FFAD81H   FFAEFFH   00017FH   BYTE   INSEG    CODE           ?PR?NUMBER_CONVERSION_ASCII?ZF_COMMON_FUNCTION
FFAF00H   FFB070H   000171H   BYTE   INSEG    CODE           ?PR?GPIO_SET_IMPEDANCE?ZF_DRIVER_GPIO
FFB071H   FFB1DFH   00016FH   BYTE   INSEG    CODE           ?PR?IPS114_SET_REGION?ZF_DEVICE_IPS114
FFB1E0H   FFB345H   000166H   BYTE   INSEG    CODE           ?PR?MY_ATAN2?FILTER
FFB346H   FFB4A5H   000160H   BYTE   INSEG    CODE           ?PR?QSPI_READ_INSTR_SDATA?QSPI
FFB4A6H   FFB5E8H   000143H   BYTE   INSEG    CODE           ?PR?BLE6A20_SEND_STRING?ZF_DEVICE_BLE6A20
FFB5E9H   FFB728H   000140H   BYTE   INSEG    CODE           ?PR?FIFO_CLEAR?ZF_COMMON_FIFO
FFB729H   FFB868H   000140H   BYTE   INSEG    CODE           ?PR?PID_PARAM_INIT?PID
L251 LINKER/LOCATER V4.66.93.0                                                        05/05/2025  21:49:10  PAGE 11


FFB869H   FFB9A1H   000139H   BYTE   INSEG    CODE           ?PR?UART_WRITE_BUFFER?ZF_DRIVER_UART
FFB9A2H   FFBAD8H   000137H   BYTE   INSEG    CODE           ?PR?QSPI_WRITE_INSTR_SADDR24?QSPI
FFBAD9H   FFBC08H   000130H   BYTE   INSEG    CODE           ?PR?ANGLE_PID_FUN?PID
FFBC09H   FFBD31H   000129H   BYTE   INSEG    CODE           ?PR?QSPI_WRITE_INSTR_SADDR16?QSPI
FFBD32H   FFBE56H   000125H   BYTE   INSEG    CODE           ?PR?QSPI_WRITE_INSTR_SADDR8?QSPI
FFBE57H   FFBF70H   00011AH   BYTE   INSEG    CODE           ?PR?IPS114_SHOW_UNIT?IPS114
FFBF71H   FFC084H   000114H   BYTE   INSEG    CODE           ?PR?FUNC_STR_TO_INT?ZF_COMMON_FUNCTION
FFC085H   FFC18DH   000109H   BYTE   INSEG    CODE           ?PR?PIT_HANLDER_ANGLE?ISR
FFC18EH   FFC294H   000107H   BYTE   INSEG    CODE           ?PR?GPIO_GET_LEVEL?ZF_DRIVER_GPIO
FFC295H   FFC39BH   000107H   BYTE   INSEG    CODE           ?PR?W25Q_PAGEPROGRAM_32?W25QXX
FFC39CH   FFC493H   0000F8H   BYTE   INSEG    CODE           ?PR?GPS_GNGGA_PARSE?ZF_DEVICE_GPS_TAU1201
FFC494H   FFC580H   0000EDH   BYTE   INSEG    CODE           ?PR?PRINTF_REVERSE_ORDER?ZF_COMMON_FUNCTION
FFC581H   FFC66CH   0000ECH   BYTE   INSEG    CODE           ?PR?CLOCK_INIT?ZF_COMMON_CLOCK
FFC66DH   FFC755H   0000E9H   BYTE   INSEG    CODE           ?PR?QSPI_INIT?QSPI
FFC756H   FFC82CH   0000D7H   BYTE   INSEG    CODE           ?PR?GPIO_INIT?ZF_DRIVER_GPIO
FFC82DH   FFC8EBH   0000BFH   BYTE   INSEG    CODE           ?PR?GET_PARAMETER_INDEX?ZF_DEVICE_GPS_TAU1201
FFC8ECH   FFC9A7H   0000BCH   BYTE   INSEG    CODE           ?PR?IPS114_SHOW_CHAR?ZF_DEVICE_IPS114
FFC9A8H   FFCA63H   0000BCH   BYTE   INSEG    CODE           ?PR?IMU660RA_READ_REGISTERS?ZF_DEVICE_IMU660RA
FFCA64H   FFCB19H   0000B6H   BYTE   INSEG    CODE           ?PR?W25Q_FASTREAD_6B?W25QXX
FFCB1AH   FFCBCBH   0000B2H   BYTE   INSEG    CODE           ?PR?UART_RX_START_BUFF?ZF_DRIVER_UART
FFCBCCH   FFCC7CH   0000B1H   BYTE   INSEG    CODE           ?PR?FIFO_INIT?ZF_COMMON_FIFO
FFCC7DH   FFCD2BH   0000AFH   BYTE   INSEG    CODE           ?PR?QSPI_WRITE_INSTR?QSPI
FFCD2CH   FFCDD3H   0000A8H   BYTE   INSEG    CODE           ?PR?GET_DOUBLE_NUMBER?ZF_DEVICE_GPS_TAU1201
FFCDD4H   FFCE78H   0000A5H   BYTE   INSEG    CODE           ?PR?DMA_UART1_IRQHANDLER?ISR
FFCE79H   FFCF16H   00009EH   BYTE   INSEG    CODE           ?PR?DEBUG_INIT?ZF_COMMON_DEBUG
FFCF17H   FFCFAFH   000099H   BYTE   INSEG    CODE           ?PR?FOCF?FILTER
FFCFB0H   FFD046H   000097H   BYTE   INSEG    CODE           ?PR?FIFO_HEAD_OFFSET?ZF_COMMON_FIFO
FFD047H   FFD0DDH   000097H   BYTE   INSEG    CODE           ?PR?FIFO_END_OFFSET?ZF_COMMON_FIFO
FFD0DEH   FFD174H   000097H   BYTE   INSEG    CODE           ?PR?SET_GPS_TYPE?ZF_DEVICE_TYPE
FFD175H   FFD20BH   000097H   BYTE   INSEG    CODE           ?PR?SET_WIRELESS_TYPE?ZF_DEVICE_TYPE
FFD20CH   FFD2A0H   000095H   BYTE   INSEG    CODE           ?PR?IPS114_SHOW_UINT8?ZF_DEVICE_IPS114
FFD2A1H   FFD331H   000091H   BYTE   INSEG    CODE           ?PR?GET_FLOAT_NUMBER?ZF_DEVICE_GPS_TAU1201
FFD332H   FFD3C0H   00008FH   BYTE   INSEG    CODE           ?PR?UART_QUERY_BYTE?ZF_DRIVER_UART
FFD3C1H   FFD44CH   00008CH   BYTE   INSEG    CODE           ?PR?MY_PIT_INIT?ISR
FFD44DH   FFD4D5H   000089H   BYTE   INSEG    CODE           ?PR?DMA_UART2_IRQHANDLER?ISR
FFD4D6H   FFD55EH   000089H   BYTE   INSEG    CODE           ?PR?DMA_UART3_IRQHANDLER?ISR
FFD55FH   FFD5E7H   000089H   BYTE   INSEG    CODE           ?PR?DMA_UART4_IRQHANDLER?ISR
FFD5E8H   FFD66FH   000088H   BYTE   INSEG    CODE           ?PR?SYSTEM_DELAY_MS?ZF_DRIVER_DELAY
FFD670H   FFD6F7H   000088H   BYTE   INSEG    CODE           ?PR?BLE6A20_INIT?ZF_DEVICE_BLE6A20
FFD6F8H   FFD779H   000082H   BYTE   INSEG    CODE           ?PR?GET_INT_NUMBER?ZF_DEVICE_GPS_TAU1201
FFD77AH   FFD7F1H   000078H   BYTE   INSEG    CODE           ?PR?IMU660RA_GET_GYRO?ZF_DEVICE_IMU660RA
FFD7F2H   FFD869H   000078H   BYTE   INSEG    CODE           ?PR?IMU660RA_GET_ACC?ZF_DEVICE_IMU660RA
FFD86AH   FFD8DEH   000075H   BYTE   INSEG    CODE           ?PR?IPS114_SHOW_STRING?ZF_DEVICE_IPS114
FFD8DFH   FFD951H   000073H   BYTE   INSEG    CODE           ?PR?IPS114_CLEAR?ZF_DEVICE_IPS114
FFD952H   FFD9BBH   00006AH   BYTE   INSEG    CODE           ?PR?SPI_READ_8BIT_REGISTERS?ZF_DRIVER_SPI
FFD9BCH   FFDA24H   000069H   BYTE   INSEG    CODE           ?PR?CONSTRAIN_FLOAT?PID
FFDA25H   FFDA87H   000063H   BYTE   INSEG    CODE           ?PR?SPI_READ_DAT?ZF_DRIVER_SPI
FFDA88H   FFDAE9H   000062H   BYTE   INSEG    CODE           ?PR?BLE6A20_READ_BUFFER?ZF_DEVICE_BLE6A20
FFDAEAH   FFDB48H   00005FH   BYTE   INSEG    CODE           ?PR?IMU660RA_SELF_CHECK?ZF_DEVICE_IMU660RA
FFDB49H   FFDBA5H   00005DH   BYTE   INSEG    CODE           ?PR?SYSTEM_DELAY_INIT?ZF_DRIVER_DELAY
FFDBA6H   FFDC02H   00005DH   BYTE   INSEG    CODE           ?PR?MY_PWM_INIT?PWM
FFDC03H   FFDC5EH   00005CH   BYTE   INSEG    CODE           ?PR?SPI_WRITE_8BIT_REGISTERS?ZF_DRIVER_SPI
FFDC5FH   FFDC7FH   000021H   BYTE   UNIT     CODE           ?C_C51STARTUP
FFDC80H   FFDC85H   000006H   BYTE   UNIT     CODE           ?C_C51STARTUP?1
FFDC86H   FFDCB6H   000031H   BYTE   UNIT     CODE           ?C_C51STARTUP?2
FFDCB7H   FFDCB9H   000003H   BYTE   UNIT     CODE           ?C_C51STARTUP?3
FFDCBAH   FFDD11H   000058H   BYTE   INSEG    CODE           ?PR?BLUE_TOOTH_READ?BLUETOOTH
FFDD12H   FFDD67H   000056H   BYTE   INSEG    CODE           ?PR?INIT?INIT
FFDD68H   FFDDBCH   000055H   BYTE   INSEG    CODE           ?PR?UART_RX_INTERRUPT?ZF_DRIVER_UART
FFDDBDH   FFDE11H   000055H   BYTE   INSEG    CODE           ?PR?BLE6A20_SEND_BYTE?ZF_DEVICE_BLE6A20
FFDE12H   FFDE64H   000053H   BYTE   INSEG    CODE           ?PR?IMU660RA_WRITE_REGISTERS?ZF_DEVICE_IMU660RA
FFDE65H   FFDEB6H   000052H   BYTE   INSEG    CODE           ?PR?CONSTRAIN_UINT32?PID
FFDEB7H   FFDF01H   00004BH   BYTE   INSEG    CODE           ?PR?TM11_IRQHANDLER?ISR
FFDF02H   FFDF48H   000047H   BYTE   INSEG    CODE           ?PR?SPI_WRITE_DAT?ZF_DRIVER_SPI
FFDF49H   FFDF86H   00003EH   BYTE   INSEG    CODE           ?PR?TM0_IRQHANDLER?ISR
L251 LINKER/LOCATER V4.66.93.0                                                        05/05/2025  21:49:10  PAGE 12


FFDF87H   FFDFC4H   00003EH   BYTE   INSEG    CODE           ?PR?TM1_IRQHANDLER?ISR
FFDFC5H   FFE002H   00003EH   BYTE   INSEG    CODE           ?PR?TM2_IRQHANDLER?ISR
FFE003H   FFE040H   00003EH   BYTE   INSEG    CODE           ?PR?TM3_IRQHANDLER?ISR
FFE041H   FFE07EH   00003EH   BYTE   INSEG    CODE           ?PR?TM4_IRQHANDLER?ISR
FFE07FH   FFE0BBH   00003DH   BYTE   INSEG    CODE           ?PR?IMU660RA_READ_REGISTER?ZF_DEVICE_IMU660RA
FFE0BCH   FFE0F4H   000039H   BYTE   INSEG    CODE           ?PR?DEBUG_INTERRUPR_HANDLER?ZF_COMMON_DEBUG
FFE0F5H   FFE12DH   000039H   BYTE   INSEG    CODE           ?PR?IPS114_SET_DIR?ZF_DEVICE_IPS114
FFE12EH   FFE165H   000038H   BYTE   INSEG    CODE           ?PR?W25Q_ENABLE_QE?W25QXX
FFE166H   FFE19CH   000037H   BYTE   INSEG    CODE           ?PR?STRNCMP?_?STRNCMP
FFE19DH   FFE1D1H   000035H   BYTE   INSEG    CODE           ?PR?SPI_WRITE_16BIT?ZF_DRIVER_SPI
FFE1D2H   FFE202H   000031H   BYTE   INSEG    CODE           ?PR?FIFO_USED?ZF_COMMON_FIFO
FFE203H   FFE232H   000030H   BYTE   INSEG    CODE           ?PR?STRNCPY?_?STRNCPY
FFE233H   FFE25FH   00002DH   BYTE   INSEG    CODE           ?PR?IMU660RA_WRITE_REGISTER?ZF_DEVICE_IMU660RA
FFE260H   FFE28AH   00002BH   BYTE   INSEG    CODE           ?PR?SPI_WRITE_8BIT_REGISTER?ZF_DRIVER_SPI
FFE28BH   FFE2B2H   000028H   BYTE   INSEG    CODE           ?PR?W25Q_READJEDECID_9F?W25QXX
FFE2B3H   FFE2D9H   000027H   BYTE   INSEG    CODE           ?PR?W25Q_ERASE4K_20?W25QXX
FFE2DAH   FFE2FFH   000026H   BYTE   INSEG    CODE           ?PR?BLE6A20_CALLBACK?ZF_DEVICE_BLE6A20
FFE300H   FFE324H   000025H   BYTE   INSEG    CODE           ?PR?MEMCPY?_?MEMCPY
FFE325H   FFE346H   000022H   BYTE   INSEG    CODE           ?PR?READPOINT?GPS
FFE347H   FFE368H   000022H   BYTE   INSEG    CODE           ?PR?WRITEPOINT?GPS
FFE369H   FFE388H   000020H   BYTE   INSEG    CODE           ?PR?UART_WRITE_BYTE?ZF_DRIVER_UART
FFE389H   FFE3A7H   00001FH   BYTE   INSEG    CODE           ?PR?STRCHR?_?STRCHR
FFE3A8H   FFE3BFH   000018H   BYTE   INSEG    CODE           ?PR?SPI_WRITE_8BIT?ZF_DRIVER_SPI
FFE3C0H   FFE3D6H   000017H   BYTE   INSEG    CODE           ?PR?W25Q_WRITESR2_31?W25QXX
FFE3D7H   FFE3ECH   000016H   BYTE   INSEG    CODE           ?PR?W25Q_READSR1_05?W25QXX
FFE3EDH   FFE402H   000016H   BYTE   INSEG    CODE           ?PR?W25Q_READSR2_35?W25QXX
FFE403H   FFE414H   000012H   BYTE   INSEG    CODE           ?PR?PUTCHAR?ZF_COMMON_DEBUG
FFE415H   FFE426H   000012H   BYTE   INSEG    CODE           ?PR?W25Q_WRITESR12_01?W25QXX
FFE427H   FFE434H   00000EH   BYTE   INSEG    CODE           ?PR?STRLEN?_?STRLEN
FFE435H   FFE747H   000313H   BYTE   UNIT     HCONST         ?C_INITHDATA
FFE748H   FFE7EEH   0000A7H   BYTE   UNIT     HCONST         ?HC?ZF_DEVICE_IMU660RA
FFE7EFH   FFE890H   0000A2H   BYTE   UNIT     HCONST         ?HC?ZF_DEVICE_GPS_TAU1201
FFE891H   FFE910H   000080H   BYTE   UNIT     HCONST         ?HC?ZF_DEVICE_BLE6A20
FFE911H   FFE980H   000070H   BYTE   UNIT     HCONST         ?HC?MAIN
FFE981H   FFE9E0H   000060H   BYTE   UNIT     HCONST         ?HC?ZF_DRIVER_PWM
FFE9E1H   FFEA13H   000033H   BYTE   UNIT     HCONST         ?HC?IPS114
FFEA14H   FFEA37H   000024H   BYTE   UNIT     HCONST         ?HC?STATEMACHINE
FFEA38H   FFEA52H   00001BH   BYTE   UNIT     HCONST         ?HC?BLUETOOTH
FFEA53H   FFEA67H   000015H   BYTE   UNIT     HCONST         ?HC?INIT
FFEA68H   FFEA77H   000010H   BYTE   UNIT     HCONST         ?HC?ZF_COMMON_FUNCTION

* * * * * * * * *   R E M O V E D     S E G M E N T S   * * * * * * * *
   *DEL*:           00004EH   BYTE   INSEG    CODE           ?PR?DEBUG_READ_BUFFER?ZF_COMMON_DEBUG
   *DEL*:           000065H   BYTE   INSEG    CODE           ?PR?DEBUG_SEND_BUFFER?ZF_COMMON_DEBUG
   *DEL*:           00038DH   BYTE   INSEG    CODE           ?PR?FUNC_DOUBLE_TO_STR?ZF_COMMON_FUNCTION
   *DEL*:           000354H   BYTE   INSEG    CODE           ?PR?FUNC_FLOAT_TO_STR?ZF_COMMON_FUNCTION
   *DEL*:           000241H   BYTE   INSEG    CODE           ?PR?FUNC_STR_TO_FLOAT?ZF_COMMON_FUNCTION
   *DEL*:           000024H   BYTE   INSEG    CODE           ?PR?FUNC_SOFT_DELAY?ZF_COMMON_FUNCTION
   *DEL*:           0000E7H   BYTE   INSEG    CODE           ?PR?FUNC_UINT_TO_STR?ZF_COMMON_FUNCTION
   *DEL*:           00009AH   BYTE   INSEG    CODE           ?PR?FUNC_STR_TO_UINT?ZF_COMMON_FUNCTION
   *DEL*:           000150H   BYTE   INSEG    CODE           ?PR?FUNC_HEX_TO_STR?ZF_COMMON_FUNCTION
   *DEL*:           000181H   BYTE   INSEG    CODE           ?PR?FUNC_INT_TO_STR?ZF_COMMON_FUNCTION
   *DEL*:           0000A6H   BYTE   INSEG    CODE           ?PR?FUNC_GET_GREATEST_COMMON_DIVISOR?ZF_COMMON_FUNCTION
   *DEL*:           000003H   BYTE   INSEG    CODE           ?PR?INTERRUPT_GLOBAL_DISABLE?ZF_COMMON_INTERRUPT
   *DEL*:           000108H   BYTE   INSEG    CODE           ?PR?INTERRUPT_SET_PRIORITY?ZF_COMMON_INTERRUPT
   *DEL*:           000078H   BYTE   INSEG    CODE           ?PR?ADC_MEAN_FILTER_CONVERT?ZF_DRIVER_ADC
   *DEL*:           000065H   BYTE   INSEG    CODE           ?PR?ADC_CONVERT?ZF_DRIVER_ADC
   *DEL*:           0000AFH   BYTE   INSEG    CODE           ?PR?ADC_INIT?ZF_DRIVER_ADC
   *DEL*:           000088H   BYTE   INSEG    CODE           ?PR?SYSTEM_DELAY_US?ZF_DRIVER_DELAY
   *DEL*:           000134H   BYTE   INSEG    CODE           ?PR?ENCODER_GET_COUNT?ZF_DRIVER_ENCODER
   *DEL*:           0000D0H   BYTE   INSEG    CODE           ?PR?ENCODER_DIR_INIT?ZF_DRIVER_ENCODER
   *DEL*:           0000A1H   BYTE   INSEG    CODE           ?PR?ENCODER_CLEAR_COUNT?ZF_DRIVER_ENCODER
   *DEL*:           000029H   BYTE   INSEG    CODE           ?PR?GPIO_TOGGLE_LEVEL?ZF_DRIVER_GPIO
   *DEL*:           000273H   BYTE   INSEG    CODE           ?PR?PWM_SET_FREQ?ZF_DRIVER_PWM
   *DEL*:           0000B3H   BYTE   INSEG    CODE           ?PR?SOFT_IIC_WAIT_ACK?ZF_DRIVER_SOFT_IIC
L251 LINKER/LOCATER V4.66.93.0                                                        05/05/2025  21:49:10  PAGE 13


   *DEL*:           000092H   BYTE   INSEG    CODE           ?PR?SOFT_IIC_STOP?ZF_DRIVER_SOFT_IIC
   *DEL*:           00006EH   BYTE   INSEG    CODE           ?PR?SOFT_IIC_WRITE_8BIT_REGISTER?ZF_DRIVER_SOFT_IIC
   *DEL*:           000134H   BYTE   INSEG    CODE           ?PR?SOFT_IIC_READ_16BIT_REGISTERS?ZF_DRIVER_SOFT_IIC
   *DEL*:           0000ACH   BYTE   INSEG    CODE           ?PR?SOFT_IIC_SCCB_READ_REGISTER?ZF_DRIVER_SOFT_IIC
   *DEL*:           0000EBH   BYTE   INSEG    CODE           ?PR?SOFT_IIC_READ_16BIT_REGISTER?ZF_DRIVER_SOFT_IIC
   *DEL*:           00017BH   BYTE   INSEG    CODE           ?PR?SOFT_IIC_TRANSFER_16BIT_ARRAY?ZF_DRIVER_SOFT_IIC
   *DEL*:           0000DAH   BYTE   INSEG    CODE           ?PR?SOFT_IIC_WRITE_16BIT_REGISTERS?ZF_DRIVER_SOFT_IIC
   *DEL*:           00006EH   BYTE   INSEG    CODE           ?PR?SOFT_IIC_SCCB_WRITE_REGISTER?ZF_DRIVER_SOFT_IIC
   *DEL*:           000060H   BYTE   INSEG    CODE           ?PR?SOFT_IIC_READ_8BIT?ZF_DRIVER_SOFT_IIC
   *DEL*:           0000ACH   BYTE   INSEG    CODE           ?PR?SOFT_IIC_READ_8BIT_ARRAY?ZF_DRIVER_SOFT_IIC
   *DEL*:           0000AEH   BYTE   INSEG    CODE           ?PR?SOFT_IIC_WRITE_16BIT_REGISTER?ZF_DRIVER_SOFT_IIC
   *DEL*:           000057H   BYTE   INSEG    CODE           ?PR?SOFT_IIC_WRITE_8BIT?ZF_DRIVER_SOFT_IIC
   *DEL*:           00008AH   BYTE   INSEG    CODE           ?PR?SOFT_IIC_WRITE_8BIT_ARRAY?ZF_DRIVER_SOFT_IIC
   *DEL*:           000038H   BYTE   INSEG    CODE           ?PR?SOFT_IIC_DELAY?ZF_DRIVER_SOFT_IIC
   *DEL*:           00010AH   BYTE   INSEG    CODE           ?PR?SOFT_IIC_READ_DATA?ZF_DRIVER_SOFT_IIC
   *DEL*:           00008BH   BYTE   INSEG    CODE           ?PR?SOFT_IIC_READ_16BIT?ZF_DRIVER_SOFT_IIC
   *DEL*:           0000C3H   BYTE   INSEG    CODE           ?PR?SOFT_IIC_SEND_DATA?ZF_DRIVER_SOFT_IIC
   *DEL*:           0000DEH   BYTE   INSEG    CODE           ?PR?SOFT_IIC_READ_16BIT_ARRAY?ZF_DRIVER_SOFT_IIC
   *DEL*:           00007DH   BYTE   INSEG    CODE           ?PR?SOFT_IIC_START?ZF_DRIVER_SOFT_IIC
   *DEL*:           000094H   BYTE   INSEG    CODE           ?PR?SOFT_IIC_INIT?ZF_DRIVER_SOFT_IIC
   *DEL*:           0000EBH   BYTE   INSEG    CODE           ?PR?SOFT_IIC_READ_8BIT_REGISTERS?ZF_DRIVER_SOFT_IIC
   *DEL*:           000078H   BYTE   INSEG    CODE           ?PR?SOFT_IIC_WRITE_16BIT?ZF_DRIVER_SOFT_IIC
   *DEL*:           0000AEH   BYTE   INSEG    CODE           ?PR?SOFT_IIC_WRITE_16BIT_ARRAY?ZF_DRIVER_SOFT_IIC
   *DEL*:           0000ADH   BYTE   INSEG    CODE           ?PR?SOFT_IIC_SEND_ACK?ZF_DRIVER_SOFT_IIC
   *DEL*:           00009FH   BYTE   INSEG    CODE           ?PR?SOFT_IIC_READ_8BIT_REGISTER?ZF_DRIVER_SOFT_IIC
   *DEL*:           000125H   BYTE   INSEG    CODE           ?PR?SOFT_IIC_TRANSFER_8BIT_ARRAY?ZF_DRIVER_SOFT_IIC
   *DEL*:           00009FH   BYTE   INSEG    CODE           ?PR?SOFT_IIC_WRITE_8BIT_REGISTERS?ZF_DRIVER_SOFT_IIC
   *DEL*:           0000B2H   BYTE   INSEG    CODE           ?PR?SPI_READ_16BIT_REGISTERS?ZF_DRIVER_SPI
   *DEL*:           000073H   BYTE   INSEG    CODE           ?PR?SPI_READ_16BIT_REGISTER?ZF_DRIVER_SPI
   *DEL*:           000100H   BYTE   INSEG    CODE           ?PR?SPI_TRANSFER_16BIT?ZF_DRIVER_SPI
   *DEL*:           00007EH   BYTE   INSEG    CODE           ?PR?SPI_WRITE_16BIT_REGISTERS?ZF_DRIVER_SPI
   *DEL*:           000011H   BYTE   INSEG    CODE           ?PR?SPI_READ_8BIT?ZF_DRIVER_SPI
   *DEL*:           000059H   BYTE   INSEG    CODE           ?PR?SPI_READ_8BIT_ARRAY?ZF_DRIVER_SPI
   *DEL*:           000063H   BYTE   INSEG    CODE           ?PR?SPI_WRITE_16BIT_REGISTER?ZF_DRIVER_SPI
   *DEL*:           00004BH   BYTE   INSEG    CODE           ?PR?SPI_WRITE_8BIT_ARRAY?ZF_DRIVER_SPI
   *DEL*:           000045H   BYTE   INSEG    CODE           ?PR?SPI_READ_16BIT?ZF_DRIVER_SPI
   *DEL*:           000084H   BYTE   INSEG    CODE           ?PR?SPI_READ_16BIT_ARRAY?ZF_DRIVER_SPI
   *DEL*:           00006BH   BYTE   INSEG    CODE           ?PR?SPI_WRITE_16BIT_ARRAY?ZF_DRIVER_SPI
   *DEL*:           000022H   BYTE   INSEG    CODE           ?PR?SPI_READ_8BIT_REGISTER?ZF_DRIVER_SPI
   *DEL*:           0000A0H   BYTE   INSEG    CODE           ?PR?SPI_TRANSFER_8BIT?ZF_DRIVER_SPI
   *DEL*:           000079H   BYTE   INSEG    CODE           ?PR?TIMER_FUNCITON_CHECK?ZF_DRIVER_TIMER
   *DEL*:           000066H   BYTE   INSEG    CODE           ?PR?UART_WRITE_STRING?ZF_DRIVER_UART
   *DEL*:           000067H   BYTE   INSEG    CODE           ?PR?UART_READ_BYTE?ZF_DRIVER_UART
   *DEL*:           000079H   BYTE   INSEG    CODE           ?PR?UART_FUNCITON_CHECK?ZF_DRIVER_UART
   *DEL*:           000039H   BYTE   INSEG    CODE           ?PR?IPS114_DRAW_POINT?ZF_DEVICE_IPS114
   *DEL*:           0000C5H   BYTE   INSEG    CODE           ?PR?IPS114_SHOW_UINT16?ZF_DEVICE_IPS114
   *DEL*:           000100H   BYTE   INSEG    CODE           ?PR?IPS114_SHOW_INT32?ZF_DEVICE_IPS114
   *DEL*:           000115H   BYTE   INSEG    CODE           ?PR?IPS114_SHOW_INT16?ZF_DEVICE_IPS114
   *DEL*:           0001AEH   BYTE   INSEG    CODE           ?PR?IPS114_SHOW_WAVE?ZF_DEVICE_IPS114
   *DEL*:           000194H   BYTE   INSEG    CODE           ?PR?IPS114_SHOW_CHINESE?ZF_DEVICE_IPS114
   *DEL*:           0000D5H   BYTE   INSEG    CODE           ?PR?IPS114_SHOW_INT8?ZF_DEVICE_IPS114
   *DEL*:           0000E3H   BYTE   INSEG    CODE           ?PR?BLE6A20_SEND_BUFFER?ZF_DEVICE_BLE6A20
   *DEL*:           0000AEH   BYTE   INSEG    CODE           ?PR?TSL1401_SEND_DATA?ZF_DEVICE_TSL1401
   *DEL*:           00003DH   BYTE   INSEG    CODE           ?PR?TSL1401_INIT?ZF_DEVICE_TSL1401
   *DEL*:           0000AFH   BYTE   INSEG    CODE           ?PR?TSL1401_COLLECT_PIT_HANDLER?ZF_DEVICE_TSL1401
   *DEL*:           00002DH   BYTE   INSEG    CODE           ?PR?SET_TOF_TYPE?ZF_DEVICE_TYPE
   *DEL*:           00005FH   BYTE   INSEG    CODE           ?PR?VELOCITY_PID_FUN?PID
   *DEL*:           00021CH   BYTE   INSEG    CODE           ?PR?PIDINCCTRL?PID
   *DEL*:           000049H   BYTE   INSEG    CODE           ?PR?CONSTRAIN_SHORT?PID
   *DEL*:           00008BH   BYTE   INSEG    CODE           ?PR?BLUE_TOOTH_READ_LOOP?BLUETOOTH
   *DEL*:           000046H   BYTE   INSEG    CODE           ?PR?QSPI_READ_QINSTR_QADDR24_QDATA?QSPI
   *DEL*:           0001CAH   BYTE   INSEG    CODE           ?PR?QSPI_DMA_READ_INSTR_DADDR32_DALT8_DDATA?QSPI
   *DEL*:           0001CAH   BYTE   INSEG    CODE           ?PR?QSPI_DMA_READ_INSTR_DADDR24_DALT8_DDATA?QSPI
   *DEL*:           0001F4H   BYTE   INSEG    CODE           ?PR?QSPI_READ_INSTR_SADDR32_DUMMY_DDATA?QSPI
   *DEL*:           0001F4H   BYTE   INSEG    CODE           ?PR?QSPI_READ_INSTR_SADDR24_DUMMY_DDATA?QSPI
L251 LINKER/LOCATER V4.66.93.0                                                        05/05/2025  21:49:10  PAGE 14


   *DEL*:           0001C2H   BYTE   INSEG    CODE           ?PR?QSPI_DMA_READ_INSTR_QADDR32_QALT8_DUMMY_QDATA?QSPI
   *DEL*:           0001C2H   BYTE   INSEG    CODE           ?PR?QSPI_DMA_READ_INSTR_QADDR24_QALT8_DUMMY_QDATA?QSPI
   *DEL*:           0001EAH   BYTE   INSEG    CODE           ?PR?QSPI_READ_INSTR_SADDR32_DUMMY_QDATA?QSPI
   *DEL*:           0001ADH   BYTE   INSEG    CODE           ?PR?QSPI_WRITE_INSTR_SADDR32_QDATA?QSPI
   *DEL*:           0001F4H   BYTE   INSEG    CODE           ?PR?QSPI_READ_INSTR_SADDR32_DUMMY_SDATA?QSPI
   *DEL*:           0001F4H   BYTE   INSEG    CODE           ?PR?QSPI_READ_INSTR_SADDR24_DUMMY_SDATA?QSPI
   *DEL*:           0001B7H   BYTE   INSEG    CODE           ?PR?QSPI_WRITE_INSTR_SADDR32_SDATA?QSPI
   *DEL*:           00018BH   BYTE   INSEG    CODE           ?PR?QSPI_DMA_READ_QINSTR_QADDR24_DUMMY_QDATA?QSPI
   *DEL*:           000123H   BYTE   INSEG    CODE           ?PR?QSPI_WRITE_QINSTR_QADDR24?QSPI
   *DEL*:           0001B7H   BYTE   INSEG    CODE           ?PR?QSPI_WRITE_INSTR_SADDR24_SDATA?QSPI
   *DEL*:           000046H   BYTE   INSEG    CODE           ?PR?QSPI_READ_INSTR_SADDR32_SDATA?QSPI
   *DEL*:           000046H   BYTE   INSEG    CODE           ?PR?QSPI_READ_INSTR_SADDR24_SDATA?QSPI
   *DEL*:           000203H   BYTE   INSEG    CODE           ?PR?QSPI_READ_QINSTR_QADDR24_QALT8_DUMMY_QDATA?QSPI
   *DEL*:           000175H   BYTE   INSEG    CODE           ?PR?QSPI_POLLING_READ_QINSTR_QDATA?QSPI
   *DEL*:           0001A9H   BYTE   INSEG    CODE           ?PR?QSPI_DMA_READ_INSTR_SADDR32_DUMMY_DDATA?QSPI
   *DEL*:           0001A9H   BYTE   INSEG    CODE           ?PR?QSPI_DMA_READ_INSTR_SADDR24_DUMMY_DDATA?QSPI
   *DEL*:           00014CH   BYTE   INSEG    CODE           ?PR?QSPI_READ_QINSTR_QDATA?QSPI
   *DEL*:           00012DH   BYTE   INSEG    CODE           ?PR?QSPI_WRITE_INSTR_QADDR32?QSPI
   *DEL*:           00019FH   BYTE   INSEG    CODE           ?PR?QSPI_DMA_READ_INSTR_SADDR32_DUMMY_QDATA?QSPI
   *DEL*:           000137H   BYTE   INSEG    CODE           ?PR?QSPI_WRITE_INSTR_SADDR32?QSPI
   *DEL*:           000183H   BYTE   INSEG    CODE           ?PR?QSPI_DMA_WRITE_INSTR_SADDR32_QDATA?QSPI
   *DEL*:           00019FH   BYTE   INSEG    CODE           ?PR?QSPI_DMA_READ_INSTR_SADDR24_DUMMY_QDATA?QSPI
   *DEL*:           000215H   BYTE   INSEG    CODE           ?PR?QSPI_READ_INSTR_DADDR32_DALT8_DDATA?QSPI
   *DEL*:           000183H   BYTE   INSEG    CODE           ?PR?QSPI_DMA_WRITE_INSTR_SADDR24_QDATA?QSPI
   *DEL*:           0001A9H   BYTE   INSEG    CODE           ?PR?QSPI_DMA_READ_INSTR_SADDR32_DUMMY_SDATA?QSPI
   *DEL*:           000215H   BYTE   INSEG    CODE           ?PR?QSPI_READ_INSTR_DADDR24_DALT8_DDATA?QSPI
   *DEL*:           00018DH   BYTE   INSEG    CODE           ?PR?QSPI_DMA_WRITE_INSTR_SADDR32_SDATA?QSPI
   *DEL*:           0001A9H   BYTE   INSEG    CODE           ?PR?QSPI_DMA_READ_INSTR_SADDR24_DUMMY_SDATA?QSPI
   *DEL*:           00018DH   BYTE   INSEG    CODE           ?PR?QSPI_DMA_WRITE_INSTR_SADDR24_SDATA?QSPI
   *DEL*:           0000CEH   BYTE   INSEG    CODE           ?PR?QSPI_DMA_WRITE?QSPI
   *DEL*:           000046H   BYTE   INSEG    CODE           ?PR?QSPI_DMA_READ_INSTR_SADDR32_SDATA?QSPI
   *DEL*:           000046H   BYTE   INSEG    CODE           ?PR?QSPI_DMA_READ_INSTR_SADDR24_SDATA?QSPI
   *DEL*:           00020DH   BYTE   INSEG    CODE           ?PR?QSPI_READ_INSTR_QADDR32_QALT8_DUMMY_QDATA?QSPI
   *DEL*:           00020DH   BYTE   INSEG    CODE           ?PR?QSPI_READ_INSTR_QADDR24_QALT8_DUMMY_QDATA?QSPI
   *DEL*:           0000CEH   BYTE   INSEG    CODE           ?PR?QSPI_DMA_READ?QSPI
   *DEL*:           0000A5H   BYTE   INSEG    CODE           ?PR?QSPI_WRITE_QINSTR?QSPI
   *DEL*:           0001B8H   BYTE   INSEG    CODE           ?PR?QSPI_DMA_READ_QINSTR_QADDR24_QALT8_DUMMY_QDATA?QSPI
   *DEL*:           0001D6H   BYTE   INSEG    CODE           ?PR?QSPI_READ_QINSTR_QADDR24_DUMMY_QDATA?QSPI
   *DEL*:           000189H   BYTE   INSEG    CODE           ?PR?QSPI_POLLING_READ_INSTR_SDATA?QSPI
   *DEL*:           000111H   BYTE   INSEG    CODE           ?PR?QSPI_WRITE_QINSTR_QADDR8?QSPI
   *DEL*:           00001EH   BYTE   INSEG    CODE           ?PR?W25Q_QPI_READDEVICEID_AB?W25QXX
   *DEL*:           000004H   BYTE   INSEG    CODE           ?PR?W25Q_PROGRAMSUSPEND_75?W25QXX
   *DEL*:           000041H   BYTE   INSEG    CODE           ?PR?W25Q_DMA_FASTREAD_0B?W25QXX
   *DEL*:           00001AH   BYTE   INSEG    CODE           ?PR?W25Q_QPI_LOCKSECTOR_36?W25QXX
   *DEL*:           000028H   BYTE   INSEG    CODE           ?PR?W25Q_QPI_READJEDECID_9F?W25QXX
   *DEL*:           000044H   BYTE   INSEG    CODE           ?PR?W25Q_DMA_PAGEPROGRAM_ADDR32_12?W25QXX
   *DEL*:           000006H   BYTE   INSEG    CODE           ?PR?W25Q_UNLOCKGLOBAL_98?W25QXX
   *DEL*:           000041H   BYTE   INSEG    CODE           ?PR?W25Q_DMA_FASTREAD_3B?W25QXX
   *DEL*:           000044H   BYTE   INSEG    CODE           ?PR?W25Q_DMA_PAGEPROGRAM_ADDR32_34?W25QXX
   *DEL*:           000041H   BYTE   INSEG    CODE           ?PR?W25Q_DMA_FASTREAD_6B?W25QXX
   *DEL*:           000016H   BYTE   INSEG    CODE           ?PR?W25Q_READSR3_15?W25QXX
   *DEL*:           000107H   BYTE   INSEG    CODE           ?PR?W25Q_PAGEPROGRAM_02?W25QXX
   *DEL*:           000042H   BYTE   INSEG    CODE           ?PR?W25Q_DMA_OCTALWORDREAD_E3?W25QXX
   *DEL*:           00001AH   BYTE   INSEG    CODE           ?PR?W25Q_QPI_ERASECHIP_C7?W25QXX
   *DEL*:           000006H   BYTE   INSEG    CODE           ?PR?W25Q_QPI_RELEASEPOWERDOWN_AB?W25QXX
   *DEL*:           000030H   BYTE   INSEG    CODE           ?PR?W25Q_QPI_READLOCKSECTOR_3D?W25QXX
   *DEL*:           0000CDH   BYTE   INSEG    CODE           ?PR?W25Q_PROGRAMSECURITYREG_42?W25QXX
   *DEL*:           0000B6H   BYTE   INSEG    CODE           ?PR?W25Q_FASTREAD_ADDR32_0C?W25QXX
   *DEL*:           000040H   BYTE   INSEG    CODE           ?PR?W25Q_DMA_FASTREAD_BB?W25QXX
   *DEL*:           000006H   BYTE   INSEG    CODE           ?PR?W25Q_ERASESUSPEND_75?W25QXX
   *DEL*:           000010H   BYTE   INSEG    CODE           ?PR?W25Q_WRITESR1_01?W25QXX
   *DEL*:           0000B6H   BYTE   INSEG    CODE           ?PR?W25Q_FASTREAD_ADDR32_3C?W25QXX
   *DEL*:           000043H   BYTE   INSEG    CODE           ?PR?W25Q_DMA_FASTREAD_EB?W25QXX
   *DEL*:           000010H   BYTE   INSEG    CODE           ?PR?W25Q_WRITESR3_11?W25QXX
   *DEL*:           000004H   BYTE   INSEG    CODE           ?PR?W25Q_PROGRAMRESUME_7A?W25QXX
L251 LINKER/LOCATER V4.66.93.0                                                        05/05/2025  21:49:10  PAGE 15


   *DEL*:           0000B6H   BYTE   INSEG    CODE           ?PR?W25Q_FASTREAD_ADDR32_6C?W25QXX
   *DEL*:           000043H   BYTE   INSEG    CODE           ?PR?W25Q_DMA_WORDREAD_E7?W25QXX
   *DEL*:           0000B6H   BYTE   INSEG    CODE           ?PR?W25Q_QPI_FASTREAD_0B?W25QXX
   *DEL*:           000014H   BYTE   INSEG    CODE           ?PR?W25Q_SETBURSTWRAP_77?W25QXX
   *DEL*:           00001AH   BYTE   INSEG    CODE           ?PR?W25Q_UNLOCKSECTOR_39?W25QXX
   *DEL*:           000016H   BYTE   INSEG    CODE           ?PR?W25Q_READEAR_C8?W25QXX
   *DEL*:           00003AH   BYTE   INSEG    CODE           ?PR?W25Q_DMA_READDATA_ADDR32_13?W25QXX
   *DEL*:           000027H   BYTE   INSEG    CODE           ?PR?W25Q_QPI_ERASE32K_52?W25QXX
   *DEL*:           0000B5H   BYTE   INSEG    CODE           ?PR?W25Q_FASTREAD_ADDR32_BC?W25QXX
   *DEL*:           00001AH   BYTE   INSEG    CODE           ?PR?W25Q_ERASESECURITYREG_44?W25QXX
   *DEL*:           0000B8H   BYTE   INSEG    CODE           ?PR?W25Q_FASTREAD_ADDR32_EC?W25QXX
   *DEL*:           000006H   BYTE   INSEG    CODE           ?PR?W25Q_LOCKGLOBAL_7E?W25QXX
   *DEL*:           0000ADH   BYTE   INSEG    CODE           ?PR?W25Q_READDATA_03?W25QXX
   *DEL*:           000010H   BYTE   INSEG    CODE           ?PR?W25Q_QPI_SETREADPARAM_C0?W25QXX
   *DEL*:           000006H   BYTE   INSEG    CODE           ?PR?W25Q_ENTERQPIMODE_38?W25QXX
   *DEL*:           000010H   BYTE   INSEG    CODE           ?PR?W25Q_WRITEEAR_C5?W25QXX
   *DEL*:           000006H   BYTE   INSEG    CODE           ?PR?W25Q_ERASERESUME_7A?W25QXX
   *DEL*:           0000B7H   BYTE   INSEG    CODE           ?PR?W25Q_QPI_FASTREAD_EB?W25QXX
   *DEL*:           00001EH   BYTE   INSEG    CODE           ?PR?W25Q_READDEVICEID_AB?W25QXX
   *DEL*:           00000BH   BYTE   INSEG    CODE           ?PR?W25Q_QPI_RESETDEVICE_66_99?W25QXX
   *DEL*:           000006H   BYTE   INSEG    CODE           ?PR?W25Q_ENTERADDR32MODE_B7?W25QXX
   *DEL*:           000006H   BYTE   INSEG    CODE           ?PR?W25Q_QPI_EXITQPIMODE_FF?W25QXX
   *DEL*:           00001AH   BYTE   INSEG    CODE           ?PR?W25Q_LOCKSECTOR_36?W25QXX
   *DEL*:           0000B6H   BYTE   INSEG    CODE           ?PR?W25Q_READSECURITYREG_48?W25QXX
   *DEL*:           000027H   BYTE   INSEG    CODE           ?PR?W25Q_QPI_ERASE64K_D8?W25QXX
   *DEL*:           000044H   BYTE   INSEG    CODE           ?PR?W25Q_DMA_PAGEPROGRAM_02?W25QXX
   *DEL*:           000006H   BYTE   INSEG    CODE           ?PR?W25Q_QPI_POWERDOWN_B9?W25QXX
   *DEL*:           000027H   BYTE   INSEG    CODE           ?PR?W25Q_ERASE64K_ADDR32_DC?W25QXX
   *DEL*:           000013H   BYTE   INSEG    CODE           ?PR?W25Q_ERASECHIP_C7?W25QXX
   *DEL*:           000044H   BYTE   INSEG    CODE           ?PR?W25Q_DMA_PAGEPROGRAM_32?W25QXX
   *DEL*:           000020H   BYTE   INSEG    CODE           ?PR?W25Q_READID_90?W25QXX
   *DEL*:           000006H   BYTE   INSEG    CODE           ?PR?W25Q_RELEASEPOWERDOWN_AB?W25QXX
   *DEL*:           000030H   BYTE   INSEG    CODE           ?PR?W25Q_READLOCKSECTOR_3D?W25QXX
   *DEL*:           000006H   BYTE   INSEG    CODE           ?PR?W25Q_QPI_WRITEDISABLE_04?W25QXX
   *DEL*:           000026H   BYTE   INSEG    CODE           ?PR?W25Q_READID_92?W25QXX
   *DEL*:           000041H   BYTE   INSEG    CODE           ?PR?W25Q_DMA_FASTREAD_ADDR32_0C?W25QXX
   *DEL*:           000029H   BYTE   INSEG    CODE           ?PR?W25Q_READID_94?W25QXX
   *DEL*:           000041H   BYTE   INSEG    CODE           ?PR?W25Q_DMA_FASTREAD_ADDR32_3C?W25QXX
   *DEL*:           000004H   BYTE   INSEG    CODE           ?PR?W25Q_QPI_PROGRAMSUSPEND_75?W25QXX
   *DEL*:           000026H   BYTE   INSEG    CODE           ?PR?W25Q_READUNIQUEID_4B?W25QXX
   *DEL*:           000041H   BYTE   INSEG    CODE           ?PR?W25Q_DMA_FASTREAD_ADDR32_6C?W25QXX
   *DEL*:           000041H   BYTE   INSEG    CODE           ?PR?W25Q_QPI_DMA_FASTREAD_0B?W25QXX
   *DEL*:           0000B6H   BYTE   INSEG    CODE           ?PR?W25Q_FASTREAD_0B?W25QXX
   *DEL*:           000006H   BYTE   INSEG    CODE           ?PR?W25Q_QPI_UNLOCKGLOBAL_98?W25QXX
   *DEL*:           000107H   BYTE   INSEG    CODE           ?PR?W25Q_PAGEPROGRAM_ADDR32_12?W25QXX
   *DEL*:           0000B6H   BYTE   INSEG    CODE           ?PR?W25Q_FASTREAD_3B?W25QXX
   *DEL*:           000016H   BYTE   INSEG    CODE           ?PR?W25Q_QPI_READSR1_05?W25QXX
   *DEL*:           000006H   BYTE   INSEG    CODE           ?PR?W25Q_EXITADDR32MODE_E9?W25QXX
   *DEL*:           000006H   BYTE   INSEG    CODE           ?PR?W25Q_QPI_WRITEENABLEVSR_50?W25QXX
   *DEL*:           000107H   BYTE   INSEG    CODE           ?PR?W25Q_PAGEPROGRAM_ADDR32_34?W25QXX
   *DEL*:           000016H   BYTE   INSEG    CODE           ?PR?W25Q_QPI_READSR3_15?W25QXX
   *DEL*:           000016H   BYTE   INSEG    CODE           ?PR?W25Q_QPI_READSR2_35?W25QXX
   *DEL*:           000040H   BYTE   INSEG    CODE           ?PR?W25Q_DMA_FASTREAD_ADDR32_BC?W25QXX
   *DEL*:           000006H   BYTE   INSEG    CODE           ?PR?W25Q_QPI_WRITEENABLE_06?W25QXX
   *DEL*:           000027H   BYTE   INSEG    CODE           ?PR?W25Q_ERASE32K_52?W25QXX
   *DEL*:           0000B7H   BYTE   INSEG    CODE           ?PR?W25Q_OCTALWORDREAD_E3?W25QXX
   *DEL*:           0000B6H   BYTE   INSEG    CODE           ?PR?W25Q_QPI_BURSTREADWITHWRAP_0C?W25QXX
   *DEL*:           000043H   BYTE   INSEG    CODE           ?PR?W25Q_DMA_FASTREAD_ADDR32_EC?W25QXX
   *DEL*:           00003AH   BYTE   INSEG    CODE           ?PR?W25Q_DMA_READDATA_03?W25QXX
   *DEL*:           000006H   BYTE   INSEG    CODE           ?PR?W25Q_QPI_ERASESUSPEND_75?W25QXX
   *DEL*:           000010H   BYTE   INSEG    CODE           ?PR?W25Q_QPI_WRITESR1_01?W25QXX
   *DEL*:           0000B5H   BYTE   INSEG    CODE           ?PR?W25Q_FASTREAD_BB?W25QXX
   *DEL*:           000042H   BYTE   INSEG    CODE           ?PR?W25Q_QPI_DMA_FASTREAD_EB?W25QXX
   *DEL*:           000010H   BYTE   INSEG    CODE           ?PR?W25Q_QPI_WRITESR3_11?W25QXX
   *DEL*:           000004H   BYTE   INSEG    CODE           ?PR?W25Q_QPI_PROGRAMRESUME_7A?W25QXX
L251 LINKER/LOCATER V4.66.93.0                                                        05/05/2025  21:49:10  PAGE 16


   *DEL*:           000010H   BYTE   INSEG    CODE           ?PR?W25Q_QPI_WRITESR2_31?W25QXX
   *DEL*:           0000B8H   BYTE   INSEG    CODE           ?PR?W25Q_FASTREAD_EB?W25QXX
   *DEL*:           000027H   BYTE   INSEG    CODE           ?PR?W25Q_ERASE4K_ADDR32_21?W25QXX
   *DEL*:           00000BH   BYTE   INSEG    CODE           ?PR?W25Q_RESETDEVICE_66_99?W25QXX
   *DEL*:           0000B8H   BYTE   INSEG    CODE           ?PR?W25Q_WORDREAD_E7?W25QXX
   *DEL*:           00001AH   BYTE   INSEG    CODE           ?PR?W25Q_QPI_UNLOCKSECTOR_39?W25QXX
   *DEL*:           000027H   BYTE   INSEG    CODE           ?PR?W25Q_QPI_ERASE4K_20?W25QXX
   *DEL*:           0000ADH   BYTE   INSEG    CODE           ?PR?W25Q_READDATA_ADDR32_13?W25QXX
   *DEL*:           0000A8H   BYTE   INSEG    CODE           ?PR?W25Q_READSFDP_5A?W25QXX
   *DEL*:           000027H   BYTE   INSEG    CODE           ?PR?W25Q_ERASE64K_D8?W25QXX
   *DEL*:           000006H   BYTE   INSEG    CODE           ?PR?W25Q_POWERDOWN_B9?W25QXX
   *DEL*:           000006H   BYTE   INSEG    CODE           ?PR?W25Q_QPI_LOCKGLOBAL_7E?W25QXX
   *DEL*:           00001FH   BYTE   INSEG    CODE           ?PR?W25Q_QPI_WAITBUSY?W25QXX
   *DEL*:           000006H   BYTE   INSEG    CODE           ?PR?W25Q_WRITEDISABLE_04?W25QXX
   *DEL*:           000006H   BYTE   INSEG    CODE           ?PR?W25Q_QPI_ERASERESUME_7A?W25QXX



OVERLAY MAP OF MODULE:   .\out_file\SEEKFREE (ai8051u_isr)


FUNCTION/MODULE                               XDATA_GROUP
--> CALLED FUNCTION/MODULE                    START  STOP
=========================================================
?C_C51STARTUP                                 ----- -----

*** NEW ROOT ********************************

?C_C51STARTUP?3                               ----- -----
  +--> main/main

main/main                                     ----- -----
  +--> init/init
  +--> IPS114_Show_Info/ips114
  +--> blue_tooth_read/bluetooth
  +--> SPRINTF/SPRINTF
  +--> ble6a20_send_string/zf_device_ble6a20
  +--> WritePoint/gps
  +--> ReadPoint/gps
  +--> W25Q_Erase4K_20/w25qxx
  +--> get_two_points_distance/zf_device_gps_tau1201
  +--> get_two_points_azimuth/zf_device_gps_tau1201
  +--> ips114_show_float/zf_device_ips114

init/init                                     ----- -----
  +--> clock_init/zf_common_clock
  +--> debug_init/zf_common_debug
  +--> QSPI_Init/qspi
  +--> W25Q_Enable_QE/w25qxx
  +--> ips114_init/zf_device_ips114
  +--> gps_init/zf_device_gps_tau1201
  +--> ble6a20_init/zf_device_ble6a20
  +--> ips114_show_string/zf_device_ips114
  +--> imu660ra_init/zf_device_imu660ra
  +--> ips114_clear/zf_device_ips114
  +--> IPS114_Show_Unit/ips114
  +--> My_Pid_Init/pid
  +--> my_pit_init/isr
  +--> my_pwm_init/pwm
  +--> StateUpdate/StateMachine

clock_init/zf_common_clock                    ----- -----
  +--> system_delay_init/zf_driver_delay
  +--> interrupt_global_enable/zf_common_interrupt

L251 LINKER/LOCATER V4.66.93.0                                                        05/05/2025  21:49:10  PAGE 17


system_delay_init/zf_driver_delay             ----- -----
  +--> ?C?SLDIV/?C?SLDIV

?C?SLDIV/?C?SLDIV                             ----- -----
  +--> ?C?ULIDIV/?C?ULDIV

?C?ULIDIV/?C?ULDIV                            ----- -----

interrupt_global_enable/zf_common_interr+     ----- -----
... upt

debug_init/zf_common_debug                    ----- -----
  +--> uart_init/zf_driver_uart
  +--> fifo_init/zf_common_fifo
  +--> uart_rx_interrupt/zf_driver_uart
  +--> debug_interrupr_handler/zf_common_debug

uart_init/zf_driver_uart                      ----- -----
  +--> gpio_init/zf_driver_gpio
  +--> ?C?ULIDIV/?C?ULDIV
  +--> uart_dma_init/zf_driver_uart

gpio_init/zf_driver_gpio                      ----- -----
  +--> gpio_set_dir/zf_driver_gpio
  +--> gpio_set_mode/zf_driver_gpio
  +--> gpio_set_impedance/zf_driver_gpio
  +--> gpio_set_level/zf_driver_gpio

gpio_set_dir/zf_driver_gpio                   ----- -----

gpio_set_mode/zf_driver_gpio                  ----- -----

gpio_set_impedance/zf_driver_gpio             ----- -----

gpio_set_level/zf_driver_gpio                 ----- -----

uart_dma_init/zf_driver_uart                  ----- -----

fifo_init/zf_common_fifo                      ----- -----

uart_rx_interrupt/zf_driver_uart              ----- -----

debug_interrupr_handler/zf_common_debug       ----- -----
  +--> uart_query_byte/zf_driver_uart
  +--> fifo_write_buffer/zf_common_fifo

uart_query_byte/zf_driver_uart                ----- -----
  +--> uart_rx_start_buff/zf_driver_uart

uart_rx_start_buff/zf_driver_uart             ----- -----

fifo_write_buffer/zf_common_fifo              ----- -----
  +--> memcpy?_/memcpy
  +--> fifo_head_offset/zf_common_fifo

memcpy?_/memcpy                               ----- -----

fifo_head_offset/zf_common_fifo               ----- -----

QSPI_Init/qspi                                ----- -----

W25Q_Enable_QE/w25qxx                         ----- -----
  +--> W25Q_ReadJEDECID_9F/w25qxx
  +--> W25Q_ReadSR2_35/w25qxx
  +--> W25Q_WriteEnableVSR_50/w25qxx
L251 LINKER/LOCATER V4.66.93.0                                                        05/05/2025  21:49:10  PAGE 18


  +--> W25Q_WriteSR12_01/w25qxx
  +--> W25Q_WriteSR2_31/w25qxx

W25Q_ReadJEDECID_9F/w25qxx                    ----- -----
  +--> QSPI_READ_INSTR_SDATA/qspi

QSPI_READ_INSTR_SDATA/qspi                    ----- -----

W25Q_ReadSR2_35/w25qxx                        ----- -----
  +--> QSPI_READ_INSTR_SDATA/qspi

W25Q_WriteEnableVSR_50/w25qxx                 ----- -----
  +--> QSPI_WRITE_INSTR/qspi

QSPI_WRITE_INSTR/qspi                         ----- -----

W25Q_WriteSR12_01/w25qxx                      ----- -----
  +--> QSPI_WRITE_INSTR_SADDR16/qspi

QSPI_WRITE_INSTR_SADDR16/qspi                 ----- -----

W25Q_WriteSR2_31/w25qxx                       ----- -----
  +--> QSPI_WRITE_INSTR_SADDR8/qspi
  +--> W25Q_WaitBusy/w25qxx

QSPI_WRITE_INSTR_SADDR8/qspi                  ----- -----

W25Q_WaitBusy/w25qxx                          ----- -----
  +--> W25Q_ReadSR1_05/w25qxx

W25Q_ReadSR1_05/w25qxx                        ----- -----
  +--> QSPI_READ_INSTR_SDATA/qspi

ips114_init/zf_device_ips114                  ----- -----
  +--> spi_init/zf_driver_spi
  +--> ips114_set_dir/zf_device_ips114
  +--> ips114_set_color/zf_device_ips114
  +--> system_delay_ms/zf_driver_delay
  +--> ips114_write_index/zf_device_ips114
  +--> spi_write_8bit/zf_driver_spi
  +--> ips114_clear/zf_device_ips114

spi_init/zf_driver_spi                        ----- -----
  +--> gpio_init/zf_driver_gpio
  +--> gpio_set_level_speed/zf_driver_gpio
  +--> ?C?ULIDIV/?C?ULDIV

gpio_set_level_speed/zf_driver_gpio           ----- -----

ips114_set_dir/zf_device_ips114               ----- -----

ips114_set_color/zf_device_ips114             ----- -----

system_delay_ms/zf_driver_delay               ----- -----

ips114_write_index/zf_device_ips114           ----- -----
  +--> spi_write_8bit/zf_driver_spi

spi_write_8bit/zf_driver_spi                  ----- -----
  +--> spi_write_dat/zf_driver_spi

spi_write_dat/zf_driver_spi                   ----- -----

ips114_clear/zf_device_ips114                 ----- -----
  +--> ips114_set_region/zf_device_ips114
L251 LINKER/LOCATER V4.66.93.0                                                        05/05/2025  21:49:10  PAGE 19


  +--> spi_write_16bit/zf_driver_spi

ips114_set_region/zf_device_ips114            ----- -----
  +--> ips114_write_index/zf_device_ips114
  +--> spi_write_16bit/zf_driver_spi

spi_write_16bit/zf_driver_spi                 ----- -----
  +--> spi_write_dat/zf_driver_spi

gps_init/zf_device_gps_tau1201                ----- -----
  +--> fifo_init/zf_common_fifo
  +--> system_delay_ms/zf_driver_delay
  +--> uart_init/zf_driver_uart
  +--> uart_rx_interrupt/zf_driver_uart
  +--> gps_uart_callback/zf_device_gps_tau1201
  +--> set_gps_type/zf_device_type
  +--> uart_write_buffer/zf_driver_uart

gps_uart_callback/zf_device_gps_tau1201       ----- -----
  +--> fifo_write_buffer/zf_common_fifo
  +--> fifo_read_buffer/zf_common_fifo
  +--> strncmp?_/STRNCMP
  +--> fifo_used/zf_common_fifo
  +--> fifo_clear/zf_common_fifo

fifo_read_buffer/zf_common_fifo               ----- -----
  +--> fifo_used/zf_common_fifo
  +--> memcpy?_/memcpy
  +--> fifo_end_offset/zf_common_fifo

fifo_used/zf_common_fifo                      ----- -----

fifo_end_offset/zf_common_fifo                ----- -----

strncmp?_/STRNCMP                             ----- -----

fifo_clear/zf_common_fifo                     ----- -----
  +--> memset?_/memset

memset?_/memset                               ----- -----

set_gps_type/zf_device_type                   ----- -----

uart_write_buffer/zf_driver_uart              ----- -----

ble6a20_init/zf_device_ble6a20                ----- -----
  +--> system_delay_ms/zf_driver_delay
  +--> ble6a20_callback/zf_device_ble6a20
  +--> set_wireless_type/zf_device_type
  +--> fifo_init/zf_common_fifo
  +--> gpio_init/zf_driver_gpio
  +--> uart_init/zf_driver_uart
  +--> uart_rx_interrupt/zf_driver_uart

ble6a20_callback/zf_device_ble6a20            ----- -----
  +--> fifo_write_buffer/zf_common_fifo

set_wireless_type/zf_device_type              ----- -----

ips114_show_string/zf_device_ips114           ----- -----
  +--> ips114_show_char/zf_device_ips114

ips114_show_char/zf_device_ips114             ----- -----
  +--> ips114_set_region/zf_device_ips114
  +--> spi_write_16bit/zf_driver_spi
L251 LINKER/LOCATER V4.66.93.0                                                        05/05/2025  21:49:10  PAGE 20



imu660ra_init/zf_device_imu660ra              ----- -----
  +--> system_delay_ms/zf_driver_delay
  +--> spi_init/zf_driver_spi
  +--> gpio_init/zf_driver_gpio
  +--> imu660ra_self_check/zf_device_imu660ra
  +--> PRINTF/PRINTF
  +--> imu660ra_write_register/zf_device_imu660ra
  +--> imu660ra_write_registers/zf_device_imu660ra
  +--> imu660ra_read_register/zf_device_imu660ra

imu660ra_self_check/zf_device_imu660ra        ----- -----
  +--> imu660ra_read_register/zf_device_imu660ra
  +--> PRINTF/PRINTF
  +--> system_delay_ms/zf_driver_delay

imu660ra_read_register/zf_device_imu660r+     ----- -----
... a
  +--> gpio_set_level/zf_driver_gpio
  +--> spi_read_8bit_registers/zf_driver_spi

spi_read_8bit_registers/zf_driver_spi         ----- -----
  +--> spi_write_dat/zf_driver_spi
  +--> spi_read_dat/zf_driver_spi

spi_read_dat/zf_driver_spi                    ----- -----

PRINTF/PRINTF                                 0A4FH 0A76H
  +--> OUT/PRINTF

OUT/PRINTF                                    ----- -----
  +--> PUTCH/PRINTF

PUTCH/PRINTF                                  ----- -----
  +--> putchar/zf_common_debug
  +--> OUT/PRINTF

putchar/zf_common_debug                       ----- -----
  +--> uart_write_byte/zf_driver_uart

uart_write_byte/zf_driver_uart                ----- -----
  +--> uart_write_buffer/zf_driver_uart

imu660ra_write_register/zf_device_imu660+     ----- -----
... ra
  +--> gpio_set_level/zf_driver_gpio
  +--> spi_write_8bit_register/zf_driver_spi

spi_write_8bit_register/zf_driver_spi         ----- -----
  +--> spi_write_dat/zf_driver_spi

imu660ra_write_registers/zf_device_imu66+     ----- -----
... 0ra
  +--> gpio_set_level/zf_driver_gpio
  +--> spi_write_8bit_registers/zf_driver_spi

spi_write_8bit_registers/zf_driver_spi        ----- -----
  +--> spi_write_dat/zf_driver_spi

IPS114_Show_Unit/ips114                       ----- -----
  +--> ips114_set_color/zf_device_ips114
  +--> ips114_show_string/zf_device_ips114
  +--> ips114_show_char/zf_device_ips114

My_Pid_Init/pid                               ----- -----
L251 LINKER/LOCATER V4.66.93.0                                                        05/05/2025  21:49:10  PAGE 21


  +--> Pid_Param_Init/pid

Pid_Param_Init/pid                            ----- -----

my_pit_init/isr                               ----- -----
  +--> pit_hanlder_imu/isr
  +--> ?C?SLDIV/?C?SLDIV
  +--> pit_init/zf_driver_pit
  +--> pit_hanlder_gps/isr
  +--> pit_hanlder_angle/isr

pit_hanlder_imu/isr                           ----- -----
  +--> imu660ra_get_acc/zf_device_imu660ra
  +--> imu660ra_get_gyro/zf_device_imu660ra
  +--> FOCF/filter
  +--> GetEuler/filter

imu660ra_get_acc/zf_device_imu660ra           ----- -----
  +--> imu660ra_read_registers/zf_device_imu660ra

imu660ra_read_registers/zf_device_imu660+     ----- -----
... ra
  +--> gpio_set_level/zf_driver_gpio
  +--> spi_read_8bit_registers/zf_driver_spi

imu660ra_get_gyro/zf_device_imu660ra          ----- -----
  +--> imu660ra_read_registers/zf_device_imu660ra

FOCF/filter                                   ----- -----

GetEuler/filter                               ----- -----
  +--> my_atan2/filter

my_atan2/filter                               ----- -----

pit_init/zf_driver_pit                        ----- -----
  +--> ?C?ULIDIV/?C?ULDIV

pit_hanlder_gps/isr                           ----- -----
  +--> gps_data_parse/zf_device_gps_tau1201

gps_data_parse/zf_device_gps_tau1201          ----- -----
  +--> strchr?_/STRCHR
  +--> strncpy?_/STRNCPY
  +--> func_str_to_hex/zf_common_function
  +--> gps_gnrmc_parse/zf_device_gps_tau1201
  +--> gps_gngga_parse/zf_device_gps_tau1201

strchr?_/STRCHR                               ----- -----

strncpy?_/STRNCPY                             ----- -----

func_str_to_hex/zf_common_function            ----- -----
  +--> strlen?_/STRLEN

strlen?_/STRLEN                               ----- -----

gps_gnrmc_parse/zf_device_gps_tau1201         ----- -----
  +--> get_parameter_index/zf_device_gps_tau1201
  +--> get_double_number/zf_device_gps_tau1201
  +--> get_float_number/zf_device_gps_tau1201
  +--> utc_to_btc/zf_device_gps_tau1201

get_parameter_index/zf_device_gps_tau120+     ----- -----
... 1
L251 LINKER/LOCATER V4.66.93.0                                                        05/05/2025  21:49:10  PAGE 22


  +--> strchr?_/STRCHR

get_double_number/zf_device_gps_tau1201       ----- -----
  +--> get_parameter_index/zf_device_gps_tau1201
  +--> strncpy?_/STRNCPY
  +--> func_str_to_double/zf_common_function

func_str_to_double/zf_common_function         ----- -----

get_float_number/zf_device_gps_tau1201        ----- -----
  +--> get_parameter_index/zf_device_gps_tau1201
  +--> strncpy?_/STRNCPY
  +--> func_str_to_double/zf_common_function

utc_to_btc/zf_device_gps_tau1201              ----- -----

gps_gngga_parse/zf_device_gps_tau1201         ----- -----
  +--> get_parameter_index/zf_device_gps_tau1201
  +--> get_int_number/zf_device_gps_tau1201
  +--> get_float_number/zf_device_gps_tau1201

get_int_number/zf_device_gps_tau1201          ----- -----
  +--> get_parameter_index/zf_device_gps_tau1201
  +--> strncpy?_/STRNCPY
  +--> func_str_to_int/zf_common_function

func_str_to_int/zf_common_function            ----- -----

pit_hanlder_angle/isr                         ----- -----
  +--> Angle_Pid_fun/pid
  +--> constrain_uint32/pid
  +--> pwm_set_duty/zf_driver_pwm

Angle_Pid_fun/pid                             ----- -----
  +--> get_two_points_azimuth/zf_device_gps_tau1201
  +--> PidLocCtrl/pid

get_two_points_azimuth/zf_device_gps_tau+     ----- -----
... 1201

PidLocCtrl/pid                                ----- -----
  +--> constrain_float/pid

constrain_float/pid                           ----- -----

constrain_uint32/pid                          ----- -----

pwm_set_duty/zf_driver_pwm                    ----- -----

my_pwm_init/pwm                               ----- -----
  +--> pwm_init/zf_driver_pwm

pwm_init/zf_driver_pwm                        ----- -----
  +--> gpio_init/zf_driver_gpio
  +--> ?C?ULIDIV/?C?ULDIV

StateUpdate/StateMachine                      ----- -----

IPS114_Show_Info/ips114                       ----- -----
  +--> ips114_show_float/zf_device_ips114
  +--> ips114_show_uint8/zf_device_ips114

ips114_show_float/zf_device_ips114            ----- -----
  +--> zf_sprintf/zf_common_function
  +--> ips114_show_string/zf_device_ips114
L251 LINKER/LOCATER V4.66.93.0                                                        05/05/2025  21:49:10  PAGE 23



zf_sprintf/zf_common_function                 ----- -----
  +--> number_conversion_ascii/zf_common_function
  +--> printf_reverse_order/zf_common_function
  +--> memcpy?_/memcpy

number_conversion_ascii/zf_common_functi+     ----- -----
... on
  +--> ?C?SLDIV/?C?SLDIV
  +--> ?C?ULIDIV/?C?ULDIV

printf_reverse_order/zf_common_function       ----- -----

ips114_show_uint8/zf_device_ips114            ----- -----
  +--> ips114_show_char/zf_device_ips114

blue_tooth_read/bluetooth                     ----- -----
  +--> ble6a20_read_buffer/zf_device_ble6a20
  +--> ble6a20_send_string/zf_device_ble6a20
  +--> ble6a20_send_byte/zf_device_ble6a20
  +--> memcpy?_/memcpy

ble6a20_read_buffer/zf_device_ble6a20         ----- -----
  +--> fifo_read_buffer/zf_common_fifo

ble6a20_send_string/zf_device_ble6a20         ----- -----
  +--> strlen?_/STRLEN
  +--> gpio_get_level/zf_driver_gpio
  +--> memcpy?_/memcpy
  +--> uart_write_buffer/zf_driver_uart
  +--> system_delay_ms/zf_driver_delay

gpio_get_level/zf_driver_gpio                 ----- -----

ble6a20_send_byte/zf_device_ble6a20           ----- -----
  +--> gpio_get_level/zf_driver_gpio
  +--> uart_write_byte/zf_driver_uart
  +--> system_delay_ms/zf_driver_delay

SPRINTF/SPRINTF                               0A4FH 0A76H
  +--> OUT/SPRINTF

OUT/SPRINTF                                   ----- -----
  +--> PUTCH/SPRINTF

PUTCH/SPRINTF                                 ----- -----

WritePoint/gps                                ----- -----
  +--> W25Q_PageProgram_32/w25qxx

W25Q_PageProgram_32/w25qxx                    ----- -----
  +--> W25Q_WriteEnable_06/w25qxx
  +--> QSPI_WRITE_INSTR_SADDR24_QDATA/qspi
  +--> W25Q_WaitBusy/w25qxx

W25Q_WriteEnable_06/w25qxx                    ----- -----
  +--> QSPI_WRITE_INSTR/qspi

QSPI_WRITE_INSTR_SADDR24_QDATA/qspi           ----- -----

ReadPoint/gps                                 ----- -----
  +--> W25Q_FastRead_6B/w25qxx

W25Q_FastRead_6B/w25qxx                       ----- -----
  +--> QSPI_READ_INSTR_SADDR24_DUMMY_QDATA/qspi
L251 LINKER/LOCATER V4.66.93.0                                                        05/05/2025  21:49:10  PAGE 24



QSPI_READ_INSTR_SADDR24_DUMMY_QDATA/qspi      ----- -----

W25Q_Erase4K_20/w25qxx                        ----- -----
  +--> W25Q_WriteEnable_06/w25qxx
  +--> QSPI_WRITE_INSTR_SADDR24/qspi
  +--> W25Q_WaitBusy/w25qxx

QSPI_WRITE_INSTR_SADDR24/qspi                 ----- -----

get_two_points_distance/zf_device_gps_ta+     ----- -----
... u1201
  +--> pow?_/pow

pow?_/pow                                     ----- -----
  +--> LOG?_/LOG?_

LOG?_/LOG?_                                   ----- -----

*** NEW ROOT ********************************

TM11_IRQHandler/isr                           ----- -----

*** NEW ROOT ********************************

DMA_UART1_IRQHandler/isr                      ----- -----
  +--> uart_rx_start_buff/zf_driver_uart

*** NEW ROOT ********************************

DMA_UART2_IRQHandler/isr                      ----- -----
  +--> uart_rx_start_buff/zf_driver_uart

*** NEW ROOT ********************************

DMA_UART3_IRQHandler/isr                      ----- -----
  +--> uart_rx_start_buff/zf_driver_uart

*** NEW ROOT ********************************

DMA_UART4_IRQHandler/isr                      ----- -----
  +--> uart_rx_start_buff/zf_driver_uart

*** NEW ROOT ********************************

TM0_IRQHandler/isr                            ----- -----

*** NEW ROOT ********************************

TM1_IRQHandler/isr                            ----- -----

*** NEW ROOT ********************************

TM2_IRQHandler/isr                            ----- -----

*** NEW ROOT ********************************

TM3_IRQHandler/isr                            ----- -----

*** NEW ROOT ********************************

TM4_IRQHandler/isr                            ----- -----

*** NEW ROOT ********************************

L251 LINKER/LOCATER V4.66.93.0                                                        05/05/2025  21:49:10  PAGE 25


?C_C51STARTUP?1                               ----- -----

*** NEW ROOT ********************************

?C_C51STARTUP?2                               ----- -----



PUBLIC SYMBOLS OF MODULE:  .\out_file\SEEKFREE (ai8051u_isr)


      VALUE       CLASS    TYPE      PUBLIC SYMBOL NAME
      =================================================
      00FF392AH   CODE     ---       ?C?BMOVEPP
      00FF3928H   CODE     ---       ?C?BMOVEPP8
      00FF259FH   CODE     NEAR LAB  ?C?CASTD
      00FF3807H   CODE     NEAR LAB  ?C?CASTF
      000000FFH   NUMBER   ---       ?C?CODESEG
      00FF255CH   CODE     NEAR LAB  ?C?DCASTC
      00FF25FFH   CODE     NEAR LAB  ?C?DCASTF
      00FF2557H   CODE     NEAR LAB  ?C?DCASTI
      00FF2552H   CODE     NEAR LAB  ?C?DCASTL
      00FF2FD3H   CODE     ---       ?C?DP2SERIES
      00FF2225H   CODE     ---       ?C?DPADD
      00FF24E5H   CODE     ---       ?C?DPCMP
      00FF24E3H   CODE     ---       ?C?DPCMP3
      00FF32BEH   CODE     ---       ?C?DPCONVERT
      00FF2444H   CODE     ---       ?C?DPDIV
      00FF2AF5H   CODE     ---       ?C?DPGETOPN2
      00FF2334H   CODE     ---       ?C?DPMUL
      00FF2B40H   CODE     ---       ?C?DPNANRESULT
      00FF2544H   CODE     ---       ?C?DPNEG
      00FF2B4CH   CODE     ---       ?C?DPOVERFLOW
      00FF2B18H   CODE     ---       ?C?DPRESULT
      00FF2B31H   CODE     ---       ?C?DPRESULT2
      00FF33E5H   CODE     ---       ?C?DPROUND
      00FF2FDEH   CODE     ---       ?C?DPSERIES
      00FF2221H   CODE     ---       ?C?DPSUB
      00FF2B47H   CODE     ---       ?C?DPUNDERFLOW
      00FF34C0H   CODE     ---       ?C?DTNPWR
      00FF37D4H   CODE     NEAR LAB  ?C?FCASTC
      00FF2641H   CODE     NEAR LAB  ?C?FCASTD
      00FF37CFH   CODE     NEAR LAB  ?C?FCASTI
      00FF37CAH   CODE     NEAR LAB  ?C?FCASTL
      00FF359DH   CODE     ---       ?C?FPADD
      00FF3778H   CODE     ---       ?C?FPCMP
      00FF3776H   CODE     ---       ?C?FPCMP3
      00FF36F5H   CODE     ---       ?C?FPDIV
      00FF3546H   CODE     ---       ?C?FPGETOPN2
      00FF3655H   CODE     ---       ?C?FPMUL
      00FF3583H   CODE     ---       ?C?FPNANRESULT
      00FF37BCH   CODE     ---       ?C?FPNEG
      00FF358BH   CODE     ---       ?C?FPOVERFLOW
      00FF355FH   CODE     ---       ?C?FPRESULT
      00FF3575H   CODE     ---       ?C?FPRESULT2
      00FF359AH   CODE     ---       ?C?FPSUB
      00FF3588H   CODE     ---       ?C?FPUNDERFLOW
      00FFDC86H   CODE     ---       ?C?INITHDATA
      00FFE746H   HCONST   WORD      ?C?INITHDATA_END
      00FF3898H   CODE     ---       ?C?LIMUL
      00FF2BA5H   CODE     ---       ?C?PRNFMT
      00FF3844H   CODE     ---       ?C?SCDIV
      00FF3866H   CODE     ---       ?C?SIDIV
      00FF38F4H   CODE     NEAR LAB  ?C?SLDIV
      00FF0000H   CODE     ---       ?C?STARTUP
L251 LINKER/LOCATER V4.66.93.0                                                        05/05/2025  21:49:10  PAGE 26


      00FF38A3H   CODE     NEAR LAB  ?C?ULDIV
      00FF38A1H   CODE     NEAR LAB  ?C?ULIDIV
      00000001H   NUMBER   ---       ?C?XDATASEG
      00FF0000H   CODE     ---       ?C_STARTUP
      00010E86H   XDATA    BYTE      ?constrain_float?BYTE
      00010CC7H   XDATA    BYTE      ?fifo_init?BYTE
      00010B82H   XDATA    BYTE      ?fifo_read_buffer?BYTE
      00010C71H   XDATA    BYTE      ?fifo_write_buffer?BYTE
      00010E92H   XDATA    BYTE      ?FOCF?BYTE
      00010926H   XDATA    BYTE      ?func_double_to_str?BYTE
      00010962H   XDATA    BYTE      ?get_two_points_azimuth?BYTE
      000106FCH   XDATA    BYTE      ?get_two_points_distance?BYTE
      00010B69H   XDATA    BYTE      ?ips114_show_chinese?BYTE
      0001099AH   XDATA    BYTE      ?ips114_show_float?BYTE
      00010A9CH   XDATA    BYTE      ?ips114_show_wave?BYTE
      00010BCAH   XDATA    BYTE      ?my_atan2?BYTE
      00010BB2H   XDATA    BYTE      ?Pid_Param_Init?BYTE
      00010E7AH   XDATA    BYTE      ?PidIncCtrl?BYTE
      00010E6EH   XDATA    BYTE      ?PidLocCtrl?BYTE
      00010A77H   XDATA    ---       ?printf?BYTE
      00010C83H   XDATA    BYTE      ?pwm_init?BYTE
      00010C0EH   XDATA    BYTE      ?pwm_set_freq?BYTE
      00010EDAH   XDATA    BYTE      ?QSPI_DMA_READ_INSTR_DADDR24_DALT8_DDATA?BYTE
      00010EF2H   XDATA    BYTE      ?QSPI_DMA_READ_INSTR_DADDR32_DALT8_DDATA?BYTE
      00010D85H   XDATA    BYTE      ?QSPI_DMA_READ_INSTR_QADDR24_QALT8_DUMMY_QDATA?BYTE
      00010D9FH   XDATA    BYTE      ?QSPI_DMA_READ_INSTR_QADDR32_QALT8_DUMMY_QDATA?BYTE
      00010F0AH   XDATA    BYTE      ?QSPI_DMA_READ_INSTR_SADDR24_DUMMY_DDATA?BYTE
      00010F22H   XDATA    BYTE      ?QSPI_DMA_READ_INSTR_SADDR24_DUMMY_QDATA?BYTE
      00010EAAH   XDATA    BYTE      ?QSPI_DMA_READ_INSTR_SADDR24_DUMMY_SDATA?BYTE
      00010FADH   XDATA    BYTE      ?QSPI_DMA_READ_INSTR_SADDR24_SDATA?BYTE
      00010F3AH   XDATA    BYTE      ?QSPI_DMA_READ_INSTR_SADDR32_DUMMY_DDATA?BYTE
      00010F52H   XDATA    BYTE      ?QSPI_DMA_READ_INSTR_SADDR32_DUMMY_QDATA?BYTE
      00010EC2H   XDATA    BYTE      ?QSPI_DMA_READ_INSTR_SADDR32_DUMMY_SDATA?BYTE
      00010FC3H   XDATA    BYTE      ?QSPI_DMA_READ_INSTR_SADDR32_SDATA?BYTE
      00010F6AH   XDATA    BYTE      ?QSPI_DMA_READ_QINSTR_QADDR24_DUMMY_QDATA?BYTE
      00010DB9H   XDATA    BYTE      ?QSPI_DMA_READ_QINSTR_QADDR24_QALT8_DUMMY_QDATA?BYTE
      00010FEFH   XDATA    BYTE      ?QSPI_DMA_WRITE_INSTR_SADDR24_QDATA?BYTE
      00010FD9H   XDATA    BYTE      ?QSPI_DMA_WRITE_INSTR_SADDR24_SDATA?BYTE
      0001101BH   XDATA    BYTE      ?QSPI_DMA_WRITE_INSTR_SADDR32_QDATA?BYTE
      00011005H   XDATA    BYTE      ?QSPI_DMA_WRITE_INSTR_SADDR32_SDATA?BYTE
      00010ECEH   XDATA    BYTE      ?QSPI_READ_INSTR_DADDR24_DALT8_DDATA?BYTE
      00010EE6H   XDATA    BYTE      ?QSPI_READ_INSTR_DADDR32_DALT8_DDATA?BYTE
      00010D78H   XDATA    BYTE      ?QSPI_READ_INSTR_QADDR24_QALT8_DUMMY_QDATA?BYTE
      00010D92H   XDATA    BYTE      ?QSPI_READ_INSTR_QADDR32_QALT8_DUMMY_QDATA?BYTE
      00010EFEH   XDATA    BYTE      ?QSPI_READ_INSTR_SADDR24_DUMMY_DDATA?BYTE
      00010F16H   XDATA    BYTE      ?QSPI_READ_INSTR_SADDR24_DUMMY_QDATA?BYTE
      00010E9EH   XDATA    BYTE      ?QSPI_READ_INSTR_SADDR24_DUMMY_SDATA?BYTE
      00010FA2H   XDATA    BYTE      ?QSPI_READ_INSTR_SADDR24_SDATA?BYTE
      00010F2EH   XDATA    BYTE      ?QSPI_READ_INSTR_SADDR32_DUMMY_DDATA?BYTE
      00010F46H   XDATA    BYTE      ?QSPI_READ_INSTR_SADDR32_DUMMY_QDATA?BYTE
      00010EB6H   XDATA    BYTE      ?QSPI_READ_INSTR_SADDR32_DUMMY_SDATA?BYTE
      00010FB8H   XDATA    BYTE      ?QSPI_READ_INSTR_SADDR32_SDATA?BYTE
      00010F5EH   XDATA    BYTE      ?QSPI_READ_QINSTR_QADDR24_DUMMY_QDATA?BYTE
      00010DACH   XDATA    BYTE      ?QSPI_READ_QINSTR_QADDR24_QALT8_DUMMY_QDATA?BYTE
      00011026H   XDATA    BYTE      ?QSPI_READ_QINSTR_QADDR24_QDATA?BYTE
      00010FE4H   XDATA    BYTE      ?QSPI_WRITE_INSTR_SADDR24_QDATA?BYTE
      00010FCEH   XDATA    BYTE      ?QSPI_WRITE_INSTR_SADDR24_SDATA?BYTE
      00011010H   XDATA    BYTE      ?QSPI_WRITE_INSTR_SADDR32_QDATA?BYTE
      00010FFAH   XDATA    BYTE      ?QSPI_WRITE_INSTR_SADDR32_SDATA?BYTE
      00010D5EH   XDATA    BYTE      ?soft_iic_init?BYTE
      00010DEAH   XDATA    BYTE      ?soft_iic_read_16bit_array?BYTE
      00010CFFH   XDATA    BYTE      ?soft_iic_read_16bit_registers?BYTE
      00010DDEH   XDATA    BYTE      ?soft_iic_read_8bit_array?BYTE
      00010D51H   XDATA    BYTE      ?soft_iic_read_8bit_registers?BYTE
      00010C36H   XDATA    BYTE      ?soft_iic_transfer_16bit_array?BYTE
L251 LINKER/LOCATER V4.66.93.0                                                        05/05/2025  21:49:10  PAGE 27


      00010C22H   XDATA    BYTE      ?soft_iic_transfer_8bit_array?BYTE
      00010DD2H   XDATA    BYTE      ?soft_iic_write_16bit_array?BYTE
      00010CF1H   XDATA    BYTE      ?soft_iic_write_16bit_registers?BYTE
      00010DC6H   XDATA    BYTE      ?soft_iic_write_8bit_array?BYTE
      00010D44H   XDATA    BYTE      ?soft_iic_write_8bit_registers?BYTE
      00010C4AH   XDATA    BYTE      ?spi_init?BYTE
      0001114CH   XDATA    BYTE      ?spi_read_16bit_array?BYTE
      00010E02H   XDATA    BYTE      ?spi_read_16bit_registers?BYTE
      00011142H   XDATA    BYTE      ?spi_read_8bit_array?BYTE
      00010F8CH   XDATA    BYTE      ?spi_read_8bit_registers?BYTE
      00010D1BH   XDATA    BYTE      ?spi_transfer_16bit?BYTE
      00010D0DH   XDATA    BYTE      ?spi_transfer_8bit?BYTE
      00011138H   XDATA    BYTE      ?spi_write_16bit_array?BYTE
      00010DF6H   XDATA    BYTE      ?spi_write_16bit_registers?BYTE
      0001112EH   XDATA    BYTE      ?spi_write_8bit_array?BYTE
      00010F81H   XDATA    BYTE      ?spi_write_8bit_registers?BYTE
      00010A77H   XDATA    ---       ?sprintf?BYTE
      00010E26H   XDATA    BYTE      ?uart_init?BYTE
      0001117EH   XDATA    BYTE      ?W25Q_DMA_FastRead_0B?BYTE
      0001119CH   XDATA    BYTE      ?W25Q_DMA_FastRead_3B?BYTE
      000111B0H   XDATA    BYTE      ?W25Q_DMA_FastRead_6B?BYTE
      00011192H   XDATA    BYTE      ?W25Q_DMA_FastRead_Addr32_0C?BYTE
      000111A6H   XDATA    BYTE      ?W25Q_DMA_FastRead_Addr32_3C?BYTE
      000111BAH   XDATA    BYTE      ?W25Q_DMA_FastRead_Addr32_6C?BYTE
      000111CEH   XDATA    BYTE      ?W25Q_DMA_FastRead_Addr32_BC?BYTE
      000111ECH   XDATA    BYTE      ?W25Q_DMA_FastRead_Addr32_EC?BYTE
      000111C4H   XDATA    BYTE      ?W25Q_DMA_FastRead_BB?BYTE
      000111D8H   XDATA    BYTE      ?W25Q_DMA_FastRead_EB?BYTE
      00011200H   XDATA    BYTE      ?W25Q_DMA_OctalWordRead_E3?BYTE
      0001120AH   XDATA    BYTE      ?W25Q_DMA_PageProgram_02?BYTE
      0001121EH   XDATA    BYTE      ?W25Q_DMA_PageProgram_32?BYTE
      00011214H   XDATA    BYTE      ?W25Q_DMA_PageProgram_Addr32_12?BYTE
      00011228H   XDATA    BYTE      ?W25Q_DMA_PageProgram_Addr32_34?BYTE
      0001116AH   XDATA    BYTE      ?W25Q_DMA_ReadData_03?BYTE
      00011174H   XDATA    BYTE      ?W25Q_DMA_ReadData_Addr32_13?BYTE
      000111F6H   XDATA    BYTE      ?W25Q_DMA_WordRead_E7?BYTE
      00000020H.6 BIT      BIT       ?W25Q_Erase32K_52?BIT
      00000020H.3 BIT      BIT       ?W25Q_Erase4K_20?BIT
      00000020H.5 BIT      BIT       ?W25Q_Erase4K_Addr32_21?BIT
      00000021H.2 BIT      BIT       ?W25Q_Erase64K_Addr32_DC?BIT
      00000021H.0 BIT      BIT       ?W25Q_Erase64K_D8?BIT
      00000021H.3 BIT      BIT       ?W25Q_EraseChip_C7?BIT
      00011047H   XDATA    BYTE      ?W25Q_FastRead_0B?BYTE
      00011068H   XDATA    BYTE      ?W25Q_FastRead_3B?BYTE
      0001107EH   XDATA    BYTE      ?W25Q_FastRead_6B?BYTE
      0001105DH   XDATA    BYTE      ?W25Q_FastRead_Addr32_0C?BYTE
      00011073H   XDATA    BYTE      ?W25Q_FastRead_Addr32_3C?BYTE
      00011089H   XDATA    BYTE      ?W25Q_FastRead_Addr32_6C?BYTE
      0001109FH   XDATA    BYTE      ?W25Q_FastRead_Addr32_BC?BYTE
      000110C0H   XDATA    BYTE      ?W25Q_FastRead_Addr32_EC?BYTE
      00011094H   XDATA    BYTE      ?W25Q_FastRead_BB?BYTE
      000110AAH   XDATA    BYTE      ?W25Q_FastRead_EB?BYTE
      000110D6H   XDATA    BYTE      ?W25Q_OctalWordRead_E3?BYTE
      000110E1H   XDATA    BYTE      ?W25Q_PageProgram_02?BYTE
      000110F7H   XDATA    BYTE      ?W25Q_PageProgram_32?BYTE
      000110ECH   XDATA    BYTE      ?W25Q_PageProgram_Addr32_12?BYTE
      00011102H   XDATA    BYTE      ?W25Q_PageProgram_Addr32_34?BYTE
      0001110DH   XDATA    BYTE      ?W25Q_ProgramSecurityReg_42?BYTE
      00011123H   XDATA    BYTE      ?W25Q_QPI_BurstReadWithWrap_0C?BYTE
      00011188H   XDATA    BYTE      ?W25Q_QPI_DMA_FastRead_0B?BYTE
      000111E2H   XDATA    BYTE      ?W25Q_QPI_DMA_FastRead_EB?BYTE
      00000020H.7 BIT      BIT       ?W25Q_QPI_Erase32K_52?BIT
      00000020H.4 BIT      BIT       ?W25Q_QPI_Erase4K_20?BIT
      00000021H.1 BIT      BIT       ?W25Q_QPI_Erase64K_D8?BIT
      00000021H.4 BIT      BIT       ?W25Q_QPI_EraseChip_C7?BIT
L251 LINKER/LOCATER V4.66.93.0                                                        05/05/2025  21:49:10  PAGE 28


      00011052H   XDATA    BYTE      ?W25Q_QPI_FastRead_0B?BYTE
      000110B5H   XDATA    BYTE      ?W25Q_QPI_FastRead_EB?BYTE
      00011031H   XDATA    BYTE      ?W25Q_ReadData_03?BYTE
      0001103CH   XDATA    BYTE      ?W25Q_ReadData_Addr32_13?BYTE
      00011118H   XDATA    BYTE      ?W25Q_ReadSecurityReg_48?BYTE
      000110CBH   XDATA    BYTE      ?W25Q_WordRead_E7?BYTE
      000106C1H   XDATA    BYTE      ?zf_sprintf?BYTE
      00FF2B5AH   CODE     ---       _chkdouble_?_
*SFR* 000000D0H.6 DATA     BIT       AC
*SFR* 000000E0H   DATA     BYTE      ACC
*SFR* 000000BCH   DATA     BYTE      ADC_CONTR
*DEL*:00000000H   CODE     ---       adc_convert
*DEL*:00000000H   CODE     ---       adc_init
*DEL*:00000000H   CODE     ---       adc_mean_filter_convert
*SFR* 000000BDH   DATA     BYTE      ADC_RES
*SFR* 000000BEH   DATA     BYTE      ADC_RESL
*SFR* 000000DEH   DATA     BYTE      ADCCFG
      0001051EH   XDATA    FLOAT     angle_error
      00010522H   XDATA    FLOAT     angle_IMAX
      00010576H   XDATA    FLOAT     angle_KD
      000104DAH   XDATA    FLOAT     angle_KI
      000104E6H   XDATA    FLOAT     angle_KP
      0001055EH   XDATA    FLOAT     angle_OUTMAX
      00010526H   XDATA    ---       angle_pid
      00FFBAD9H   CODE     ---       Angle_Pid_fun
      00010572H   XDATA    FLOAT     angle_target
      00FF4880H   CODE     ---       ascii_font_6x8
      00FF2ACBH   CODE     ---       asin?_
      00FF29B0H   CODE     ---       atan?_
*SFR* 000000EFH   DATA     BYTE      AUXINTIF
*SFR* 0000008EH   DATA     BYTE      AUXR
*SFR* 00000097H   DATA     BYTE      AUXR2
*SFR* 000000F0H   DATA     BYTE      B
      00FFE2DAH   CODE     ---       ble6a20_callback
      00FFD670H   CODE     ---       ble6a20_init
      00FFDA88H   CODE     ---       ble6a20_read_buffer
*DEL*:00000000H   CODE     ---       ble6a20_send_buffer
      00FFDDBDH   CODE     ---       ble6a20_send_byte
      00FFB4A6H   CODE     ---       ble6a20_send_string
      00FFDCBAH   CODE     ---       blue_tooth_read
*DEL*:00000000H   CODE     ---       blue_tooth_read_loop
*SFR* 000000C8H.1 DATA     BIT       C_T2
*SFR* 000000FAH   DATA     BYTE      CCAP0H
*SFR* 000000EAH   DATA     BYTE      CCAP0L
*SFR* 000000FBH   DATA     BYTE      CCAP1H
*SFR* 000000EBH   DATA     BYTE      CCAP1L
*SFR* 000000FCH   DATA     BYTE      CCAP2H
*SFR* 000000ECH   DATA     BYTE      CCAP2L
*SFR* 000000FDH   DATA     BYTE      CCAP3H
*SFR* 000000EDH   DATA     BYTE      CCAP3L
*SFR* 000000FEH   DATA     BYTE      CCAP4H
*SFR* 000000EEH   DATA     BYTE      CCAP4L
*SFR* 000000DAH   DATA     BYTE      CCAPM0
*SFR* 000000DBH   DATA     BYTE      CCAPM1
*SFR* 000000DCH   DATA     BYTE      CCAPM2
*SFR* 000000DDH   DATA     BYTE      CCAPM3
*SFR* 000000DEH   DATA     BYTE      CCAPM4
*SFR* 000000D8H.0 DATA     BIT       CCF0
*SFR* 000000D8H.1 DATA     BIT       CCF1
*SFR* 000000D8H.2 DATA     BIT       CCF2
*SFR* 000000D8H.3 DATA     BIT       CCF3
*SFR* 000000D8H.4 DATA     BIT       CCF4
*SFR* 000000D8H   DATA     BYTE      CCON
*SFR* 00000090H.3 DATA     BIT       CEX0
*SFR* 00000090H.4 DATA     BIT       CEX1
L251 LINKER/LOCATER V4.66.93.0                                                        05/05/2025  21:49:10  PAGE 29


*SFR* 00000090H.5 DATA     BIT       CEX2
*SFR* 00000090H.6 DATA     BIT       CEX3
*SFR* 00000090H.7 DATA     BIT       CEX4
*SFR* 000000D8H.7 DATA     BIT       CF
*SFR* 000000F9H   DATA     BYTE      CH
*SFR* 000000EAH   DATA     BYTE      CKCON
*SFR* 000000E9H   DATA     BYTE      CL
      00FFC581H   CODE     ---       clock_init
*SFR* 000000D9H   DATA     BYTE      CMOD
*SFR* 000000E6H   DATA     BYTE      CMPCR1
*SFR* 000000E7H   DATA     BYTE      CMPCR2
      00FFD9BCH   CODE     ---       constrain_float
*DEL*:00000000H   CODE     ---       constrain_short
      00FFDE65H   CODE     ---       constrain_uint32
      00FF2818H   CODE     ---       cos?_
*SFR* 000000C8H.0 DATA     BIT       CP_RL2
*SFR* 000000D8H.6 DATA     BIT       CR
*SFR* 00000090H.4 DATA     BIT       CS
*SFR* 000000D0H.7 DATA     BIT       CY
      000108A8H   XDATA    ---       data_buffer
      000108A7H   XDATA    BYTE      data_len
      00FFCE79H   CODE     ---       debug_init
      00FFE0BCH   CODE     ---       debug_interrupr_handler
*DEL*:00000000H   CODE     ---       debug_read_buffer
*DEL*:00000000H   CODE     ---       debug_send_buffer
      0001075CH   XDATA    ---       debug_uart_buffer
      0001079DH   XDATA    ---       debug_uart_fifo
      00FFCDD4H   CODE     ---       DMA_UART1_IRQHandler
      00FFD44DH   CODE     ---       DMA_UART2_IRQHandler
      00FFD4D6H   CODE     ---       DMA_UART3_IRQHandler
      00FFD55FH   CODE     ---       DMA_UART4_IRQHandler
*SFR* 00000083H   DATA     BYTE      DPH
*SFR* 00000082H   DATA     BYTE      DPL
*SFR* 00000084H   DATA     BYTE      DPXL
      00010CBFH   XDATA    ---       duty
      00010CBDH   XDATA    INT       duty_forward_left
      00010CBBH   XDATA    INT       duty_forward_right
      00010CB9H   XDATA    INT       duty_up_left
      00010CB7H   XDATA    INT       duty_up_right
*SFR* 000000A8H.7 DATA     BIT       EA
*SFR* 000000A8H.6 DATA     BIT       EC
*SFR* 00000090H.2 DATA     BIT       ECI
*DEL*:00000000H   CODE     ---       encoder_clear_count
*DEL*:00000000H   CODE     ---       encoder_dir_init
*DEL*:00000000H   CODE     ---       encoder_get_count
*SFR* 000000A8H.4 DATA     BIT       ES
*SFR* 000000A8H.1 DATA     BIT       ET0
*SFR* 000000A8H.3 DATA     BIT       ET1
*SFR* 000000A8H.5 DATA     BIT       ET2
      00FFEA14H   HCONST   ---       Event_Emergency
      00FFEA20H   HCONST   ---       Event_Finish
      00FFEA2CH   HCONST   ---       Event_Restart
*SFR* 000000A8H.0 DATA     BIT       EX0
*SFR* 000000A8H.2 DATA     BIT       EX1
*SFR* 000000C8H.3 DATA     BIT       EXEN2
*SFR* 000000C8H.6 DATA     BIT       EXF2
      00FF30BAH   CODE     ---       exp?_
*SFR* 000000D0H.5 DATA     BIT       F0
*SFR* 00000098H.7 DATA     BIT       FE
      00FFB5E9H   CODE     ---       fifo_clear
      00FFCBCCH   CODE     ---       fifo_init
      00FF6E97H   CODE     ---       fifo_read_buffer
      00FFE1D2H   CODE     ---       fifo_used
      00FF695CH   CODE     ---       fifo_write_buffer
      00FFCF17H   CODE     ---       FOCF
L251 LINKER/LOCATER V4.66.93.0                                                        05/05/2025  21:49:10  PAGE 30


*DEL*:00000000H   CODE     ---       func_double_to_str
*DEL*:00000000H   CODE     ---       func_float_to_str
*DEL*:00000000H   CODE     ---       func_get_greatest_common_divisor
*DEL*:00000000H   CODE     ---       func_hex_to_str
*DEL*:00000000H   CODE     ---       func_int_to_str
*DEL*:00000000H   CODE     ---       func_soft_delay
      00FF835CH   CODE     ---       func_str_to_double
*DEL*:00000000H   CODE     ---       func_str_to_float
      00FF9F0FH   CODE     ---       func_str_to_hex
      00FFBF71H   CODE     ---       func_str_to_int
*DEL*:00000000H   CODE     ---       func_str_to_uint
*DEL*:00000000H   CODE     ---       func_uint_to_str
      00FF6400H   CODE     ---       get_two_points_azimuth
      00FF7CF7H   CODE     ---       get_two_points_distance
      00FF5E89H   CODE     ---       GetEuler
      00FFC18EH   CODE     ---       gpio_get_level
      00FFC756H   CODE     ---       gpio_init
      00FFAF00H   CODE     ---       gpio_set_impedance
      00FFA413H   CODE     ---       gpio_set_level
      00FF8646H   CODE     ---       gpio_set_level_speed
*DEL*:00000000H   CODE     ---       gpio_toggle_level
      00FF9956H   CODE     ---       gps_data_parse
      00000020H.0 BIT      BIT       gps_date_ready
      000103CEH   XDATA    INT       gps_gga_state
      00FF8BA4H   CODE     ---       gps_init
      000103D0H   XDATA    INT       gps_rmc_state
      0001029AH   XDATA    ---       gps_tau1201
      00010219H   XDATA    BYTE      gps_tau1201_flag
      000112CCH   XDATA    INT       gps_type
      00FFABFDH   CODE     ---       gps_uart_callback
*SFR* 00000090H.2 DATA     BIT       HLD_IO3
*SFR* 000000C7H   DATA     BYTE      IAP_CONTR
*SFR* 000000A8H   DATA     BYTE      IE
*SFR* 000000A8H   DATA     BYTE      IE0
*SFR* 00000088H.1 DATA     BIT       IE0_
*SFR* 000000B1H   DATA     BYTE      IE1
*SFR* 00000088H.3 DATA     BIT       IE1_
*SFR* 000000AFH   DATA     BYTE      IE2
      00010ABCH   XDATA    INT       imu660ra_acc_x
      00010ABEH   XDATA    INT       imu660ra_acc_y
      00010AC0H   XDATA    INT       imu660ra_acc_z
      00FF021EH   CODE     ---       imu660ra_config_file
      00FFD7F2H   CODE     ---       imu660ra_get_acc
      00FFD77AH   CODE     ---       imu660ra_get_gyro
      00010AC2H   XDATA    INT       imu660ra_gyro_x
      00010AC4H   XDATA    INT       imu660ra_gyro_y
      00010AC6H   XDATA    INT       imu660ra_gyro_z
      00FF9500H   CODE     ---       imu660ra_init
      00010AC8H   XDATA    ---       imu660ra_transition_factor
      000107E9H   XDATA    ---       imu_acc
      00010AD0H   XDATA    INT       imu_acc_x_pre
      00010AD2H   XDATA    INT       imu_acc_y_pre
      00010AD4H   XDATA    INT       imu_acc_z_pre
      00010801H   XDATA    ---       imu_gyro
      00010AD6H   XDATA    INT       imu_gyro_x_pre
      00010AD8H   XDATA    INT       imu_gyro_y_pre
      00010ADAH   XDATA    INT       imu_gyro_z_pre
      00FFDD12H   CODE     ---       init
      00000020H.1 BIT      BIT       init_yaw_lock
*SFR* 000000B0H.2 DATA     BIT       INT0
      00010AE8H   XDATA    ---       int0_irq_handler
*SFR* 000000B0H.3 DATA     BIT       INT1
      00010AECH   XDATA    ---       int1_irq_handler
      00010AF0H   XDATA    ---       int2_irq_handler
      00010AF4H   XDATA    ---       int3_irq_handler
L251 LINKER/LOCATER V4.66.93.0                                                        05/05/2025  21:49:10  PAGE 31


      00010AF8H   XDATA    ---       int4_irq_handler
*SFR* 0000008FH   DATA     BYTE      INTCLKO
      000107F5H   XDATA    FLOAT     integralFBx
      000107F9H   XDATA    FLOAT     integralFBy
      000107FDH   XDATA    FLOAT     integralFBz
*DEL*:00000000H   CODE     ---       interrupt_global_disable
      00FF001EH   CODE     ---       interrupt_global_enable
*DEL*:00000000H   CODE     ---       interrupt_set_priority
*SFR* 000000B8H   DATA     BYTE      IP
*SFR* 000000B5H   DATA     BYTE      IP2
*SFR* 000000B6H   DATA     BYTE      IP2H
*SFR* 000000DFH   DATA     BYTE      IP3
*SFR* 000000EEH   DATA     BYTE      IP3H
*SFR* 000000B7H   DATA     BYTE      IPH
*SFR* 000000B7H   DATA     BYTE      IPH0
*SFR* 000000B8H   DATA     BYTE      IPL0
      000112B0H   XDATA    WORD      ips114_bgcolor
      00FFD8DFH   CODE     ---       ips114_clear
      000112B2H   XDATA    INT       ips114_display_dir
*DEL*:00000000H   CODE     ---       ips114_draw_point
      00FF92C8H   CODE     ---       ips114_init
      000112AEH   XDATA    WORD      ips114_pencolor
      00FF0066H   CODE     ---       ips114_set_color
      00FFE0F5H   CODE     ---       ips114_set_dir
      00FFC8ECH   CODE     ---       ips114_show_char
*DEL*:00000000H   CODE     ---       ips114_show_chinese
      00FFA269H   CODE     ---       ips114_show_float
      00FF9737H   CODE     ---       IPS114_Show_Info
*DEL*:00000000H   CODE     ---       ips114_show_int16
*DEL*:00000000H   CODE     ---       ips114_show_int32
*DEL*:00000000H   CODE     ---       ips114_show_int8
      00FFD86AH   CODE     ---       ips114_show_string
*DEL*:00000000H   CODE     ---       ips114_show_uint16
      00FFD20CH   CODE     ---       ips114_show_uint8
      00FFBE57H   CODE     ---       IPS114_Show_Unit
*DEL*:00000000H   CODE     ---       ips114_show_wave
      000112B4H   XDATA    BYTE      ips114_x_max
      000112B5H   XDATA    BYTE      ips114_y_max
*SFR* 0000009DH   DATA     BYTE      IRCBAND
*SFR* 00000088H.0 DATA     BIT       IT0
*SFR* 00000088H.2 DATA     BIT       IT1
      00FF31A3H   CODE     NEAR LAB  log?_
      00FF4AA8H   CODE     ---       MAIN
      00FFE300H   CODE     ---       memcpy?_
      00FF00A6H   CODE     ---       memset?_
      00FFB1E0H   CODE     ---       my_atan2
      00FF00C6H   CODE     ---       My_Pid_Init
      00FFD3C1H   CODE     ---       my_pit_init
      00FFDBA6H   CODE     ---       my_pwm_init
      00010A21H   XDATA    ---       Object_one_index
      00010A0AH   XDATA    ---       origin_point
*SFR* 000000D0H.2 DATA     BIT       OV
*SFR* 000000D0H.0 DATA     BIT       P
*SFR* 00000080H   DATA     BYTE      P0
*SFR* 00000094H   DATA     BYTE      P0M0
*SFR* 00000093H   DATA     BYTE      P0M1
*SFR* 00000090H   DATA     BYTE      P1
*SFR* 00000092H   DATA     BYTE      P1M0
*SFR* 00000091H   DATA     BYTE      P1M1
*SFR* 000000A0H   DATA     BYTE      P2
*SFR* 000000A0H.0 DATA     BIT       P20
*SFR* 000000A0H.1 DATA     BIT       P21
*SFR* 000000A0H.2 DATA     BIT       P22
*SFR* 00000096H   DATA     BYTE      P2M0
*SFR* 00000095H   DATA     BYTE      P2M1
L251 LINKER/LOCATER V4.66.93.0                                                        05/05/2025  21:49:10  PAGE 32


*SFR* 000000B0H   DATA     BYTE      P3
*SFR* 000000B2H   DATA     BYTE      P3M0
*SFR* 000000B1H   DATA     BYTE      P3M1
*SFR* 000000C0H   DATA     BYTE      P4
*SFR* 000000B4H   DATA     BYTE      P4M0
*SFR* 000000B3H   DATA     BYTE      P4M1
*SFR* 000000C8H   DATA     BYTE      P5
*SFR* 000000CAH   DATA     BYTE      P5M0
*SFR* 000000C9H   DATA     BYTE      P5M1
*SFR* 000000E8H   DATA     BYTE      P6
*SFR* 000000CCH   DATA     BYTE      P6M0
*SFR* 000000CBH   DATA     BYTE      P6M1
*SFR* 000000F8H   DATA     BYTE      P7
*SFR* 000000E2H   DATA     BYTE      P7M0
*SFR* 000000E1H   DATA     BYTE      P7M1
*SFR* 000000A2H   DATA     BYTE      P_SW1
*SFR* 000000BAH   DATA     BYTE      P_SW2
*SFR* 000000BBH   DATA     BYTE      P_SW3
*SFR* 000000BFH   DATA     BYTE      P_SW4
*SFR* 00000087H   DATA     BYTE      PCON
      00000020H.2 BIT      BIT       pid_enable
      00010A1EH   XDATA    ---       PID_param_index
      00FFB729H   CODE     ---       Pid_Param_Init
*DEL*:00000000H   CODE     ---       PidIncCtrl
      00FF9085H   CODE     ---       PidLocCtrl
      00FFC085H   CODE     ---       pit_hanlder_angle
      00FF0026H   CODE     ---       pit_hanlder_GPS
      00FF9D32H   CODE     ---       pit_hanlder_imu
      00FF8069H   CODE     ---       pit_init
      000107B5H   XDATA    FLOAT     pitch
      00010A1AH   XDATA    ---       pObject
      00FFA5BCH   CODE     ---       pow?_
*SFR* 000000B8H.6 DATA     BIT       PPC
      00011436H   XDATA    INT       preState
      00FF2678H   CODE     NEAR LAB  printf
*SFR* 000000B8H.4 DATA     BIT       PS
*SFR* 000000D0H   DATA     BYTE      PSW
*SFR* 000000D1H   DATA     BYTE      PSW1
*SFR* 000000B8H.1 DATA     BIT       PT0
*SFR* 000000B8H.3 DATA     BIT       PT1
*SFR* 000000B8H.5 DATA     BIT       PT2
      00FFE403H   CODE     ---       putchar
      00FFE9A9H   HCONST   ---       PWM_ARR_ADDR
      00FFE9B1H   HCONST   ---       PWM_CCER_ADDR
      00FFE9C1H   HCONST   ---       PWM_CCMR_ADDR
      00FFE989H   HCONST   ---       PWM_CCR_ADDR
      00FF58F9H   CODE     ---       pwm_init
      00FFE981H   HCONST   ---       PWM_PSCR_ADDR
      00FFA8F0H   CODE     ---       pwm_set_duty
*DEL*:00000000H   CODE     ---       pwm_set_freq
*SFR* 000000B8H.0 DATA     BIT       PX0
*SFR* 000000B8H.2 DATA     BIT       PX1
      000107B9H   XDATA    FLOAT     q0
      000107BDH   XDATA    FLOAT     q1
      000107C1H   XDATA    FLOAT     q2
      000107C5H   XDATA    FLOAT     q3
*DEL*:00000000H   CODE     ---       QSPI_DMA_READ
*DEL*:00000000H   CODE     ---       QSPI_DMA_READ_INSTR_DADDR24_DALT8_DDATA
*DEL*:00000000H   CODE     ---       QSPI_DMA_READ_INSTR_DADDR32_DALT8_DDATA
*DEL*:00000000H   CODE     ---       QSPI_DMA_READ_INSTR_QADDR24_QALT8_DUMMY_QDATA
*DEL*:00000000H   CODE     ---       QSPI_DMA_READ_INSTR_QADDR32_QALT8_DUMMY_QDATA
*DEL*:00000000H   CODE     ---       QSPI_DMA_READ_INSTR_SADDR24_DUMMY_DDATA
*DEL*:00000000H   CODE     ---       QSPI_DMA_READ_INSTR_SADDR24_DUMMY_QDATA
*DEL*:00000000H   CODE     ---       QSPI_DMA_READ_INSTR_SADDR24_DUMMY_SDATA
*DEL*:00000000H   CODE     ---       QSPI_DMA_READ_INSTR_SADDR24_SDATA
L251 LINKER/LOCATER V4.66.93.0                                                        05/05/2025  21:49:10  PAGE 33


*DEL*:00000000H   CODE     ---       QSPI_DMA_READ_INSTR_SADDR32_DUMMY_DDATA
*DEL*:00000000H   CODE     ---       QSPI_DMA_READ_INSTR_SADDR32_DUMMY_QDATA
*DEL*:00000000H   CODE     ---       QSPI_DMA_READ_INSTR_SADDR32_DUMMY_SDATA
*DEL*:00000000H   CODE     ---       QSPI_DMA_READ_INSTR_SADDR32_SDATA
*DEL*:00000000H   CODE     ---       QSPI_DMA_READ_QINSTR_QADDR24_DUMMY_QDATA
*DEL*:00000000H   CODE     ---       QSPI_DMA_READ_QINSTR_QADDR24_QALT8_DUMMY_QDATA
*DEL*:00000000H   CODE     ---       QSPI_DMA_WRITE
*DEL*:00000000H   CODE     ---       QSPI_DMA_WRITE_INSTR_SADDR24_QDATA
*DEL*:00000000H   CODE     ---       QSPI_DMA_WRITE_INSTR_SADDR24_SDATA
*DEL*:00000000H   CODE     ---       QSPI_DMA_WRITE_INSTR_SADDR32_QDATA
*DEL*:00000000H   CODE     ---       QSPI_DMA_WRITE_INSTR_SADDR32_SDATA
      00FFC66DH   CODE     ---       QSPI_Init
*DEL*:00000000H   CODE     ---       QSPI_POLLING_READ_INSTR_SDATA
*DEL*:00000000H   CODE     ---       QSPI_POLLING_READ_QINSTR_QDATA
*DEL*:00000000H   CODE     ---       QSPI_READ_INSTR_DADDR24_DALT8_DDATA
*DEL*:00000000H   CODE     ---       QSPI_READ_INSTR_DADDR32_DALT8_DDATA
*DEL*:00000000H   CODE     ---       QSPI_READ_INSTR_QADDR24_QALT8_DUMMY_QDATA
*DEL*:00000000H   CODE     ---       QSPI_READ_INSTR_QADDR32_QALT8_DUMMY_QDATA
*DEL*:00000000H   CODE     ---       QSPI_READ_INSTR_SADDR24_DUMMY_DDATA
      00FF9B48H   CODE     ---       QSPI_READ_INSTR_SADDR24_DUMMY_QDATA
*DEL*:00000000H   CODE     ---       QSPI_READ_INSTR_SADDR24_DUMMY_SDATA
*DEL*:00000000H   CODE     ---       QSPI_READ_INSTR_SADDR24_SDATA
*DEL*:00000000H   CODE     ---       QSPI_READ_INSTR_SADDR32_DUMMY_DDATA
*DEL*:00000000H   CODE     ---       QSPI_READ_INSTR_SADDR32_DUMMY_QDATA
*DEL*:00000000H   CODE     ---       QSPI_READ_INSTR_SADDR32_DUMMY_SDATA
*DEL*:00000000H   CODE     ---       QSPI_READ_INSTR_SADDR32_SDATA
      00FFB346H   CODE     ---       QSPI_READ_INSTR_SDATA
*DEL*:00000000H   CODE     ---       QSPI_READ_QINSTR_QADDR24_DUMMY_QDATA
*DEL*:00000000H   CODE     ---       QSPI_READ_QINSTR_QADDR24_QALT8_DUMMY_QDATA
*DEL*:00000000H   CODE     ---       QSPI_READ_QINSTR_QADDR24_QDATA
*DEL*:00000000H   CODE     ---       QSPI_READ_QINSTR_QDATA
      00FFCC7DH   CODE     ---       QSPI_WRITE_INSTR
*DEL*:00000000H   CODE     ---       QSPI_WRITE_INSTR_QADDR32
      00FFBC09H   CODE     ---       QSPI_WRITE_INSTR_SADDR16
      00FFB9A2H   CODE     ---       QSPI_WRITE_INSTR_SADDR24
      00FFA0BCH   CODE     ---       QSPI_WRITE_INSTR_SADDR24_QDATA
*DEL*:00000000H   CODE     ---       QSPI_WRITE_INSTR_SADDR24_SDATA
*DEL*:00000000H   CODE     ---       QSPI_WRITE_INSTR_SADDR32
*DEL*:00000000H   CODE     ---       QSPI_WRITE_INSTR_SADDR32_QDATA
*DEL*:00000000H   CODE     ---       QSPI_WRITE_INSTR_SADDR32_SDATA
      00FFBD32H   CODE     ---       QSPI_WRITE_INSTR_SADDR8
*DEL*:00000000H   CODE     ---       QSPI_WRITE_QINSTR
*DEL*:00000000H   CODE     ---       QSPI_WRITE_QINSTR_QADDR24
*DEL*:00000000H   CODE     ---       QSPI_WRITE_QINSTR_QADDR8
*SFR* 00000098H.2 DATA     BIT       RB8
*SFR* 000000CBH   DATA     BYTE      RCAP2H
*SFR* 000000CAH   DATA     BYTE      RCAP2L
*SFR* 000000C8H.5 DATA     BIT       RCLK
*SFR* 000000B0H.7 DATA     BIT       RD
      00FFE325H   CODE     ---       ReadPoint
*SFR* 00000098H.4 DATA     BIT       REN
*SFR* 00000098H.0 DATA     BIT       RI
      000107C9H   XDATA    FLOAT     roll
*SFR* 000000D0H.3 DATA     BIT       RS0
*SFR* 000000D0H.4 DATA     BIT       RS1
*SFR* 000000FFH   DATA     BYTE      RSTCFG
*SFR* 000000B0H.0 DATA     BIT       RXD
*SFR* 0000009BH   DATA     BYTE      S2BUF
*SFR* 0000009AH   DATA     BYTE      S2CON
*SFR* 0000009AH.1 DATA     BIT       S2TI
*SFR* 000000ACH   DATA     BYTE      S3CON
*SFR* 000000FDH   DATA     BYTE      S4CON
*SFR* 000000A9H   DATA     BYTE      SADDR
*SFR* 000000B9H   DATA     BYTE      SADEN
*SFR* 00000099H   DATA     BYTE      SBUF
L251 LINKER/LOCATER V4.66.93.0                                                        05/05/2025  21:49:10  PAGE 34


*SFR* 00000090H.7 DATA     BIT       SCK
*SFR* 00000098H   DATA     BYTE      SCON
*SFR* 00000090H.5 DATA     BIT       SDI_IO0
*SFR* 00000090H.6 DATA     BIT       SDO_IO1
      00FFD0DEH   CODE     ---       set_gps_type
*DEL*:00000000H   CODE     ---       set_tof_type
      00FFD175H   CODE     ---       set_wireless_type
      00FF2839H   CODE     ---       sin?_
*SFR* 00000098H.7 DATA     BIT       SM0
*SFR* 00000098H.6 DATA     BIT       SM1
*SFR* 00000098H.5 DATA     BIT       SM2
*DEL*:00000000H   CODE     ---       soft_iic_delay
*DEL*:00000000H   CODE     ---       soft_iic_init
*DEL*:00000000H   CODE     ---       soft_iic_read_16bit
*DEL*:00000000H   CODE     ---       soft_iic_read_16bit_array
*DEL*:00000000H   CODE     ---       soft_iic_read_16bit_register
*DEL*:00000000H   CODE     ---       soft_iic_read_16bit_registers
*DEL*:00000000H   CODE     ---       soft_iic_read_8bit
*DEL*:00000000H   CODE     ---       soft_iic_read_8bit_array
*DEL*:00000000H   CODE     ---       soft_iic_read_8bit_register
*DEL*:00000000H   CODE     ---       soft_iic_read_8bit_registers
*DEL*:00000000H   CODE     ---       soft_iic_read_data
*DEL*:00000000H   CODE     ---       soft_iic_sccb_read_register
*DEL*:00000000H   CODE     ---       soft_iic_sccb_write_register
*DEL*:00000000H   CODE     ---       soft_iic_send_ack
*DEL*:00000000H   CODE     ---       soft_iic_send_data
*DEL*:00000000H   CODE     ---       soft_iic_start
*DEL*:00000000H   CODE     ---       soft_iic_stop
*DEL*:00000000H   CODE     ---       soft_iic_transfer_16bit_array
*DEL*:00000000H   CODE     ---       soft_iic_transfer_8bit_array
*DEL*:00000000H   CODE     ---       soft_iic_wait_ack
*DEL*:00000000H   CODE     ---       soft_iic_write_16bit
*DEL*:00000000H   CODE     ---       soft_iic_write_16bit_array
*DEL*:00000000H   CODE     ---       soft_iic_write_16bit_register
*DEL*:00000000H   CODE     ---       soft_iic_write_16bit_registers
*DEL*:00000000H   CODE     ---       soft_iic_write_8bit
*DEL*:00000000H   CODE     ---       soft_iic_write_8bit_array
*DEL*:00000000H   CODE     ---       soft_iic_write_8bit_register
*DEL*:00000000H   CODE     ---       soft_iic_write_8bit_registers
*SFR* 00000081H   DATA     BYTE      SP
*SFR* 000000CEH   DATA     BYTE      SPCTL
*SFR* 000000CFH   DATA     BYTE      SPDAT
*SFR* 000000BEH   DATA     BYTE      SPH
      00FF7880H   CODE     ---       spi_init
*DEL*:00000000H   CODE     ---       spi_read_16bit
*DEL*:00000000H   CODE     ---       spi_read_16bit_array
*DEL*:00000000H   CODE     ---       spi_read_16bit_register
*DEL*:00000000H   CODE     ---       spi_read_16bit_registers
*DEL*:00000000H   CODE     ---       spi_read_8bit
*DEL*:00000000H   CODE     ---       spi_read_8bit_array
*DEL*:00000000H   CODE     ---       spi_read_8bit_register
      00FFD952H   CODE     ---       spi_read_8bit_registers
      00FFDA25H   CODE     ---       spi_read_dat
*DEL*:00000000H   CODE     ---       spi_transfer_16bit
*DEL*:00000000H   CODE     ---       spi_transfer_8bit
      00FFE19DH   CODE     ---       spi_write_16bit
*DEL*:00000000H   CODE     ---       spi_write_16bit_array
*DEL*:00000000H   CODE     ---       spi_write_16bit_register
*DEL*:00000000H   CODE     ---       spi_write_16bit_registers
      00FFE3A8H   CODE     ---       spi_write_8bit
*DEL*:00000000H   CODE     ---       spi_write_8bit_array
      00FFE260H   CODE     ---       spi_write_8bit_register
      00FFDC03H   CODE     ---       spi_write_8bit_registers
      00FFDF02H   CODE     ---       spi_write_dat
      00FF26A4H   CODE     NEAR LAB  sprintf
L251 LINKER/LOCATER V4.66.93.0                                                        05/05/2025  21:49:10  PAGE 35


*SFR* 000000CDH   DATA     BYTE      SPSTAT
      00FF26CAH   CODE     ---       sqrt?_
      00011434H   XDATA    INT       State
      00FF01CEH   CODE     ---       StateUpdate
      00FFE389H   CODE     ---       strchr?_
      00FFE427H   CODE     ---       strlen?_
      00FFE166H   CODE     ---       strncmp?_
      00FFE203H   CODE     ---       strncpy?_
      000113CCH   XDATA    LONG      system_clock
      00FFDB49H   CODE     ---       system_delay_init
      00FFD5E8H   CODE     ---       system_delay_ms
*DEL*:00000000H   CODE     ---       system_delay_us
*SFR* 000000B0H.4 DATA     BIT       T0
*SFR* 000000B0H.5 DATA     BIT       T1
*SFR* 00000090H.0 DATA     BIT       T2
*SFR* 000000C8H   DATA     BYTE      T2CON
*SFR* 00000090H.1 DATA     BIT       T2EX
*SFR* 000000D6H   DATA     BYTE      T2H
*SFR* 000000D7H   DATA     BYTE      T2L
*SFR* 000000C9H   DATA     BYTE      T2MOD
*SFR* 000000D4H   DATA     BYTE      T3H
*SFR* 000000D5H   DATA     BYTE      T3L
*SFR* 000000D2H   DATA     BYTE      T4H
*SFR* 000000D3H   DATA     BYTE      T4L
*SFR* 000000DDH   DATA     BYTE      T4T3M
      00FF286EH   CODE     ---       TAN?_
      000109FAH   XDATA    ---       target_point
*SFR* 00000098H.3 DATA     BIT       TB8
*SFR* 000000C8H.4 DATA     BIT       TCLK
*SFR* 00000088H   DATA     BYTE      TCON
*SFR* 00000088H.5 DATA     BIT       TF0
*SFR* 00000088H.7 DATA     BIT       TF1
*SFR* 000000C8H.7 DATA     BIT       TF2
      00FF4290H   CODE     ---       tft_ascii
*SFR* 0000008CH   DATA     BYTE      TH0
*SFR* 0000008DH   DATA     BYTE      TH1
*SFR* 000000CDH   DATA     BYTE      TH2
*SFR* 00000098H.1 DATA     BIT       TI
      00010AE6H   XDATA    ---       tim0_irq_handler
      00010ADCH   XDATA    ---       tim11_irq_handler
      00010AEAH   XDATA    ---       tim1_irq_handler
      00010AEEH   XDATA    ---       tim2_irq_handler
      00010AF2H   XDATA    ---       tim3_irq_handler
      00010AF6H   XDATA    ---       tim4_irq_handler
*DEL*:00000000H   CODE     ---       timer_funciton_check
*SFR* 0000008AH   DATA     BYTE      TL0
*SFR* 0000008BH   DATA     BYTE      TL1
*SFR* 000000CCH   DATA     BYTE      TL2
      00FFDF49H   CODE     ---       TM0_IRQHandler
      00FFDEB7H   CODE     ---       TM11_IRQHandler
      00FFDF87H   CODE     ---       TM1_IRQHandler
      00FFDFC5H   CODE     ---       TM2_IRQHandler
      00FFE003H   CODE     ---       TM3_IRQHandler
      00FFE041H   CODE     ---       TM4_IRQHandler
*SFR* 00000089H   DATA     BYTE      TMOD
      000112C6H   XDATA    ---       tof_module_exti_handler
      000112CAH   XDATA    INT       tof_type
*SFR* 00000088H.4 DATA     BIT       TR0
*SFR* 00000088H.6 DATA     BIT       TR1
*SFR* 000000C8H.2 DATA     BIT       TR2
*DEL*:00000000H   CODE     ---       tsl1401_collect_pit_handler
      00010001H   XDATA    ---       tsl1401_data
      00010000H   XDATA    BYTE      tsl1401_finish_flag
*DEL*:00000000H   CODE     ---       tsl1401_init
*DEL*:00000000H   CODE     ---       tsl1401_send_data
L251 LINKER/LOCATER V4.66.93.0                                                        05/05/2025  21:49:10  PAGE 36


*SFR* 000000B0H.1 DATA     BIT       TXD
      00010ADEH   XDATA    ---       uart1_irq_handler
      00010AE0H   XDATA    ---       uart2_irq_handler
      00010AE2H   XDATA    ---       uart3_irq_handler
      00010AE4H   XDATA    ---       uart4_irq_handler
      00FFAA78H   CODE     ---       uart_dma_init
*DEL*:00000000H   CODE     ---       uart_funciton_check
      00FF8E34H   CODE     ---       uart_init
      00FFD332H   CODE     ---       uart_query_byte
*DEL*:00000000H   CODE     ---       uart_read_byte
      00010E22H   XDATA    ---       uart_rx_buff
      00FFDD68H   CODE     ---       uart_rx_interrupt
      00FFCB1AH   CODE     ---       uart_rx_start_buff
      00FFB869H   CODE     ---       uart_write_buffer
      00FFE369H   CODE     ---       uart_write_byte
*DEL*:00000000H   CODE     ---       uart_write_string
*SFR* 000000F4H   DATA     BYTE      USBCON
      000104DEH   XDATA    FLOAT     velocity_error
      000104E2H   XDATA    FLOAT     velocity_IMAX
      00010566H   XDATA    FLOAT     velocity_KD
      0001056AH   XDATA    FLOAT     velocity_KI
      0001056EH   XDATA    FLOAT     velocity_KP
      0001055AH   XDATA    FLOAT     velocity_OUTMAX
      000104EAH   XDATA    ---       velocity_pid
*DEL*:00000000H   CODE     ---       Velocity_Pid_fun
      00010562H   XDATA    FLOAT     velocity_target
*DEL*:00000000H   CODE     ---       W25Q_DMA_FastRead_0B
*DEL*:00000000H   CODE     ---       W25Q_DMA_FastRead_3B
*DEL*:00000000H   CODE     ---       W25Q_DMA_FastRead_6B
*DEL*:00000000H   CODE     ---       W25Q_DMA_FastRead_Addr32_0C
*DEL*:00000000H   CODE     ---       W25Q_DMA_FastRead_Addr32_3C
*DEL*:00000000H   CODE     ---       W25Q_DMA_FastRead_Addr32_6C
*DEL*:00000000H   CODE     ---       W25Q_DMA_FastRead_Addr32_BC
*DEL*:00000000H   CODE     ---       W25Q_DMA_FastRead_Addr32_EC
*DEL*:00000000H   CODE     ---       W25Q_DMA_FastRead_BB
*DEL*:00000000H   CODE     ---       W25Q_DMA_FastRead_EB
*DEL*:00000000H   CODE     ---       W25Q_DMA_OctalWordRead_E3
*DEL*:00000000H   CODE     ---       W25Q_DMA_PageProgram_02
*DEL*:00000000H   CODE     ---       W25Q_DMA_PageProgram_32
*DEL*:00000000H   CODE     ---       W25Q_DMA_PageProgram_Addr32_12
*DEL*:00000000H   CODE     ---       W25Q_DMA_PageProgram_Addr32_34
*DEL*:00000000H   CODE     ---       W25Q_DMA_ReadData_03
*DEL*:00000000H   CODE     ---       W25Q_DMA_ReadData_Addr32_13
*DEL*:00000000H   CODE     ---       W25Q_DMA_WordRead_E7
      00FFE12EH   CODE     ---       W25Q_Enable_QE
*DEL*:00000000H   CODE     ---       W25Q_EnterAddr32Mode_B7
*DEL*:00000000H   CODE     ---       W25Q_EnterQPIMode_38
*DEL*:00000000H   CODE     ---       W25Q_Erase32K_52
      00FFE2B3H   CODE     ---       W25Q_Erase4K_20
*DEL*:00000000H   CODE     ---       W25Q_Erase4K_Addr32_21
*DEL*:00000000H   CODE     ---       W25Q_Erase64K_Addr32_DC
*DEL*:00000000H   CODE     ---       W25Q_Erase64K_D8
*DEL*:00000000H   CODE     ---       W25Q_EraseChip_C7
*DEL*:00000000H   CODE     ---       W25Q_EraseResume_7A
*DEL*:00000000H   CODE     ---       W25Q_EraseSecurityReg_44
*DEL*:00000000H   CODE     ---       W25Q_EraseSuspend_75
*DEL*:00000000H   CODE     ---       W25Q_ExitAddr32Mode_E9
*DEL*:00000000H   CODE     ---       W25Q_FastRead_0B
*DEL*:00000000H   CODE     ---       W25Q_FastRead_3B
      00FFCA64H   CODE     ---       W25Q_FastRead_6B
*DEL*:00000000H   CODE     ---       W25Q_FastRead_Addr32_0C
*DEL*:00000000H   CODE     ---       W25Q_FastRead_Addr32_3C
*DEL*:00000000H   CODE     ---       W25Q_FastRead_Addr32_6C
*DEL*:00000000H   CODE     ---       W25Q_FastRead_Addr32_BC
*DEL*:00000000H   CODE     ---       W25Q_FastRead_Addr32_EC
L251 LINKER/LOCATER V4.66.93.0                                                        05/05/2025  21:49:10  PAGE 37


*DEL*:00000000H   CODE     ---       W25Q_FastRead_BB
*DEL*:00000000H   CODE     ---       W25Q_FastRead_EB
*DEL*:00000000H   CODE     ---       W25Q_LockGlobal_7E
*DEL*:00000000H   CODE     ---       W25Q_LockSector_36
*DEL*:00000000H   CODE     ---       W25Q_OctalWordRead_E3
*DEL*:00000000H   CODE     ---       W25Q_PageProgram_02
      00FFC295H   CODE     ---       W25Q_PageProgram_32
*DEL*:00000000H   CODE     ---       W25Q_PageProgram_Addr32_12
*DEL*:00000000H   CODE     ---       W25Q_PageProgram_Addr32_34
*DEL*:00000000H   CODE     ---       W25Q_PowerDown_B9
*DEL*:00000000H   CODE     ---       W25Q_ProgramResume_7A
*DEL*:00000000H   CODE     ---       W25Q_ProgramSecurityReg_42
*DEL*:00000000H   CODE     ---       W25Q_ProgramSuspend_75
*DEL*:00000000H   CODE     ---       W25Q_QPI_BurstReadWithWrap_0C
*DEL*:00000000H   CODE     ---       W25Q_QPI_DMA_FastRead_0B
*DEL*:00000000H   CODE     ---       W25Q_QPI_DMA_FastRead_EB
*DEL*:00000000H   CODE     ---       W25Q_QPI_Erase32K_52
*DEL*:00000000H   CODE     ---       W25Q_QPI_Erase4K_20
*DEL*:00000000H   CODE     ---       W25Q_QPI_Erase64K_D8
*DEL*:00000000H   CODE     ---       W25Q_QPI_EraseChip_C7
*DEL*:00000000H   CODE     ---       W25Q_QPI_EraseResume_7A
*DEL*:00000000H   CODE     ---       W25Q_QPI_EraseSuspend_75
*DEL*:00000000H   CODE     ---       W25Q_QPI_ExitQPIMode_FF
*DEL*:00000000H   CODE     ---       W25Q_QPI_FastRead_0B
*DEL*:00000000H   CODE     ---       W25Q_QPI_FastRead_EB
*DEL*:00000000H   CODE     ---       W25Q_QPI_LockGlobal_7E
*DEL*:00000000H   CODE     ---       W25Q_QPI_LockSector_36
*DEL*:00000000H   CODE     ---       W25Q_QPI_PowerDown_B9
*DEL*:00000000H   CODE     ---       W25Q_QPI_ProgramResume_7A
*DEL*:00000000H   CODE     ---       W25Q_QPI_ProgramSuspend_75
*DEL*:00000000H   CODE     ---       W25Q_QPI_ReadDeviceID_AB
*DEL*:00000000H   CODE     ---       W25Q_QPI_ReadJEDECID_9F
*DEL*:00000000H   CODE     ---       W25Q_QPI_ReadLockSector_3D
*DEL*:00000000H   CODE     ---       W25Q_QPI_ReadSR1_05
*DEL*:00000000H   CODE     ---       W25Q_QPI_ReadSR2_35
*DEL*:00000000H   CODE     ---       W25Q_QPI_ReadSR3_15
*DEL*:00000000H   CODE     ---       W25Q_QPI_ReleasePowerDown_AB
*DEL*:00000000H   CODE     ---       W25Q_QPI_ResetDevice_66_99
*DEL*:00000000H   CODE     ---       W25Q_QPI_SetReadParam_C0
*DEL*:00000000H   CODE     ---       W25Q_QPI_UnlockGlobal_98
*DEL*:00000000H   CODE     ---       W25Q_QPI_UnlockSector_39
*DEL*:00000000H   CODE     ---       W25Q_QPI_WaitBusy
*DEL*:00000000H   CODE     ---       W25Q_QPI_WriteDisable_04
*DEL*:00000000H   CODE     ---       W25Q_QPI_WriteEnable_06
*DEL*:00000000H   CODE     ---       W25Q_QPI_WriteEnableVSR_50
*DEL*:00000000H   CODE     ---       W25Q_QPI_WriteSR1_01
*DEL*:00000000H   CODE     ---       W25Q_QPI_WriteSR2_31
*DEL*:00000000H   CODE     ---       W25Q_QPI_WriteSR3_11
*DEL*:00000000H   CODE     ---       W25Q_ReadData_03
*DEL*:00000000H   CODE     ---       W25Q_ReadData_Addr32_13
*DEL*:00000000H   CODE     ---       W25Q_ReadDeviceID_AB
*DEL*:00000000H   CODE     ---       W25Q_ReadEAR_C8
*DEL*:00000000H   CODE     ---       W25Q_ReadID_90
*DEL*:00000000H   CODE     ---       W25Q_ReadID_92
*DEL*:00000000H   CODE     ---       W25Q_ReadID_94
      00FFE28BH   CODE     ---       W25Q_ReadJEDECID_9F
*DEL*:00000000H   CODE     ---       W25Q_ReadLockSector_3D
*DEL*:00000000H   CODE     ---       W25Q_ReadSecurityReg_48
*DEL*:00000000H   CODE     ---       W25Q_ReadSFDP_5A
      00FFE3D7H   CODE     ---       W25Q_ReadSR1_05
      00FFE3EDH   CODE     ---       W25Q_ReadSR2_35
*DEL*:00000000H   CODE     ---       W25Q_ReadSR3_15
*DEL*:00000000H   CODE     ---       W25Q_ReadUniqueID_4B
*DEL*:00000000H   CODE     ---       W25Q_ReleasePowerDown_AB
*DEL*:00000000H   CODE     ---       W25Q_ResetDevice_66_99
L251 LINKER/LOCATER V4.66.93.0                                                        05/05/2025  21:49:10  PAGE 38


*DEL*:00000000H   CODE     ---       W25Q_SetBurstWrap_77
*DEL*:00000000H   CODE     ---       W25Q_UnlockGlobal_98
*DEL*:00000000H   CODE     ---       W25Q_UnlockSector_39
      00FF0003H   CODE     ---       W25Q_WaitBusy
*DEL*:00000000H   CODE     ---       W25Q_WordRead_E7
*DEL*:00000000H   CODE     ---       W25Q_WriteDisable_04
*DEL*:00000000H   CODE     ---       W25Q_WriteEAR_C5
      00FF0014H   CODE     ---       W25Q_WriteEnable_06
      00FF000EH   CODE     ---       W25Q_WriteEnableVSR_50
      00FFE415H   CODE     ---       W25Q_WriteSR12_01
*DEL*:00000000H   CODE     ---       W25Q_WriteSR1_01
      00FFE3C0H   CODE     ---       W25Q_WriteSR2_31
*DEL*:00000000H   CODE     ---       W25Q_WriteSR3_11
*SFR* 000000C1H   DATA     BYTE      WDT_CONTR
*SFR* 000000A6H   DATA     BYTE      WDTRST
      000112C8H   XDATA    INT       wireless_type
*SFR* 000000ABH   DATA     BYTE      WKTCH
*SFR* 00000090H.3 DATA     BIT       WP_IO2
*SFR* 000000B0H.6 DATA     BIT       WR
      00FFE347H   CODE     ---       WritePoint
*SFR* 000000E9H   DATA     BYTE      WTST
      000107CDH   XDATA    FLOAT     x_p
      000107D9H   XDATA    FLOAT     x_v
      000107D1H   XDATA    FLOAT     y_p
      000107DDH   XDATA    FLOAT     y_v
      000107E5H   XDATA    FLOAT     yaw
      000107D5H   XDATA    FLOAT     z_p
      000107E1H   XDATA    FLOAT     z_v
      00FF3951H   CODE     ---       zf_sprintf



SYMBOL TABLE OF MODULE:  .\out_file\SEEKFREE (ai8051u_isr)

      VALUE       REP       CLASS    TYPE      SYMBOL NAME
      ====================================================
      ---         MODULE    ---      ---       ai8051u_isr

      00FF019BH   BLOCK     CODE     NEAR LAB  LVL=0
      00FF019BH   LINE      CODE     ---       #3
      ---         BLOCKEND  ---      ---       LVL=0

      00FF01ABH   BLOCK     CODE     NEAR LAB  LVL=0
      00FF01ABH   LINE      CODE     ---       #6
      ---         BLOCKEND  ---      ---       LVL=0

      00FF01BBH   BLOCK     CODE     NEAR LAB  LVL=0
      00FF01BBH   LINE      CODE     ---       #9
      ---         BLOCKEND  ---      ---       LVL=0

      00FF01CBH   BLOCK     CODE     NEAR LAB  LVL=0
      00FF01CBH   LINE      CODE     ---       #12
      ---         BLOCKEND  ---      ---       LVL=0

      00FF021BH   BLOCK     CODE     NEAR LAB  LVL=0
      00FF021BH   LINE      CODE     ---       #15
      ---         BLOCKEND  ---      ---       LVL=0

      ---         MODULE    ---      ---       zf_common_clock
      00FFC581H   PUBLIC    CODE     ---       clock_init
      000113CCH   PUBLIC    XDATA    LONG      system_clock
      00000094H   SFRSYM    DATA     BYTE      P0M0
      000000D0H   SFRSYM    DATA     BYTE      PSW
      0000009DH   SFRSYM    DATA     BYTE      IRCBAND
      00000097H   SFRSYM    DATA     BYTE      AUXR2
L251 LINKER/LOCATER V4.66.93.0                                                        05/05/2025  21:49:10  PAGE 39


      000000EAH   SFRSYM    DATA     BYTE      CKCON
      000000EFH   SFRSYM    DATA     BYTE      AUXINTIF
      000000FDH   SFRSYM    DATA     BYTE      S4CON
      000000ACH   SFRSYM    DATA     BYTE      S3CON
      0000009AH   SFRSYM    DATA     BYTE      S2CON
      000000B7H   SFRSYM    DATA     BYTE      IPH
      000000CDH   SFRSYM    DATA     BYTE      SPSTAT
      000000DDH   SFRSYM    DATA     BYTE      T4T3M
      000000C1H   SFRSYM    DATA     BYTE      WDT_CONTR
      000000E9H   SFRSYM    DATA     BYTE      WTST
      000000DFH   SFRSYM    DATA     BYTE      IP3
      000000F4H   SFRSYM    DATA     BYTE      USBCON
      000000B5H   SFRSYM    DATA     BYTE      IP2
      000000FFH   SFRSYM    DATA     BYTE      RSTCFG
      000000C7H   SFRSYM    DATA     BYTE      IAP_CONTR
      0000008EH   SFRSYM    DATA     BYTE      AUXR
      000000AFH   SFRSYM    DATA     BYTE      IE2
      00000088H   SFRSYM    DATA     BYTE      TCON
      00000089H   SFRSYM    DATA     BYTE      TMOD
      00000098H   SFRSYM    DATA     BYTE      SCON
      00000087H   SFRSYM    DATA     BYTE      PCON
      000000BCH   SFRSYM    DATA     BYTE      ADC_CONTR
      000000D1H   SFRSYM    DATA     BYTE      PSW1
      000000E7H   SFRSYM    DATA     BYTE      CMPCR2
      000000E6H   SFRSYM    DATA     BYTE      CMPCR1
      000000DEH   SFRSYM    DATA     BYTE      ADCCFG
      000000B8H   SFRSYM    DATA     BYTE      IP
      0000008FH   SFRSYM    DATA     BYTE      INTCLKO
      000000EEH   SFRSYM    DATA     BYTE      IP3H
      000000B6H   SFRSYM    DATA     BYTE      IP2H
      000000BFH   SFRSYM    DATA     BYTE      P_SW4
      000000A8H   SFRSYM    DATA     BYTE      IE
      000000BBH   SFRSYM    DATA     BYTE      P_SW3
      000000BAH   SFRSYM    DATA     BYTE      P_SW2
      000000A2H   SFRSYM    DATA     BYTE      P_SW1
      000000CEH   SFRSYM    DATA     BYTE      SPCTL
      000000F8H   SFRSYM    DATA     BYTE      P7
      000000E1H   SFRSYM    DATA     BYTE      P7M1
      000000E8H   SFRSYM    DATA     BYTE      P6
      000000C8H   SFRSYM    DATA     BYTE      P5
      000000CBH   SFRSYM    DATA     BYTE      P6M1
      000000E2H   SFRSYM    DATA     BYTE      P7M0
      000000C0H   SFRSYM    DATA     BYTE      P4
      000000C9H   SFRSYM    DATA     BYTE      P5M1
      000000CCH   SFRSYM    DATA     BYTE      P6M0
      000000ABH   SFRSYM    DATA     BYTE      WKTCH
      000000B0H   SFRSYM    DATA     BYTE      P3
      000000B3H   SFRSYM    DATA     BYTE      P4M1
      000000CAH   SFRSYM    DATA     BYTE      P5M0
      000000A0H   SFRSYM    DATA     BYTE      P2
      000000B1H   SFRSYM    DATA     BYTE      P3M1
      000000B4H   SFRSYM    DATA     BYTE      P4M0
      00000090H   SFRSYM    DATA     BYTE      P1
      00000095H   SFRSYM    DATA     BYTE      P2M1
      000000B2H   SFRSYM    DATA     BYTE      P3M0
      00000080H   SFRSYM    DATA     BYTE      P0
      00000091H   SFRSYM    DATA     BYTE      P1M1
      00000096H   SFRSYM    DATA     BYTE      P2M0
      00000092H   SFRSYM    DATA     BYTE      P1M0
      00000093H   SFRSYM    DATA     BYTE      P0M1

      00FFC581H   BLOCK     CODE     ---       LVL=0
      000113D0H   SYMBOL    XDATA    DWORD     clock
      00FFC581H   LINE      CODE     ---       #47
      00FFC58BH   LINE      CODE     ---       #49
L251 LINKER/LOCATER V4.66.93.0                                                        05/05/2025  21:49:10  PAGE 40


      00FFC58EH   LINE      CODE     ---       #50
      00FFC591H   LINE      CODE     ---       #51
      00FFC594H   LINE      CODE     ---       #54
      00FFC5A1H   LINE      CODE     ---       #55
      00FFC5AFH   LINE      CODE     ---       #56
      00FFC5BBH   LINE      CODE     ---       #57
      00FFC5C8H   LINE      CODE     ---       #58
      00FFC5D4H   LINE      CODE     ---       #60
      00FFC5D7H   LINE      CODE     ---       #63
      00FFC5EBH   LINE      CODE     ---       #65
      00FFC5EEH   LINE      CODE     ---       #66
      00FFC5F1H   LINE      CODE     ---       #67
      00FFC5F4H   LINE      CODE     ---       #68
      00FFC5F7H   LINE      CODE     ---       #69
      00FFC5FAH   LINE      CODE     ---       #70
      00FFC5FDH   LINE      CODE     ---       #71
      00FFC600H   LINE      CODE     ---       #72
      00FFC603H   LINE      CODE     ---       #73
      00FFC606H   LINE      CODE     ---       #74
      00FFC609H   LINE      CODE     ---       #75
      00FFC60CH   LINE      CODE     ---       #76
      00FFC60FH   LINE      CODE     ---       #77
      00FFC612H   LINE      CODE     ---       #78
      00FFC615H   LINE      CODE     ---       #79
      00FFC618H   LINE      CODE     ---       #80
      00FFC61BH   LINE      CODE     ---       #83
      00FFC61EH   LINE      CODE     ---       #84
      00FFC621H   LINE      CODE     ---       #85
      00FFC624H   LINE      CODE     ---       #86
      00FFC627H   LINE      CODE     ---       #87
      00FFC62AH   LINE      CODE     ---       #88
      00FFC62DH   LINE      CODE     ---       #89
      00FFC630H   LINE      CODE     ---       #90
      00FFC633H   LINE      CODE     ---       #91
      00FFC636H   LINE      CODE     ---       #92
      00FFC639H   LINE      CODE     ---       #93
      00FFC645H   LINE      CODE     ---       #94
      00FFC651H   LINE      CODE     ---       #96
      00FFC65DH   LINE      CODE     ---       #97
      00FFC669H   LINE      CODE     ---       #100
      00FFC66CH   LINE      CODE     ---       #101
      ---         BLOCKEND  ---      ---       LVL=0

      ---         MODULE    ---      ---       zf_common_debug
      00FFE0BCH   PUBLIC    CODE     ---       debug_interrupr_handler
      00FFCE79H   PUBLIC    CODE     ---       debug_init
      00FFE403H   PUBLIC    CODE     ---       putchar
      0001075CH   PUBLIC    XDATA    ---       debug_uart_buffer
      0001079DH   PUBLIC    XDATA    ---       debug_uart_fifo
      000000D0H   SFRSYM    DATA     BYTE      PSW
      0000009DH   SFRSYM    DATA     BYTE      IRCBAND
      00000097H   SFRSYM    DATA     BYTE      AUXR2
      000000EFH   SFRSYM    DATA     BYTE      AUXINTIF
      000000FDH   SFRSYM    DATA     BYTE      S4CON
      000000ACH   SFRSYM    DATA     BYTE      S3CON
      0000009AH   SFRSYM    DATA     BYTE      S2CON
      000000B7H   SFRSYM    DATA     BYTE      IPH
      000000CDH   SFRSYM    DATA     BYTE      SPSTAT
      000000DDH   SFRSYM    DATA     BYTE      T4T3M
      000000C1H   SFRSYM    DATA     BYTE      WDT_CONTR
      000000DFH   SFRSYM    DATA     BYTE      IP3
      000000F4H   SFRSYM    DATA     BYTE      USBCON
      000000B5H   SFRSYM    DATA     BYTE      IP2
      000000FFH   SFRSYM    DATA     BYTE      RSTCFG
      000000C7H   SFRSYM    DATA     BYTE      IAP_CONTR
L251 LINKER/LOCATER V4.66.93.0                                                        05/05/2025  21:49:10  PAGE 41


      0000008EH   SFRSYM    DATA     BYTE      AUXR
      000000AFH   SFRSYM    DATA     BYTE      IE2
      00000088H   SFRSYM    DATA     BYTE      TCON
      00000089H   SFRSYM    DATA     BYTE      TMOD
      00000098H   SFRSYM    DATA     BYTE      SCON
      00000087H   SFRSYM    DATA     BYTE      PCON
      000000BCH   SFRSYM    DATA     BYTE      ADC_CONTR
      000000D1H   SFRSYM    DATA     BYTE      PSW1
      000000E7H   SFRSYM    DATA     BYTE      CMPCR2
      000000E6H   SFRSYM    DATA     BYTE      CMPCR1
      000000DEH   SFRSYM    DATA     BYTE      ADCCFG
      000000B8H   SFRSYM    DATA     BYTE      IP
      0000008FH   SFRSYM    DATA     BYTE      INTCLKO
      000000EEH   SFRSYM    DATA     BYTE      IP3H
      000000B6H   SFRSYM    DATA     BYTE      IP2H
      000000BFH   SFRSYM    DATA     BYTE      P_SW4
      000000A8H   SFRSYM    DATA     BYTE      IE
      000000BBH   SFRSYM    DATA     BYTE      P_SW3
      000000BAH   SFRSYM    DATA     BYTE      P_SW2
      000000A2H   SFRSYM    DATA     BYTE      P_SW1
      000000CEH   SFRSYM    DATA     BYTE      SPCTL
      000000F8H   SFRSYM    DATA     BYTE      P7
      000000E8H   SFRSYM    DATA     BYTE      P6
      000000C8H   SFRSYM    DATA     BYTE      P5
      000000C0H   SFRSYM    DATA     BYTE      P4
      000000ABH   SFRSYM    DATA     BYTE      WKTCH
      000000B0H   SFRSYM    DATA     BYTE      P3
      000000A0H   SFRSYM    DATA     BYTE      P2
      00000090H   SFRSYM    DATA     BYTE      P1
      00000080H   SFRSYM    DATA     BYTE      P0
      0001079CH   SYMBOL    XDATA    BYTE      zf_debug_assert_enable
      000107B4H   SYMBOL    XDATA    BYTE      zf_debug_init_flag
      00011256H   SYMBOL    XDATA    ---       buff
      0001125AH   SYMBOL    XDATA    DWORD     len
      0001125EH   SYMBOL    XDATA    ---       buff
      00011262H   SYMBOL    XDATA    DWORD     len

      00FFE0BCH   BLOCK     CODE     ---       LVL=0
      000114BEH   SYMBOL    XDATA    BYTE      dat
      00FFE0BCH   LINE      CODE     ---       #280
      00FFE0C0H   LINE      CODE     ---       #282
      00FFE0C6H   LINE      CODE     ---       #284
      00FFE0D3H   LINE      CODE     ---       #285
      00FFE0F4H   LINE      CODE     ---       #286
      ---         BLOCKEND  ---      ---       LVL=0

      00FFE403H   BLOCK     CODE     ---       LVL=0
      000114BFH   SYMBOL    XDATA    CHAR      c
      00FFE403H   LINE      CODE     ---       #302
      00FFE407H   LINE      CODE     ---       #304
      00FFE410H   LINE      CODE     ---       #306
      00FFE414H   LINE      CODE     ---       #307
      ---         BLOCKEND  ---      ---       LVL=0

      00FFCE79H   BLOCK     CODE     ---       LVL=0
      000114C0H   SYMBOL    XDATA    BYTE      uartx
      00FFCE79H   LINE      CODE     ---       #488
      00FFCE79H   LINE      CODE     ---       #489
      00FFCE79H   LINE      CODE     ---       #490
      00FFCE7EH   LINE      CODE     ---       #496
      00FFCE99H   LINE      CODE     ---       #503
      00FFCEC6H   LINE      CODE     ---       #504
      00FFCECDH   LINE      CODE     ---       #507
      00FFCED3H   LINE      CODE     ---       #509
      00FFCEDDH   LINE      CODE     ---       #510
L251 LINKER/LOCATER V4.66.93.0                                                        05/05/2025  21:49:10  PAGE 42


      00FFCEDFH   LINE      CODE     ---       #511
      00FFCEE6H   LINE      CODE     ---       #513
      00FFCEF0H   LINE      CODE     ---       #514
      00FFCEF2H   LINE      CODE     ---       #515
      00FFCEF9H   LINE      CODE     ---       #517
      00FFCF03H   LINE      CODE     ---       #518
      00FFCF05H   LINE      CODE     ---       #519
      00FFCF0CH   LINE      CODE     ---       #521
      00FFCF16H   LINE      CODE     ---       #522
      ---         BLOCKEND  ---      ---       LVL=0

      ---         MODULE    ---      ---       zf_common_fifo
      00FF6E97H   PUBLIC    CODE     ---       fifo_read_buffer
      00FFB5E9H   PUBLIC    CODE     ---       fifo_clear
      00FF695CH   PUBLIC    CODE     ---       fifo_write_buffer
      00FFE1D2H   PUBLIC    CODE     ---       fifo_used
      00FFCBCCH   PUBLIC    CODE     ---       fifo_init
      00010C71H   PUBLIC    XDATA    BYTE      ?fifo_write_buffer?BYTE
      00010B82H   PUBLIC    XDATA    BYTE      ?fifo_read_buffer?BYTE
      00010CC7H   PUBLIC    XDATA    BYTE      ?fifo_init?BYTE
      000000D0H   SFRSYM    DATA     BYTE      PSW
      0000009DH   SFRSYM    DATA     BYTE      IRCBAND
      00000097H   SFRSYM    DATA     BYTE      AUXR2
      000000EFH   SFRSYM    DATA     BYTE      AUXINTIF
      000000FDH   SFRSYM    DATA     BYTE      S4CON
      000000ACH   SFRSYM    DATA     BYTE      S3CON
      0000009AH   SFRSYM    DATA     BYTE      S2CON
      000000B7H   SFRSYM    DATA     BYTE      IPH
      000000CDH   SFRSYM    DATA     BYTE      SPSTAT
      000000DDH   SFRSYM    DATA     BYTE      T4T3M
      000000C1H   SFRSYM    DATA     BYTE      WDT_CONTR
      000000DFH   SFRSYM    DATA     BYTE      IP3
      000000F4H   SFRSYM    DATA     BYTE      USBCON
      000000B5H   SFRSYM    DATA     BYTE      IP2
      000000FFH   SFRSYM    DATA     BYTE      RSTCFG
      000000C7H   SFRSYM    DATA     BYTE      IAP_CONTR
      0000008EH   SFRSYM    DATA     BYTE      AUXR
      000000AFH   SFRSYM    DATA     BYTE      IE2
      00000088H   SFRSYM    DATA     BYTE      TCON
      00000089H   SFRSYM    DATA     BYTE      TMOD
      00000098H   SFRSYM    DATA     BYTE      SCON
      00000087H   SFRSYM    DATA     BYTE      PCON
      000000BCH   SFRSYM    DATA     BYTE      ADC_CONTR
      000000D1H   SFRSYM    DATA     BYTE      PSW1
      000000E7H   SFRSYM    DATA     BYTE      CMPCR2
      000000E6H   SFRSYM    DATA     BYTE      CMPCR1
      000000DEH   SFRSYM    DATA     BYTE      ADCCFG
      000000B8H   SFRSYM    DATA     BYTE      IP
      0000008FH   SFRSYM    DATA     BYTE      INTCLKO
      000000EEH   SFRSYM    DATA     BYTE      IP3H
      000000B6H   SFRSYM    DATA     BYTE      IP2H
      000000BFH   SFRSYM    DATA     BYTE      P_SW4
      000000A8H   SFRSYM    DATA     BYTE      IE
      000000BBH   SFRSYM    DATA     BYTE      P_SW3
      000000BAH   SFRSYM    DATA     BYTE      P_SW2
      000000A2H   SFRSYM    DATA     BYTE      P_SW1
      000000CEH   SFRSYM    DATA     BYTE      SPCTL
      000000F8H   SFRSYM    DATA     BYTE      P7
      000000E8H   SFRSYM    DATA     BYTE      P6
      000000C8H   SFRSYM    DATA     BYTE      P5
      000000C0H   SFRSYM    DATA     BYTE      P4
      000000ABH   SFRSYM    DATA     BYTE      WKTCH
      000000B0H   SFRSYM    DATA     BYTE      P3
      000000A0H   SFRSYM    DATA     BYTE      P2
      00000090H   SFRSYM    DATA     BYTE      P1
L251 LINKER/LOCATER V4.66.93.0                                                        05/05/2025  21:49:10  PAGE 43


      00000080H   SFRSYM    DATA     BYTE      P0
      00FFCFB0H   SYMBOL    CODE     ---       fifo_head_offset
      00FFD047H   SYMBOL    CODE     ---       fifo_end_offset

      00FFCFB0H   BLOCK     CODE     ---       LVL=0
      00011266H   SYMBOL    XDATA    ---       fifo
      0001126AH   SYMBOL    XDATA    DWORD     offset
      00FFCFB0H   LINE      CODE     ---       #49
      00FFCFC4H   LINE      CODE     ---       #51
      00FFCFECH   LINE      CODE     ---       #53
      00FFCFEEH   LINE      CODE     ---       #55
      00FFD01EH   LINE      CODE     ---       #56
      00FFD046H   LINE      CODE     ---       #57
      ---         BLOCKEND  ---      ---       LVL=0

      00FFD047H   BLOCK     CODE     ---       LVL=0
      0001126EH   SYMBOL    XDATA    ---       fifo
      00011272H   SYMBOL    XDATA    DWORD     offset
      00FFD047H   LINE      CODE     ---       #67
      00FFD05BH   LINE      CODE     ---       #69
      00FFD083H   LINE      CODE     ---       #71
      00FFD085H   LINE      CODE     ---       #73
      00FFD0B5H   LINE      CODE     ---       #74
      00FFD0DDH   LINE      CODE     ---       #75
      ---         BLOCKEND  ---      ---       LVL=0

      00FFB5E9H   BLOCK     CODE     ---       LVL=0
      00011309H   SYMBOL    XDATA    ---       fifo
      00FFB5F3H   BLOCK     CODE     NEAR LAB  LVL=1
      0001130DH   SYMBOL    XDATA    INT       return_state
      ---         BLOCKEND  ---      ---       LVL=1
      00FFB5E9H   LINE      CODE     ---       #84
      00FFB5F3H   LINE      CODE     ---       #85
      00FFB5F3H   LINE      CODE     ---       #87
      00FFB5FBH   LINE      CODE     ---       #88
      00FFB5FBH   LINE      CODE     ---       #90
      00FFB60AH   LINE      CODE     ---       #92
      00FFB614H   LINE      CODE     ---       #93
      00FFB617H   LINE      CODE     ---       #94
      00FFB617H   LINE      CODE     ---       #95
      00FFB629H   LINE      CODE     ---       #96
      00FFB63DH   LINE      CODE     ---       #97
      00FFB651H   LINE      CODE     ---       #98
      00FFB675H   LINE      CODE     ---       #99
      00FFB692H   LINE      CODE     ---       #101
      00FFB6BCH   LINE      CODE     ---       #102
      00FFB6E8H   LINE      CODE     ---       #103
      00FFB714H   LINE      CODE     ---       #104
      00FFB714H   LINE      CODE     ---       #105
      00FFB722H   LINE      CODE     ---       #106
      00FFB722H   LINE      CODE     ---       #107
      00FFB728H   LINE      CODE     ---       #108
      ---         BLOCKEND  ---      ---       LVL=0

      00FFE1D2H   BLOCK     CODE     ---       LVL=0
      000113D4H   SYMBOL    XDATA    ---       fifo
      00FFE1D2H   LINE      CODE     ---       #117
      00FFE1DCH   LINE      CODE     ---       #120
      00FFE202H   LINE      CODE     ---       #121
      ---         BLOCKEND  ---      ---       LVL=0

      00FF695CH   BLOCK     CODE     ---       LVL=0
      00010C71H   SYMBOL    XDATA    ---       fifo
      00010C75H   SYMBOL    XDATA    ---       dat
      00010C79H   SYMBOL    XDATA    DWORD     length
L251 LINKER/LOCATER V4.66.93.0                                                        05/05/2025  21:49:10  PAGE 44


      00FF6970H   BLOCK     CODE     NEAR LAB  LVL=1
      00010C7DH   SYMBOL    XDATA    INT       return_state
      00010C7FH   SYMBOL    XDATA    DWORD     temp_length
      ---         BLOCKEND  ---      ---       LVL=1
      00FF695CH   LINE      CODE     ---       #175
      00FF6970H   LINE      CODE     ---       #176
      00FF6970H   LINE      CODE     ---       #178
      00FF6978H   LINE      CODE     ---       #179
      00FF6984H   LINE      CODE     ---       #181
      00FF6984H   LINE      CODE     ---       #183
      00FF6992H   LINE      CODE     ---       #185
      00FF699CH   LINE      CODE     ---       #186
      00FF699FH   LINE      CODE     ---       #187
      00FF699FH   LINE      CODE     ---       #188
      00FF69B4H   LINE      CODE     ---       #190
      00FF69BEH   LINE      CODE     ---       #191
      00FF69C1H   LINE      CODE     ---       #192
      00FF69C1H   LINE      CODE     ---       #193
      00FF69D3H   LINE      CODE     ---       #195
      00FF69F6H   LINE      CODE     ---       #197
      00FF6A26H   LINE      CODE     ---       #199
      00FF6A41H   LINE      CODE     ---       #201
      00FF6A64H   LINE      CODE     ---       #203
      00FF6A64H   LINE      CODE     ---       #205
      00FF6AA5H   LINE      CODE     ---       #208
      00FF6ABCH   LINE      CODE     ---       #209
      00FF6B1BH   LINE      CODE     ---       #213
      00FF6B3EH   LINE      CODE     ---       #214
      00FF6B41H   LINE      CODE     ---       #215
      00FF6B41H   LINE      CODE     ---       #217
      00FF6B86H   LINE      CODE     ---       #220
      00FF6B9DH   LINE      CODE     ---       #221
      00FF6BFEH   LINE      CODE     ---       #225
      00FF6C21H   LINE      CODE     ---       #226
      00FF6C24H   LINE      CODE     ---       #227
      00FF6C24H   LINE      CODE     ---       #229
      00FF6C6DH   LINE      CODE     ---       #232
      00FF6C84H   LINE      CODE     ---       #233
      00FF6CEBH   LINE      CODE     ---       #237
      00FF6D0EH   LINE      CODE     ---       #238
      00FF6D0EH   LINE      CODE     ---       #239
      00FF6D0EH   LINE      CODE     ---       #240
      00FF6D11H   LINE      CODE     ---       #243
      00FF6D31H   LINE      CODE     ---       #245
      00FF6D31H   LINE      CODE     ---       #247
      00FF6D72H   LINE      CODE     ---       #250
      00FF6D89H   LINE      CODE     ---       #251
      00FF6D8CH   LINE      CODE     ---       #252
      00FF6D8CH   LINE      CODE     ---       #254
      00FF6DD1H   LINE      CODE     ---       #257
      00FF6DE8H   LINE      CODE     ---       #258
      00FF6DEAH   LINE      CODE     ---       #259
      00FF6DEAH   LINE      CODE     ---       #261
      00FF6E33H   LINE      CODE     ---       #264
      00FF6E4AH   LINE      CODE     ---       #265
      00FF6E4AH   LINE      CODE     ---       #266
      00FF6E4AH   LINE      CODE     ---       #267
      00FF6E4AH   LINE      CODE     ---       #269
      00FF6E72H   LINE      CODE     ---       #270
      00FF6E74H   LINE      CODE     ---       #273
      00FF6E7EH   LINE      CODE     ---       #274
      00FF6E7EH   LINE      CODE     ---       #275
      00FF6E90H   LINE      CODE     ---       #276
      00FF6E90H   LINE      CODE     ---       #278
      00FF6E96H   LINE      CODE     ---       #279
L251 LINKER/LOCATER V4.66.93.0                                                        05/05/2025  21:49:10  PAGE 45


      ---         BLOCKEND  ---      ---       LVL=0

      00FF6E97H   BLOCK     CODE     ---       LVL=0
      00010B82H   SYMBOL    XDATA    ---       fifo
      00010B86H   SYMBOL    XDATA    ---       dat
      00010B8AH   SYMBOL    XDATA    ---       length
      00010B8EH   SYMBOL    XDATA    INT       flag
      00FF6EABH   BLOCK     CODE     NEAR LAB  LVL=1
      00010B90H   SYMBOL    XDATA    INT       return_state
      00010B92H   SYMBOL    XDATA    DWORD     temp_length
      00010B96H   SYMBOL    XDATA    DWORD     fifo_data_length
      ---         BLOCKEND  ---      ---       LVL=1
      00FF6E97H   LINE      CODE     ---       #352
      00FF6EABH   LINE      CODE     ---       #353
      00FF6EABH   LINE      CODE     ---       #356
      00FF6EB3H   LINE      CODE     ---       #357
      00FF6EBFH   LINE      CODE     ---       #358
      00FF6ECBH   LINE      CODE     ---       #360
      00FF6ECBH   LINE      CODE     ---       #362
      00FF6ED9H   LINE      CODE     ---       #364
      00FF6EE3H   LINE      CODE     ---       #365
      00FF6EE6H   LINE      CODE     ---       #368
      00FF6EFBH   LINE      CODE     ---       #370
      00FF6F16H   LINE      CODE     ---       #371
      00FF6F20H   LINE      CODE     ---       #372
      00FF6F23H   LINE      CODE     ---       #373
      00FF6F23H   LINE      CODE     ---       #375
      00FF6F3AH   LINE      CODE     ---       #376
      00FF6F59H   LINE      CODE     ---       #378
      00FF6F74H   LINE      CODE     ---       #379
      00FF6F7EH   LINE      CODE     ---       #380
      00FF6F8CH   LINE      CODE     ---       #382
      00FF6F9EH   LINE      CODE     ---       #383
      00FF6FA1H   LINE      CODE     ---       #384
      00FF6FA1H   LINE      CODE     ---       #387
      00FF6FB3H   LINE      CODE     ---       #388
      00FF6FE3H   LINE      CODE     ---       #389
      00FF7005H   LINE      CODE     ---       #391
      00FF7025H   LINE      CODE     ---       #393
      00FF7072H   LINE      CODE     ---       #394
      00FF70C3H   LINE      CODE     ---       #395
      00FF7115H   LINE      CODE     ---       #396
      00FF7115H   LINE      CODE     ---       #397
      00FF7118H   LINE      CODE     ---       #400
      00FF713BH   LINE      CODE     ---       #402
      00FF713BH   LINE      CODE     ---       #404
      00FF717EH   LINE      CODE     ---       #405
      00FF71CCH   LINE      CODE     ---       #406
      00FF71CFH   LINE      CODE     ---       #407
      00FF71CFH   LINE      CODE     ---       #409
      00FF7216H   LINE      CODE     ---       #410
      00FF7266H   LINE      CODE     ---       #411
      00FF7269H   LINE      CODE     ---       #412
      00FF7269H   LINE      CODE     ---       #414
      00FF72B4H   LINE      CODE     ---       #415
      00FF7308H   LINE      CODE     ---       #416
      00FF7308H   LINE      CODE     ---       #417
      00FF7308H   LINE      CODE     ---       #418
      00FF7308H   LINE      CODE     ---       #419
      00FF731AH   LINE      CODE     ---       #420
      00FF731AH   LINE      CODE     ---       #422
      00FF7327H   LINE      CODE     ---       #424
      00FF7337H   LINE      CODE     ---       #426
      00FF7341H   LINE      CODE     ---       #427
      00FF7343H   LINE      CODE     ---       #428
L251 LINKER/LOCATER V4.66.93.0                                                        05/05/2025  21:49:10  PAGE 46


      00FF7343H   LINE      CODE     ---       #429
      00FF7355H   LINE      CODE     ---       #430
      00FF7373H   LINE      CODE     ---       #431
      00FF73A2H   LINE      CODE     ---       #432
      00FF73B4H   LINE      CODE     ---       #433
      00FF73B4H   LINE      CODE     ---       #436
      00FF73BAH   LINE      CODE     ---       #437
      ---         BLOCKEND  ---      ---       LVL=0

      00FFCBCCH   BLOCK     CODE     ---       LVL=0
      00010CC7H   SYMBOL    XDATA    ---       fifo
      00010CCBH   SYMBOL    XDATA    INT       type
      00010CCDH   SYMBOL    XDATA    ---       buffer_addr
      00010CD1H   SYMBOL    XDATA    DWORD     siz
      00FFCBCCH   LINE      CODE     ---       #545
      00FFCBDCH   LINE      CODE     ---       #548
      00FFCBDCH   LINE      CODE     ---       #550
      00FFCBF8H   LINE      CODE     ---       #551
      00FFCC06H   LINE      CODE     ---       #552
      00FFCC1AH   LINE      CODE     ---       #553
      00FFCC2EH   LINE      CODE     ---       #554
      00FFCC42H   LINE      CODE     ---       #555
      00FFCC5EH   LINE      CODE     ---       #556
      00FFCC7AH   LINE      CODE     ---       #557
      00FFCC7AH   LINE      CODE     ---       #558
      00FFCC7CH   LINE      CODE     ---       #559
      ---         BLOCKEND  ---      ---       LVL=0

      ---         MODULE    ---      ---       zf_common_font
      00FF4290H   PUBLIC    CODE     ---       tft_ascii
      00FF4880H   PUBLIC    CODE     ---       ascii_font_6x8
      000000D0H   SFRSYM    DATA     BYTE      PSW
      0000009DH   SFRSYM    DATA     BYTE      IRCBAND
      00000097H   SFRSYM    DATA     BYTE      AUXR2
      000000EFH   SFRSYM    DATA     BYTE      AUXINTIF
      000000FDH   SFRSYM    DATA     BYTE      S4CON
      000000ACH   SFRSYM    DATA     BYTE      S3CON
      0000009AH   SFRSYM    DATA     BYTE      S2CON
      000000B7H   SFRSYM    DATA     BYTE      IPH
      000000CDH   SFRSYM    DATA     BYTE      SPSTAT
      000000DDH   SFRSYM    DATA     BYTE      T4T3M
      000000C1H   SFRSYM    DATA     BYTE      WDT_CONTR
      000000DFH   SFRSYM    DATA     BYTE      IP3
      000000F4H   SFRSYM    DATA     BYTE      USBCON
      000000B5H   SFRSYM    DATA     BYTE      IP2
      000000FFH   SFRSYM    DATA     BYTE      RSTCFG
      000000C7H   SFRSYM    DATA     BYTE      IAP_CONTR
      0000008EH   SFRSYM    DATA     BYTE      AUXR
      000000AFH   SFRSYM    DATA     BYTE      IE2
      00000088H   SFRSYM    DATA     BYTE      TCON
      00000089H   SFRSYM    DATA     BYTE      TMOD
      00000098H   SFRSYM    DATA     BYTE      SCON
      00000087H   SFRSYM    DATA     BYTE      PCON
      000000BCH   SFRSYM    DATA     BYTE      ADC_CONTR
      000000D1H   SFRSYM    DATA     BYTE      PSW1
      000000E7H   SFRSYM    DATA     BYTE      CMPCR2
      000000E6H   SFRSYM    DATA     BYTE      CMPCR1
      000000DEH   SFRSYM    DATA     BYTE      ADCCFG
      000000B8H   SFRSYM    DATA     BYTE      IP
      0000008FH   SFRSYM    DATA     BYTE      INTCLKO
      000000EEH   SFRSYM    DATA     BYTE      IP3H
      000000B6H   SFRSYM    DATA     BYTE      IP2H
      000000BFH   SFRSYM    DATA     BYTE      P_SW4
      000000A8H   SFRSYM    DATA     BYTE      IE
      000000BBH   SFRSYM    DATA     BYTE      P_SW3
L251 LINKER/LOCATER V4.66.93.0                                                        05/05/2025  21:49:10  PAGE 47


      000000BAH   SFRSYM    DATA     BYTE      P_SW2
      000000A2H   SFRSYM    DATA     BYTE      P_SW1
      000000CEH   SFRSYM    DATA     BYTE      SPCTL
      000000F8H   SFRSYM    DATA     BYTE      P7
      000000E8H   SFRSYM    DATA     BYTE      P6
      000000C8H   SFRSYM    DATA     BYTE      P5
      000000C0H   SFRSYM    DATA     BYTE      P4
      000000ABH   SFRSYM    DATA     BYTE      WKTCH
      000000B0H   SFRSYM    DATA     BYTE      P3
      000000A0H   SFRSYM    DATA     BYTE      P2
      00000090H   SFRSYM    DATA     BYTE      P1
      00000080H   SFRSYM    DATA     BYTE      P0

      ---         MODULE    ---      ---       zf_common_function
      00FF835CH   PUBLIC    CODE     ---       func_str_to_double
      00FF3951H   PUBLIC    CODE     ---       zf_sprintf
      00FF9F0FH   PUBLIC    CODE     ---       func_str_to_hex
      00FFBF71H   PUBLIC    CODE     ---       func_str_to_int
      00010926H   PUBLIC    XDATA    BYTE      ?func_double_to_str?BYTE
      000106C1H   PUBLIC    XDATA    BYTE      ?zf_sprintf?BYTE
      000000D0H   SFRSYM    DATA     BYTE      PSW
      0000009DH   SFRSYM    DATA     BYTE      IRCBAND
      00000097H   SFRSYM    DATA     BYTE      AUXR2
      000000EFH   SFRSYM    DATA     BYTE      AUXINTIF
      000000FDH   SFRSYM    DATA     BYTE      S4CON
      000000ACH   SFRSYM    DATA     BYTE      S3CON
      0000009AH   SFRSYM    DATA     BYTE      S2CON
      000000B7H   SFRSYM    DATA     BYTE      IPH
      000000CDH   SFRSYM    DATA     BYTE      SPSTAT
      000000DDH   SFRSYM    DATA     BYTE      T4T3M
      000000C1H   SFRSYM    DATA     BYTE      WDT_CONTR
      000000DFH   SFRSYM    DATA     BYTE      IP3
      000000F4H   SFRSYM    DATA     BYTE      USBCON
      000000B5H   SFRSYM    DATA     BYTE      IP2
      000000FFH   SFRSYM    DATA     BYTE      RSTCFG
      000000C7H   SFRSYM    DATA     BYTE      IAP_CONTR
      0000008EH   SFRSYM    DATA     BYTE      AUXR
      000000AFH   SFRSYM    DATA     BYTE      IE2
      00000088H   SFRSYM    DATA     BYTE      TCON
      00000089H   SFRSYM    DATA     BYTE      TMOD
      00000098H   SFRSYM    DATA     BYTE      SCON
      00000087H   SFRSYM    DATA     BYTE      PCON
      000000BCH   SFRSYM    DATA     BYTE      ADC_CONTR
      000000D1H   SFRSYM    DATA     BYTE      PSW1
      000000E7H   SFRSYM    DATA     BYTE      CMPCR2
      000000E6H   SFRSYM    DATA     BYTE      CMPCR1
      000000DEH   SFRSYM    DATA     BYTE      ADCCFG
      000000B8H   SFRSYM    DATA     BYTE      IP
      0000008FH   SFRSYM    DATA     BYTE      INTCLKO
      000000EEH   SFRSYM    DATA     BYTE      IP3H
      000000B6H   SFRSYM    DATA     BYTE      IP2H
      000000BFH   SFRSYM    DATA     BYTE      P_SW4
      000000A8H   SFRSYM    DATA     BYTE      IE
      000000BBH   SFRSYM    DATA     BYTE      P_SW3
      000000BAH   SFRSYM    DATA     BYTE      P_SW2
      000000A2H   SFRSYM    DATA     BYTE      P_SW1
      000000CEH   SFRSYM    DATA     BYTE      SPCTL
      000000F8H   SFRSYM    DATA     BYTE      P7
      000000E8H   SFRSYM    DATA     BYTE      P6
      000000C8H   SFRSYM    DATA     BYTE      P5
      000000C0H   SFRSYM    DATA     BYTE      P4
      000000ABH   SFRSYM    DATA     BYTE      WKTCH
      000000B0H   SFRSYM    DATA     BYTE      P3
      000000A0H   SFRSYM    DATA     BYTE      P2
      00000090H   SFRSYM    DATA     BYTE      P1
L251 LINKER/LOCATER V4.66.93.0                                                        05/05/2025  21:49:10  PAGE 48


      00000080H   SFRSYM    DATA     BYTE      P0
      00FFAD81H   SYMBOL    CODE     ---       number_conversion_ascii
      00FFC494H   SYMBOL    CODE     ---       printf_reverse_order
      00FFEA68H   SYMBOL    HCONST   ---       ?tpl?0001
      00011276H   SYMBOL    XDATA    DWORD     num1
      0001127AH   SYMBOL    XDATA    DWORD     num2
      000113D8H   SYMBOL    XDATA    LONG      t

      00FFBF71H   BLOCK     CODE     ---       LVL=0
      00011232H   SYMBOL    XDATA    ---       str
      00FFBF7BH   BLOCK     CODE     NEAR LAB  LVL=1
      00011236H   SYMBOL    XDATA    BYTE      sign
      00011237H   SYMBOL    XDATA    LONG      temp
      ---         BLOCKEND  ---      ---       LVL=1
      00FFBF71H   LINE      CODE     ---       #84
      00FFBF7BH   LINE      CODE     ---       #85
      00FFBF7BH   LINE      CODE     ---       #86
      00FFBF80H   LINE      CODE     ---       #87
      00FFBF8CH   LINE      CODE     ---       #89
      00FFBF8CH   LINE      CODE     ---       #91
      00FFBF9DH   LINE      CODE     ---       #93
      00FFBF9DH   LINE      CODE     ---       #94
      00FFBF9DH   LINE      CODE     ---       #96
      00FFBFADH   LINE      CODE     ---       #98
      00FFBFB3H   LINE      CODE     ---       #99
      00FFBFC6H   LINE      CODE     ---       #100
      00FFBFC8H   LINE      CODE     ---       #101
      00FFBFD8H   LINE      CODE     ---       #103
      00FFBFEBH   LINE      CODE     ---       #104
      00FFBFEBH   LINE      CODE     ---       #106
      00FFBFEDH   LINE      CODE     ---       #108
      00FFC01FH   LINE      CODE     ---       #109
      00FFC032H   LINE      CODE     ---       #110
      00FFC056H   LINE      CODE     ---       #112
      00FFC05CH   LINE      CODE     ---       #114
      00FFC07AH   LINE      CODE     ---       #115
      00FFC07AH   LINE      CODE     ---       #117
      00FFC084H   LINE      CODE     ---       #118
      ---         BLOCKEND  ---      ---       LVL=0
      00010AFAH   SYMBOL    XDATA    ---       str
      00010AFEH   SYMBOL    XDATA    LONG      number
      00010B02H   SYMBOL    XDATA    ---       data_temp
      00010B12H   SYMBOL    XDATA    BYTE      temp_bit
      00010B13H   SYMBOL    XDATA    LONG      number_temp
      0001127EH   SYMBOL    XDATA    ---       str
      00011282H   SYMBOL    XDATA    DWORD     temp
      00010B50H   SYMBOL    XDATA    ---       str
      00010B54H   SYMBOL    XDATA    DWORD     number
      00010B58H   SYMBOL    XDATA    ---       data_temp
      00010B68H   SYMBOL    XDATA    BYTE      temp_bit
      00010C95H   SYMBOL    XDATA    ---       str
      00010C99H   SYMBOL    XDATA    BYTE      sign
      00010C9AH   SYMBOL    XDATA    FLOAT     temp
      00010C9EH   SYMBOL    XDATA    FLOAT     temp_point
      00010CA2H   SYMBOL    XDATA    FLOAT     point_bit
      00010A25H   SYMBOL    XDATA    ---       str
      00010A29H   SYMBOL    XDATA    FLOAT     number
      00010A2DH   SYMBOL    XDATA    BYTE      point_bit
      00010A2EH   SYMBOL    XDATA    INT       data_int
      00010A30H   SYMBOL    XDATA    INT       data_float
      00010A32H   SYMBOL    XDATA    ---       data_temp
      00010A42H   SYMBOL    XDATA    ---       data_temp_point
      00010A4EH   SYMBOL    XDATA    BYTE      temp_bit

      00FF835CH   BLOCK     CODE     ---       LVL=0
L251 LINKER/LOCATER V4.66.93.0                                                        05/05/2025  21:49:10  PAGE 49


      00010B17H   SYMBOL    XDATA    ---       str
      00FF8366H   BLOCK     CODE     NEAR LAB  LVL=1
      00010B1BH   SYMBOL    XDATA    BYTE      sign
      00010B1CH   SYMBOL    XDATA    DOUBLE    temp
      00010B24H   SYMBOL    XDATA    DOUBLE    temp_point
      00010B2CH   SYMBOL    XDATA    DOUBLE    point_bit
      ---         BLOCKEND  ---      ---       LVL=1
      00FF835CH   LINE      CODE     ---       #391
      00FF8366H   LINE      CODE     ---       #392
      00FF8366H   LINE      CODE     ---       #393
      00FF836BH   LINE      CODE     ---       #394
      00FF8381H   LINE      CODE     ---       #395
      00FF8397H   LINE      CODE     ---       #396
      00FF83B1H   LINE      CODE     ---       #400
      00FF83B1H   LINE      CODE     ---       #402
      00FF83C2H   LINE      CODE     ---       #404
      00FF83C2H   LINE      CODE     ---       #405
      00FF83C2H   LINE      CODE     ---       #407
      00FF83D2H   LINE      CODE     ---       #409
      00FF83D8H   LINE      CODE     ---       #410
      00FF83EBH   LINE      CODE     ---       #411
      00FF83EDH   LINE      CODE     ---       #412
      00FF83FDH   LINE      CODE     ---       #414
      00FF8410H   LINE      CODE     ---       #415
      00FF8410H   LINE      CODE     ---       #418
      00FF8412H   LINE      CODE     ---       #420
      00FF8460H   LINE      CODE     ---       #421
      00FF8473H   LINE      CODE     ---       #422
      00FF849AH   LINE      CODE     ---       #423
      00FF84AFH   LINE      CODE     ---       #425
      00FF84C2H   LINE      CODE     ---       #426
      00FF84C5H   LINE      CODE     ---       #428
      00FF8513H   LINE      CODE     ---       #429
      00FF853FH   LINE      CODE     ---       #430
      00FF8552H   LINE      CODE     ---       #431
      00FF859AH   LINE      CODE     ---       #432
      00FF85D0H   LINE      CODE     ---       #433
      00FF85D0H   LINE      CODE     ---       #434
      00FF8606H   LINE      CODE     ---       #436
      00FF860CH   LINE      CODE     ---       #438
      00FF8633H   LINE      CODE     ---       #439
      00FF8633H   LINE      CODE     ---       #441
      00FF8645H   LINE      CODE     ---       #443
      ---         BLOCKEND  ---      ---       LVL=0
      00010926H   SYMBOL    XDATA    ---       str
      0001092AH   SYMBOL    XDATA    DOUBLE    number
      00010932H   SYMBOL    XDATA    BYTE      point_bit
      00010933H   SYMBOL    XDATA    INT       data_int
      00010935H   SYMBOL    XDATA    INT       data_float
      00010937H   SYMBOL    XDATA    ---       data_temp
      0001094FH   SYMBOL    XDATA    ---       data_temp_point
      00010961H   SYMBOL    XDATA    BYTE      temp_bit

      00FF9F0FH   BLOCK     CODE     ---       LVL=0
      00010CD5H   SYMBOL    XDATA    ---       str
      00FF9F19H   BLOCK     CODE     NEAR LAB  LVL=1
      00010CD9H   SYMBOL    XDATA    DWORD     str_len
      00010CDDH   SYMBOL    XDATA    DWORD     result_data
      00010CE1H   SYMBOL    XDATA    BYTE      temp
      00010CE2H   SYMBOL    XDATA    BYTE      flag
      ---         BLOCKEND  ---      ---       LVL=1
      00FF9F0FH   LINE      CODE     ---       #538
      00FF9F19H   LINE      CODE     ---       #539
      00FF9F19H   LINE      CODE     ---       #540
      00FF9F32H   LINE      CODE     ---       #541
L251 LINKER/LOCATER V4.66.93.0                                                        05/05/2025  21:49:10  PAGE 50


      00FF9F3EH   LINE      CODE     ---       #542
      00FF9F43H   LINE      CODE     ---       #543
      00FF9F48H   LINE      CODE     ---       #547
      00FF9F48H   LINE      CODE     ---       #549
      00FF9F59H   LINE      CODE     ---       #551
      00FF9F59H   LINE      CODE     ---       #552
      00FF9F59H   LINE      CODE     ---       #554
      00FF9F62H   LINE      CODE     ---       #556
      00FF9F86H   LINE      CODE     ---       #558
      00FF9F9DH   LINE      CODE     ---       #559
      00FF9F9FH   LINE      CODE     ---       #560
      00FF9FC3H   LINE      CODE     ---       #562
      00FF9FDAH   LINE      CODE     ---       #563
      00FF9FDCH   LINE      CODE     ---       #564
      00FFA006H   LINE      CODE     ---       #566
      00FFA01DH   LINE      CODE     ---       #567
      00FFA01DH   LINE      CODE     ---       #570
      00FFA01DH   LINE      CODE     ---       #571
      00FFA01DH   LINE      CODE     ---       #572
      00FFA046H   LINE      CODE     ---       #573
      00FFA048H   LINE      CODE     ---       #577
      00FFA069H   LINE      CODE     ---       #579
      00FFA07CH   LINE      CODE     ---       #580
      00FFA082H   LINE      CODE     ---       #581
      00FFA082H   LINE      CODE     ---       #583
      00FFA095H   LINE      CODE     ---       #584
      00FFA0B1H   LINE      CODE     ---       #586
      00FFA0BBH   LINE      CODE     ---       #587
      ---         BLOCKEND  ---      ---       LVL=0
      00010A77H   SYMBOL    XDATA    ---       str
      00010A7BH   SYMBOL    XDATA    DWORD     number
      00010A7FH   SYMBOL    XDATA    ---       hex_index
      00010A8FH   SYMBOL    XDATA    ---       data_temp
      00010A9BH   SYMBOL    XDATA    BYTE      temp_bit

      00FFAD81H   BLOCK     CODE     ---       LVL=0
      00010BFAH   SYMBOL    XDATA    DWORD     dat
      00010BFEH   SYMBOL    XDATA    ---       p
      00010C02H   SYMBOL    XDATA    BYTE      neg_type
      00010C03H   SYMBOL    XDATA    BYTE      radix
      00FFAD99H   BLOCK     CODE     NEAR LAB  LVL=1
      00010C04H   SYMBOL    XDATA    LONG      neg_dat
      00010C08H   SYMBOL    XDATA    DWORD     pos_dat
      00010C0CH   SYMBOL    XDATA    BYTE      temp_data
      00010C0DH   SYMBOL    XDATA    BYTE      valid_num
      ---         BLOCKEND  ---      ---       LVL=1
      00FFAD81H   LINE      CODE     ---       #647
      00FFAD99H   LINE      CODE     ---       #648
      00FFAD99H   LINE      CODE     ---       #651
      00FFAD9EH   LINE      CODE     ---       #652
      00FFADA3H   LINE      CODE     ---       #654
      00FFADACH   LINE      CODE     ---       #656
      00FFADC0H   LINE      CODE     ---       #657
      00FFADD0H   LINE      CODE     ---       #659
      00FFADEEH   LINE      CODE     ---       #660
      00FFADEEH   LINE      CODE     ---       #661
      00FFADEEH   LINE      CODE     ---       #663
      00FFAE14H   LINE      CODE     ---       #664
      00FFAE30H   LINE      CODE     ---       #665
      00FFAE36H   LINE      CODE     ---       #667
      00FFAE44H   LINE      CODE     ---       #669
      00FFAE44H   LINE      CODE     ---       #670
      00FFAE44H   LINE      CODE     ---       #671
      00FFAE57H   LINE      CODE     ---       #672
      00FFAE59H   LINE      CODE     ---       #673
L251 LINKER/LOCATER V4.66.93.0                                                        05/05/2025  21:49:10  PAGE 51


      00FFAE5CH   LINE      CODE     ---       #676
      00FFAE70H   LINE      CODE     ---       #677
      00FFAE70H   LINE      CODE     ---       #679
      00FFAE8BH   LINE      CODE     ---       #680
      00FFAE94H   LINE      CODE     ---       #682
      00FFAE9BH   LINE      CODE     ---       #683
      00FFAE9DH   LINE      CODE     ---       #686
      00FFAEA4H   LINE      CODE     ---       #687
      00FFAEA4H   LINE      CODE     ---       #689
      00FFAEB5H   LINE      CODE     ---       #691
      00FFAED1H   LINE      CODE     ---       #692
      00FFAED7H   LINE      CODE     ---       #694
      00FFAEE5H   LINE      CODE     ---       #696
      00FFAEE5H   LINE      CODE     ---       #697
      00FFAEE5H   LINE      CODE     ---       #698
      00FFAEF8H   LINE      CODE     ---       #699
      00FFAEFBH   LINE      CODE     ---       #700
      00FFAEFBH   LINE      CODE     ---       #701
      00FFAEFFH   LINE      CODE     ---       #702
      ---         BLOCKEND  ---      ---       LVL=0

      00FFC494H   BLOCK     CODE     ---       LVL=0
      00010D37H   SYMBOL    XDATA    ---       d_buff
      00010D3BH   SYMBOL    XDATA    DWORD     len
      00FFC4A8H   BLOCK     CODE     NEAR LAB  LVL=1
      00010D3FH   SYMBOL    XDATA    DWORD     i
      00010D43H   SYMBOL    XDATA    CHAR      temp_data
      ---         BLOCKEND  ---      ---       LVL=1
      00FFC494H   LINE      CODE     ---       #712
      00FFC4A8H   LINE      CODE     ---       #713
      00FFC4A8H   LINE      CODE     ---       #716
      00FFC4B7H   LINE      CODE     ---       #718
      00FFC4E4H   LINE      CODE     ---       #719
      00FFC528H   LINE      CODE     ---       #720
      00FFC547H   LINE      CODE     ---       #721
      00FFC580H   LINE      CODE     ---       #722
      ---         BLOCKEND  ---      ---       LVL=0

      00FF3951H   BLOCK     CODE     ---       LVL=0
      000106C1H   SYMBOL    XDATA    ---       buff
      000106C5H   SYMBOL    XDATA    ---       format
      00FF3965H   BLOCK     CODE     NEAR LAB  LVL=1
      000106C9H   SYMBOL    XDATA    DWORD     buff_len
      000106CDH   SYMBOL    XDATA    ---       arg
      00FF3986H   BLOCK     CODE     NEAR LAB  LVL=2
      000106D1H   SYMBOL    XDATA    CHAR      ret
      00FF3ACAH   BLOCK     CODE     NEAR LAB  LVL=3
      000106D2H   SYMBOL    XDATA    CHAR      ch
      ---         BLOCKEND  ---      ---       LVL=3
      00FF3B2CH   BLOCK     CODE     NEAR LAB  LVL=3
      000106D2H   SYMBOL    XDATA    ---       vstr
      000106F3H   SYMBOL    XDATA    LONG      ival
      000106F7H   SYMBOL    XDATA    BYTE      vlen
      ---         BLOCKEND  ---      ---       LVL=3
      00FF3C10H   BLOCK     CODE     NEAR LAB  LVL=3
      000106D2H   SYMBOL    XDATA    ---       vstr
      000106F3H   SYMBOL    XDATA    DOUBLE    ival
      000106FBH   SYMBOL    XDATA    BYTE      vlen
      ---         BLOCKEND  ---      ---       LVL=3
      00FF3E8DH   BLOCK     CODE     NEAR LAB  LVL=3
      000106D2H   SYMBOL    XDATA    ---       vstr
      000106F3H   SYMBOL    XDATA    DWORD     ival
      000106F7H   SYMBOL    XDATA    BYTE      vlen
      ---         BLOCKEND  ---      ---       LVL=3
      00FF3F44H   BLOCK     CODE     NEAR LAB  LVL=3
L251 LINKER/LOCATER V4.66.93.0                                                        05/05/2025  21:49:10  PAGE 52


      000106D2H   SYMBOL    XDATA    ---       vstr
      000106F3H   SYMBOL    XDATA    DWORD     ival
      000106F7H   SYMBOL    XDATA    BYTE      vlen
      ---         BLOCKEND  ---      ---       LVL=3
      00FF3FFBH   BLOCK     CODE     NEAR LAB  LVL=3
      000106D2H   SYMBOL    XDATA    ---       vstr
      000106F3H   SYMBOL    XDATA    DWORD     ival
      000106F7H   SYMBOL    XDATA    BYTE      vlen
      ---         BLOCKEND  ---      ---       LVL=3
      00FF40B2H   BLOCK     CODE     NEAR LAB  LVL=3
      000106D2H   SYMBOL    XDATA    ---       pc
      ---         BLOCKEND  ---      ---       LVL=3
      00FF4147H   BLOCK     CODE     NEAR LAB  LVL=3
      000106D2H   SYMBOL    XDATA    ---       vstr
      000106F3H   SYMBOL    XDATA    DWORD     ival
      ---         BLOCKEND  ---      ---       LVL=3
      ---         BLOCKEND  ---      ---       LVL=2
      ---         BLOCKEND  ---      ---       LVL=1
      00FF3951H   LINE      CODE     ---       #733
      00FF3965H   LINE      CODE     ---       #734
      00FF3965H   LINE      CODE     ---       #735
      00FF3971H   LINE      CODE     ---       #737
      00FF3983H   LINE      CODE     ---       #739
      00FF3986H   LINE      CODE     ---       #740
      00FF3986H   LINE      CODE     ---       #741
      00FF3997H   LINE      CODE     ---       #742
      00FF39A3H   LINE      CODE     ---       #744
      00FF3AC7H   LINE      CODE     ---       #746
      00FF3AC7H   LINE      CODE     ---       #749
      00FF3ACAH   LINE      CODE     ---       #751
      00FF3ACAH   LINE      CODE     ---       #752
      00FF3ACAH   LINE      CODE     ---       #753
      00FF3AF2H   LINE      CODE     ---       #754
      00FF3B03H   LINE      CODE     ---       #755
      00FF3B16H   LINE      CODE     ---       #756
      00FF3B29H   LINE      CODE     ---       #758
      00FF3B2CH   LINE      CODE     ---       #760
      00FF3B2CH   LINE      CODE     ---       #761
      00FF3B2CH   LINE      CODE     ---       #762
      00FF3B2CH   LINE      CODE     ---       #764
      00FF3B5AH   LINE      CODE     ---       #765
      00FF3B7BH   LINE      CODE     ---       #767
      00FF3B8BH   LINE      CODE     ---       #769
      00FF3BA1H   LINE      CODE     ---       #770
      00FF3BA7H   LINE      CODE     ---       #771
      00FF3BA7H   LINE      CODE     ---       #772
      00FF3BBAH   LINE      CODE     ---       #773
      00FF3BD9H   LINE      CODE     ---       #774
      00FF3BF2H   LINE      CODE     ---       #775
      00FF3C0DH   LINE      CODE     ---       #777
      00FF3C10H   LINE      CODE     ---       #779
      00FF3C10H   LINE      CODE     ---       #780
      00FF3C10H   LINE      CODE     ---       #781
      00FF3C10H   LINE      CODE     ---       #783
      00FF3C50H   LINE      CODE     ---       #784
      00FF3C7CH   LINE      CODE     ---       #786
      00FF3C97H   LINE      CODE     ---       #788
      00FF3CADH   LINE      CODE     ---       #789
      00FF3CB3H   LINE      CODE     ---       #790
      00FF3CB3H   LINE      CODE     ---       #791
      00FF3CC6H   LINE      CODE     ---       #792
      00FF3CE5H   LINE      CODE     ---       #793
      00FF3CFEH   LINE      CODE     ---       #794
      00FF3D19H   LINE      CODE     ---       #796
      00FF3D6BH   LINE      CODE     ---       #797
L251 LINKER/LOCATER V4.66.93.0                                                        05/05/2025  21:49:10  PAGE 53


      00FF3D89H   LINE      CODE     ---       #799
      00FF3DB5H   LINE      CODE     ---       #800
      00FF3DB7H   LINE      CODE     ---       #803
      00FF3DDBH   LINE      CODE     ---       #804
      00FF3DE1H   LINE      CODE     ---       #805
      00FF3DE1H   LINE      CODE     ---       #807
      00FF3DE3H   LINE      CODE     ---       #809
      00FF3DF9H   LINE      CODE     ---       #810
      00FF3DFFH   LINE      CODE     ---       #811
      00FF3E08H   LINE      CODE     ---       #813
      00FF3E1EH   LINE      CODE     ---       #814
      00FF3E24H   LINE      CODE     ---       #816
      00FF3E37H   LINE      CODE     ---       #817
      00FF3E56H   LINE      CODE     ---       #818
      00FF3E6FH   LINE      CODE     ---       #819
      00FF3E8AH   LINE      CODE     ---       #821
      00FF3E8DH   LINE      CODE     ---       #823
      00FF3E8DH   LINE      CODE     ---       #824
      00FF3E8DH   LINE      CODE     ---       #826
      00FF3EBBH   LINE      CODE     ---       #827
      00FF3EDBH   LINE      CODE     ---       #829
      00FF3EEEH   LINE      CODE     ---       #830
      00FF3F0DH   LINE      CODE     ---       #831
      00FF3F26H   LINE      CODE     ---       #832
      00FF3F41H   LINE      CODE     ---       #834
      00FF3F44H   LINE      CODE     ---       #836
      00FF3F44H   LINE      CODE     ---       #837
      00FF3F44H   LINE      CODE     ---       #839
      00FF3F72H   LINE      CODE     ---       #840
      00FF3F92H   LINE      CODE     ---       #842
      00FF3FA5H   LINE      CODE     ---       #843
      00FF3FC4H   LINE      CODE     ---       #844
      00FF3FDDH   LINE      CODE     ---       #845
      00FF3FF8H   LINE      CODE     ---       #848
      00FF3FFBH   LINE      CODE     ---       #850
      00FF3FFBH   LINE      CODE     ---       #851
      00FF3FFBH   LINE      CODE     ---       #852
      00FF3FFBH   LINE      CODE     ---       #854
      00FF4029H   LINE      CODE     ---       #855
      00FF4049H   LINE      CODE     ---       #857
      00FF405CH   LINE      CODE     ---       #858
      00FF407BH   LINE      CODE     ---       #859
      00FF4094H   LINE      CODE     ---       #860
      00FF40AFH   LINE      CODE     ---       #862
      00FF40B2H   LINE      CODE     ---       #864
      00FF40B2H   LINE      CODE     ---       #865
      00FF40B2H   LINE      CODE     ---       #866
      00FF40E0H   LINE      CODE     ---       #867
      00FF40E2H   LINE      CODE     ---       #869
      00FF40FCH   LINE      CODE     ---       #870
      00FF410FH   LINE      CODE     ---       #871
      00FF4122H   LINE      CODE     ---       #872
      00FF4135H   LINE      CODE     ---       #873
      00FF4144H   LINE      CODE     ---       #875
      00FF4147H   LINE      CODE     ---       #877
      00FF4147H   LINE      CODE     ---       #878
      00FF4147H   LINE      CODE     ---       #880
      00FF4175H   LINE      CODE     ---       #882
      00FF4191H   LINE      CODE     ---       #883
      00FF41A0H   LINE      CODE     ---       #884
      00FF41BDH   LINE      CODE     ---       #885
      00FF41D2H   LINE      CODE     ---       #886
      00FF41E7H   LINE      CODE     ---       #888
      00FF41E9H   LINE      CODE     ---       #890
      00FF41E9H   LINE      CODE     ---       #892
L251 LINKER/LOCATER V4.66.93.0                                                        05/05/2025  21:49:10  PAGE 54


      00FF41F8H   LINE      CODE     ---       #893
      00FF420BH   LINE      CODE     ---       #894
      00FF421EH   LINE      CODE     ---       #896
      00FF4220H   LINE      CODE     ---       #898
      00FF4220H   LINE      CODE     ---       #899
      00FF4220H   LINE      CODE     ---       #900
      00FF4220H   LINE      CODE     ---       #901
      00FF4220H   LINE      CODE     ---       #904
      00FF423AH   LINE      CODE     ---       #905
      00FF424DH   LINE      CODE     ---       #906
      00FF4260H   LINE      CODE     ---       #907
      00FF4260H   LINE      CODE     ---       #908
      00FF4273H   LINE      CODE     ---       #909
      00FF4285H   LINE      CODE     ---       #912
      00FF428FH   LINE      CODE     ---       #913
      ---         BLOCKEND  ---      ---       LVL=0

      ---         MODULE    ---      ---       zf_common_typedef
      00010ADCH   PUBLIC    XDATA    ---       tim11_irq_handler
      00010ADEH   PUBLIC    XDATA    ---       uart1_irq_handler
      00010AE0H   PUBLIC    XDATA    ---       uart2_irq_handler
      00010AE2H   PUBLIC    XDATA    ---       uart3_irq_handler
      00010AE4H   PUBLIC    XDATA    ---       uart4_irq_handler
      00010AE6H   PUBLIC    XDATA    ---       tim0_irq_handler
      00010AE8H   PUBLIC    XDATA    ---       int0_irq_handler
      00010AEAH   PUBLIC    XDATA    ---       tim1_irq_handler
      00010AECH   PUBLIC    XDATA    ---       int1_irq_handler
      00010AEEH   PUBLIC    XDATA    ---       tim2_irq_handler
      00010AF0H   PUBLIC    XDATA    ---       int2_irq_handler
      00010AF2H   PUBLIC    XDATA    ---       tim3_irq_handler
      00010AF4H   PUBLIC    XDATA    ---       int3_irq_handler
      00010AF6H   PUBLIC    XDATA    ---       tim4_irq_handler
      00010AF8H   PUBLIC    XDATA    ---       int4_irq_handler
      000000D0H   SFRSYM    DATA     BYTE      PSW
      0000009DH   SFRSYM    DATA     BYTE      IRCBAND
      00000097H   SFRSYM    DATA     BYTE      AUXR2
      000000EFH   SFRSYM    DATA     BYTE      AUXINTIF
      000000FDH   SFRSYM    DATA     BYTE      S4CON
      000000ACH   SFRSYM    DATA     BYTE      S3CON
      0000009AH   SFRSYM    DATA     BYTE      S2CON
      000000B7H   SFRSYM    DATA     BYTE      IPH
      000000CDH   SFRSYM    DATA     BYTE      SPSTAT
      000000DDH   SFRSYM    DATA     BYTE      T4T3M
      000000C1H   SFRSYM    DATA     BYTE      WDT_CONTR
      000000DFH   SFRSYM    DATA     BYTE      IP3
      000000F4H   SFRSYM    DATA     BYTE      USBCON
      000000B5H   SFRSYM    DATA     BYTE      IP2
      000000FFH   SFRSYM    DATA     BYTE      RSTCFG
      000000C7H   SFRSYM    DATA     BYTE      IAP_CONTR
      0000008EH   SFRSYM    DATA     BYTE      AUXR
      000000AFH   SFRSYM    DATA     BYTE      IE2
      00000088H   SFRSYM    DATA     BYTE      TCON
      00000089H   SFRSYM    DATA     BYTE      TMOD
      00000098H   SFRSYM    DATA     BYTE      SCON
      00000087H   SFRSYM    DATA     BYTE      PCON
      000000BCH   SFRSYM    DATA     BYTE      ADC_CONTR
      000000D1H   SFRSYM    DATA     BYTE      PSW1
      000000E7H   SFRSYM    DATA     BYTE      CMPCR2
      000000E6H   SFRSYM    DATA     BYTE      CMPCR1
      000000DEH   SFRSYM    DATA     BYTE      ADCCFG
      000000B8H   SFRSYM    DATA     BYTE      IP
      0000008FH   SFRSYM    DATA     BYTE      INTCLKO
      000000EEH   SFRSYM    DATA     BYTE      IP3H
      000000B6H   SFRSYM    DATA     BYTE      IP2H
      000000BFH   SFRSYM    DATA     BYTE      P_SW4
L251 LINKER/LOCATER V4.66.93.0                                                        05/05/2025  21:49:10  PAGE 55


      000000A8H   SFRSYM    DATA     BYTE      IE
      000000BBH   SFRSYM    DATA     BYTE      P_SW3
      000000BAH   SFRSYM    DATA     BYTE      P_SW2
      000000A2H   SFRSYM    DATA     BYTE      P_SW1
      000000CEH   SFRSYM    DATA     BYTE      SPCTL
      000000F8H   SFRSYM    DATA     BYTE      P7
      000000E8H   SFRSYM    DATA     BYTE      P6
      000000C8H   SFRSYM    DATA     BYTE      P5
      000000C0H   SFRSYM    DATA     BYTE      P4
      000000ABH   SFRSYM    DATA     BYTE      WKTCH
      000000B0H   SFRSYM    DATA     BYTE      P3
      000000A0H   SFRSYM    DATA     BYTE      P2
      00000090H   SFRSYM    DATA     BYTE      P1
      00000080H   SFRSYM    DATA     BYTE      P0

      ---         MODULE    ---      ---       zf_common_interrupt
      00FF001EH   PUBLIC    CODE     ---       interrupt_global_enable
      000000D0H   SFRSYM    DATA     BYTE      PSW
      0000009DH   SFRSYM    DATA     BYTE      IRCBAND
      00000097H   SFRSYM    DATA     BYTE      AUXR2
      000000EFH   SFRSYM    DATA     BYTE      AUXINTIF
      000000FDH   SFRSYM    DATA     BYTE      S4CON
      000000ACH   SFRSYM    DATA     BYTE      S3CON
      0000009AH   SFRSYM    DATA     BYTE      S2CON
      000000B7H   SFRSYM    DATA     BYTE      IPH
      000000CDH   SFRSYM    DATA     BYTE      SPSTAT
      000000DDH   SFRSYM    DATA     BYTE      T4T3M
      000000C1H   SFRSYM    DATA     BYTE      WDT_CONTR
      000000DFH   SFRSYM    DATA     BYTE      IP3
      000000F4H   SFRSYM    DATA     BYTE      USBCON
      000000B5H   SFRSYM    DATA     BYTE      IP2
      000000FFH   SFRSYM    DATA     BYTE      RSTCFG
      000000C7H   SFRSYM    DATA     BYTE      IAP_CONTR
      0000008EH   SFRSYM    DATA     BYTE      AUXR
      000000AFH   SFRSYM    DATA     BYTE      IE2
      00000088H   SFRSYM    DATA     BYTE      TCON
      00000089H   SFRSYM    DATA     BYTE      TMOD
      00000098H   SFRSYM    DATA     BYTE      SCON
      00000087H   SFRSYM    DATA     BYTE      PCON
      000000BCH   SFRSYM    DATA     BYTE      ADC_CONTR
      000000D1H   SFRSYM    DATA     BYTE      PSW1
      000000E7H   SFRSYM    DATA     BYTE      CMPCR2
      000000E6H   SFRSYM    DATA     BYTE      CMPCR1
      000000DEH   SFRSYM    DATA     BYTE      ADCCFG
      000000B8H   SFRSYM    DATA     BYTE      IP
      0000008FH   SFRSYM    DATA     BYTE      INTCLKO
      000000EEH   SFRSYM    DATA     BYTE      IP3H
      000000B6H   SFRSYM    DATA     BYTE      IP2H
      000000BFH   SFRSYM    DATA     BYTE      P_SW4
      000000A8H   SFRSYM    DATA     BYTE      IE
      000000BBH   SFRSYM    DATA     BYTE      P_SW3
      000000BAH   SFRSYM    DATA     BYTE      P_SW2
      000000A2H   SFRSYM    DATA     BYTE      P_SW1
      000000CEH   SFRSYM    DATA     BYTE      SPCTL
      000000F8H   SFRSYM    DATA     BYTE      P7
      000000A8H.7 SFRSYM    DATA     BIT       EA
      000000E8H   SFRSYM    DATA     BYTE      P6
      000000C8H   SFRSYM    DATA     BYTE      P5
      000000C0H   SFRSYM    DATA     BYTE      P4
      000000ABH   SFRSYM    DATA     BYTE      WKTCH
      000000B0H   SFRSYM    DATA     BYTE      P3
      000000A0H   SFRSYM    DATA     BYTE      P2
      00000090H   SFRSYM    DATA     BYTE      P1
      00000080H   SFRSYM    DATA     BYTE      P0
      0001147CH   SYMBOL    XDATA    INT       irqn
L251 LINKER/LOCATER V4.66.93.0                                                        05/05/2025  21:49:10  PAGE 56


      0001147EH   SYMBOL    XDATA    BYTE      priority

      00FF001EH   BLOCK     CODE     ---       LVL=0
      00FF001EH   LINE      CODE     ---       #88
      00FF001EH   LINE      CODE     ---       #90
      00FF0020H   LINE      CODE     ---       #91
      ---         BLOCKEND  ---      ---       LVL=0

      ---         MODULE    ---      ---       ?C_START
      00FF0000H   PUBLIC    CODE     ---       ?C?STARTUP
      00FF0000H   PUBLIC    CODE     ---       ?C_STARTUP
      000000D0H.6 SFRSYM    DATA     BIT       AC
      000000E0H   SFRSYM    DATA     BYTE      ACC
      000000F0H   SFRSYM    DATA     BYTE      B
      000000FAH   SFRSYM    DATA     BYTE      CCAP0H
      000000EAH   SFRSYM    DATA     BYTE      CCAP0L
      000000FBH   SFRSYM    DATA     BYTE      CCAP1H
      000000EBH   SFRSYM    DATA     BYTE      CCAP1L
      000000FCH   SFRSYM    DATA     BYTE      CCAP2H
      000000ECH   SFRSYM    DATA     BYTE      CCAP2L
      000000FDH   SFRSYM    DATA     BYTE      CCAP3H
      000000EDH   SFRSYM    DATA     BYTE      CCAP3L
      000000FEH   SFRSYM    DATA     BYTE      CCAP4H
      000000EEH   SFRSYM    DATA     BYTE      CCAP4L
      000000DAH   SFRSYM    DATA     BYTE      CCAPM0
      000000DBH   SFRSYM    DATA     BYTE      CCAPM1
      000000DCH   SFRSYM    DATA     BYTE      CCAPM2
      000000DDH   SFRSYM    DATA     BYTE      CCAPM3
      000000DEH   SFRSYM    DATA     BYTE      CCAPM4
      000000D8H.0 SFRSYM    DATA     BIT       CCF0
      000000D8H.1 SFRSYM    DATA     BIT       CCF1
      000000D8H.2 SFRSYM    DATA     BIT       CCF2
      000000D8H.3 SFRSYM    DATA     BIT       CCF3
      000000D8H.4 SFRSYM    DATA     BIT       CCF4
      000000D8H   SFRSYM    DATA     BYTE      CCON
      00000090H.3 SFRSYM    DATA     BIT       CEX0
      00000090H.4 SFRSYM    DATA     BIT       CEX1
      00000090H.5 SFRSYM    DATA     BIT       CEX2
      00000090H.6 SFRSYM    DATA     BIT       CEX3
      00000090H.7 SFRSYM    DATA     BIT       CEX4
      000000D8H.7 SFRSYM    DATA     BIT       CF
      000000F9H   SFRSYM    DATA     BYTE      CH
      000000E9H   SFRSYM    DATA     BYTE      CL
      000000D9H   SFRSYM    DATA     BYTE      CMOD
      000000C8H.0 SFRSYM    DATA     BIT       CP_RL2
      000000D8H.6 SFRSYM    DATA     BIT       CR
      000000D0H.7 SFRSYM    DATA     BIT       CY
      000000C8H.1 SFRSYM    DATA     BIT       C_T2
      00000083H   SFRSYM    DATA     BYTE      DPH
      00000082H   SFRSYM    DATA     BYTE      DPL
      00000084H   SFRSYM    DATA     BYTE      DPXL
      000000A8H.7 SFRSYM    DATA     BIT       EA
      000000A8H.6 SFRSYM    DATA     BIT       EC
      00000090H.2 SFRSYM    DATA     BIT       ECI
      000000A8H.4 SFRSYM    DATA     BIT       ES
      000000A8H.1 SFRSYM    DATA     BIT       ET0
      000000A8H.3 SFRSYM    DATA     BIT       ET1
      000000A8H.5 SFRSYM    DATA     BIT       ET2
      000000A8H.0 SFRSYM    DATA     BIT       EX0
      000000A8H.2 SFRSYM    DATA     BIT       EX1
      000000C8H.3 SFRSYM    DATA     BIT       EXEN2
      000000C8H.6 SFRSYM    DATA     BIT       EXF2
      000000D0H.5 SFRSYM    DATA     BIT       F0
      00000098H.7 SFRSYM    DATA     BIT       FE
      000000A8H   SFRSYM    DATA     BYTE      IE0
L251 LINKER/LOCATER V4.66.93.0                                                        05/05/2025  21:49:10  PAGE 57


      00000088H.1 SFRSYM    DATA     BIT       IE0_
      000000B1H   SFRSYM    DATA     BYTE      IE1
      00000088H.3 SFRSYM    DATA     BIT       IE1_
      000000B0H.2 SFRSYM    DATA     BIT       INT0
      000000B0H.3 SFRSYM    DATA     BIT       INT1
      000000B7H   SFRSYM    DATA     BYTE      IPH0
      000000B8H   SFRSYM    DATA     BYTE      IPL0
      00000088H.0 SFRSYM    DATA     BIT       IT0
      00000088H.2 SFRSYM    DATA     BIT       IT1
      000000D0H.2 SFRSYM    DATA     BIT       OV
      000000D0H.0 SFRSYM    DATA     BIT       P
      00000080H   SFRSYM    DATA     BYTE      P0
      00000090H   SFRSYM    DATA     BYTE      P1
      000000A0H   SFRSYM    DATA     BYTE      P2
      000000B0H   SFRSYM    DATA     BYTE      P3
      00000087H   SFRSYM    DATA     BYTE      PCON
      000000B8H.6 SFRSYM    DATA     BIT       PPC
      000000B8H.4 SFRSYM    DATA     BIT       PS
      000000D0H   SFRSYM    DATA     BYTE      PSW
      000000D1H   SFRSYM    DATA     BYTE      PSW1
      000000B8H.1 SFRSYM    DATA     BIT       PT0
      000000B8H.3 SFRSYM    DATA     BIT       PT1
      000000B8H.5 SFRSYM    DATA     BIT       PT2
      000000B8H.0 SFRSYM    DATA     BIT       PX0
      000000B8H.2 SFRSYM    DATA     BIT       PX1
      00000098H.2 SFRSYM    DATA     BIT       RB8
      000000CBH   SFRSYM    DATA     BYTE      RCAP2H
      000000CAH   SFRSYM    DATA     BYTE      RCAP2L
      000000C8H.5 SFRSYM    DATA     BIT       RCLK
      000000B0H.7 SFRSYM    DATA     BIT       RD
      00000098H.4 SFRSYM    DATA     BIT       REN
      00000098H.0 SFRSYM    DATA     BIT       RI
      000000D0H.3 SFRSYM    DATA     BIT       RS0
      000000D0H.4 SFRSYM    DATA     BIT       RS1
      000000B0H.0 SFRSYM    DATA     BIT       RXD
      000000A9H   SFRSYM    DATA     BYTE      SADDR
      000000B9H   SFRSYM    DATA     BYTE      SADEN
      00000099H   SFRSYM    DATA     BYTE      SBUF
      00000098H   SFRSYM    DATA     BYTE      SCON
      00000098H.7 SFRSYM    DATA     BIT       SM0
      00000098H.6 SFRSYM    DATA     BIT       SM1
      00000098H.5 SFRSYM    DATA     BIT       SM2
      00000081H   SFRSYM    DATA     BYTE      SP
      000000BEH   SFRSYM    DATA     BYTE      SPH
      000000B0H.4 SFRSYM    DATA     BIT       T0
      000000B0H.5 SFRSYM    DATA     BIT       T1
      00000090H.0 SFRSYM    DATA     BIT       T2
      000000C8H   SFRSYM    DATA     BYTE      T2CON
      00000090H.1 SFRSYM    DATA     BIT       T2EX
      000000C9H   SFRSYM    DATA     BYTE      T2MOD
      00000098H.3 SFRSYM    DATA     BIT       TB8
      000000C8H.4 SFRSYM    DATA     BIT       TCLK
      00000088H   SFRSYM    DATA     BYTE      TCON
      00000088H.5 SFRSYM    DATA     BIT       TF0
      00000088H.7 SFRSYM    DATA     BIT       TF1
      000000C8H.7 SFRSYM    DATA     BIT       TF2
      0000008CH   SFRSYM    DATA     BYTE      TH0
      0000008DH   SFRSYM    DATA     BYTE      TH1
      000000CDH   SFRSYM    DATA     BYTE      TH2
      00000098H.1 SFRSYM    DATA     BIT       TI
      0000008AH   SFRSYM    DATA     BYTE      TL0
      0000008BH   SFRSYM    DATA     BYTE      TL1
      000000CCH   SFRSYM    DATA     BYTE      TL2
      00000089H   SFRSYM    DATA     BYTE      TMOD
      00000088H.4 SFRSYM    DATA     BIT       TR0
L251 LINKER/LOCATER V4.66.93.0                                                        05/05/2025  21:49:10  PAGE 58


      00000088H.6 SFRSYM    DATA     BIT       TR1
      000000C8H.2 SFRSYM    DATA     BIT       TR2
      000000B0H.1 SFRSYM    DATA     BIT       TXD
      000000A6H   SFRSYM    DATA     BYTE      WDTRST
      000000B0H.6 SFRSYM    DATA     BIT       WR
      00000800H   SYMBOL    NUMBER   ---       EDATALEN
      00FFDC67H   SYMBOL    CODE     ---       EDATALOOP
      00000001H   SYMBOL    NUMBER   ---       EDF
      00000001H   SYMBOL    NUMBER   ---       EMAP
      00000000H   SYMBOL    NUMBER   ---       HDATALEN
      00010000H   SYMBOL    NUMBER   ---       HDATASTART
      00000000H   SYMBOL    NUMBER   ---       IBPSTACK
      00000100H   SYMBOL    NUMBER   ---       IBPSTACKTOP
      00000001H   SYMBOL    NUMBER   ---       INTR
      00000001H   SYMBOL    NUMBER   ---       PAGM
      00000003H   SYMBOL    NUMBER   ---       RDRG
      00000001H   SYMBOL    NUMBER   ---       SRCM
      00000700H   SYMBOL    NUMBER   ---       STACKSIZE
      00FFDC5FH   SYMBOL    CODE     ---       STARTUP1
      00000003H   SYMBOL    NUMBER   ---       WSA
      00000003H   SYMBOL    NUMBER   ---       WSB
      00000001H   SYMBOL    NUMBER   ---       XALE
      00000000H   SYMBOL    NUMBER   ---       XBPSTACK
      00010000H   SYMBOL    NUMBER   ---       XBPSTACKTOP
      00008000H   SYMBOL    NUMBER   ---       XDATALEN
      00FFDC76H   SYMBOL    CODE     ---       XDATALOOP
      00010000H   SYMBOL    NUMBER   ---       XDATASTART

      00FF0000H   BLOCK     CODE     NEAR LAB  LVL=0
      00FF0000H   LINE      CODE     ---       #183
      ---         BLOCKEND  ---      ---       LVL=0

      00FFDC5FH   BLOCK     CODE     NEAR LAB  LVL=0
      00FFDC5FH   LINE      CODE     ---       #188
      00FFDC62H   LINE      CODE     ---       #191
      00FFDC66H   LINE      CODE     ---       #192
      00FFDC67H   LINE      CODE     ---       #193
      00FFDC6AH   LINE      CODE     ---       #194
      00FFDC6CH   LINE      CODE     ---       #195
      00FFDC6EH   LINE      CODE     ---       #199
      00FFDC71H   LINE      CODE     ---       #200
      00FFDC75H   LINE      CODE     ---       #201
      00FFDC76H   LINE      CODE     ---       #202
      00FFDC77H   LINE      CODE     ---       #203
      00FFDC78H   LINE      CODE     ---       #204
      00FFDC7AH   LINE      CODE     ---       #205
      00FFDC7CH   LINE      CODE     ---       #235
      ---         BLOCKEND  ---      ---       LVL=0

      00FFDCB7H   BLOCK     CODE     NEAR LAB  LVL=0
      00FFDCB7H   LINE      CODE     ---       #238
      ---         BLOCKEND  ---      ---       LVL=0

      ---         MODULE    ---      ---       zf_driver_adc
      00000094H   SFRSYM    DATA     BYTE      P0M0
      000000D0H   SFRSYM    DATA     BYTE      PSW
      0000009DH   SFRSYM    DATA     BYTE      IRCBAND
      00000097H   SFRSYM    DATA     BYTE      AUXR2
      000000EFH   SFRSYM    DATA     BYTE      AUXINTIF
      000000FDH   SFRSYM    DATA     BYTE      S4CON
      000000ACH   SFRSYM    DATA     BYTE      S3CON
      0000009AH   SFRSYM    DATA     BYTE      S2CON
      000000B7H   SFRSYM    DATA     BYTE      IPH
      000000CDH   SFRSYM    DATA     BYTE      SPSTAT
      000000BEH   SFRSYM    DATA     BYTE      ADC_RESL
L251 LINKER/LOCATER V4.66.93.0                                                        05/05/2025  21:49:10  PAGE 59


      000000DDH   SFRSYM    DATA     BYTE      T4T3M
      000000C1H   SFRSYM    DATA     BYTE      WDT_CONTR
      000000DFH   SFRSYM    DATA     BYTE      IP3
      000000F4H   SFRSYM    DATA     BYTE      USBCON
      000000B5H   SFRSYM    DATA     BYTE      IP2
      000000FFH   SFRSYM    DATA     BYTE      RSTCFG
      000000C7H   SFRSYM    DATA     BYTE      IAP_CONTR
      0000008EH   SFRSYM    DATA     BYTE      AUXR
      000000AFH   SFRSYM    DATA     BYTE      IE2
      00000088H   SFRSYM    DATA     BYTE      TCON
      00000089H   SFRSYM    DATA     BYTE      TMOD
      00000098H   SFRSYM    DATA     BYTE      SCON
      00000087H   SFRSYM    DATA     BYTE      PCON
      000000BCH   SFRSYM    DATA     BYTE      ADC_CONTR
      000000D1H   SFRSYM    DATA     BYTE      PSW1
      000000E7H   SFRSYM    DATA     BYTE      CMPCR2
      000000E6H   SFRSYM    DATA     BYTE      CMPCR1
      000000DEH   SFRSYM    DATA     BYTE      ADCCFG
      000000B8H   SFRSYM    DATA     BYTE      IP
      0000008FH   SFRSYM    DATA     BYTE      INTCLKO
      000000EEH   SFRSYM    DATA     BYTE      IP3H
      000000B6H   SFRSYM    DATA     BYTE      IP2H
      000000BDH   SFRSYM    DATA     BYTE      ADC_RES
      000000BFH   SFRSYM    DATA     BYTE      P_SW4
      000000A8H   SFRSYM    DATA     BYTE      IE
      000000BBH   SFRSYM    DATA     BYTE      P_SW3
      000000BAH   SFRSYM    DATA     BYTE      P_SW2
      000000A2H   SFRSYM    DATA     BYTE      P_SW1
      000000CEH   SFRSYM    DATA     BYTE      SPCTL
      000000F8H   SFRSYM    DATA     BYTE      P7
      000000E8H   SFRSYM    DATA     BYTE      P6
      000000C8H   SFRSYM    DATA     BYTE      P5
      000000C0H   SFRSYM    DATA     BYTE      P4
      000000ABH   SFRSYM    DATA     BYTE      WKTCH
      000000B0H   SFRSYM    DATA     BYTE      P3
      000000A0H   SFRSYM    DATA     BYTE      P2
      00000090H   SFRSYM    DATA     BYTE      P1
      00000080H   SFRSYM    DATA     BYTE      P0
      00000091H   SFRSYM    DATA     BYTE      P1M1
      00000092H   SFRSYM    DATA     BYTE      P1M0
      00000093H   SFRSYM    DATA     BYTE      P0M1
      000114C1H   SYMBOL    XDATA    BYTE      adc_resolution
      00011286H   SYMBOL    XDATA    INT       ch
      00011288H   SYMBOL    XDATA    BYTE      count
      00011289H   SYMBOL    XDATA    BYTE      i
      0001128AH   SYMBOL    XDATA    DWORD     sum
      000113DCH   SYMBOL    XDATA    INT       ch
      000113DEH   SYMBOL    XDATA    WORD      adc_value
      000113E0H   SYMBOL    XDATA    INT       ch
      000113E2H   SYMBOL    XDATA    INT       resolution

      ---         MODULE    ---      ---       zf_driver_delay
      00FFDB49H   PUBLIC    CODE     ---       system_delay_init
      00FFD5E8H   PUBLIC    CODE     ---       system_delay_ms
      000000D0H   SFRSYM    DATA     BYTE      PSW
      0000009DH   SFRSYM    DATA     BYTE      IRCBAND
      00000097H   SFRSYM    DATA     BYTE      AUXR2
      000000EFH   SFRSYM    DATA     BYTE      AUXINTIF
      000000FDH   SFRSYM    DATA     BYTE      S4CON
      000000ACH   SFRSYM    DATA     BYTE      S3CON
      0000009AH   SFRSYM    DATA     BYTE      S2CON
      000000B7H   SFRSYM    DATA     BYTE      IPH
      000000CDH   SFRSYM    DATA     BYTE      SPSTAT
      000000DDH   SFRSYM    DATA     BYTE      T4T3M
      000000C1H   SFRSYM    DATA     BYTE      WDT_CONTR
L251 LINKER/LOCATER V4.66.93.0                                                        05/05/2025  21:49:10  PAGE 60


      000000DFH   SFRSYM    DATA     BYTE      IP3
      000000F4H   SFRSYM    DATA     BYTE      USBCON
      000000B5H   SFRSYM    DATA     BYTE      IP2
      000000FFH   SFRSYM    DATA     BYTE      RSTCFG
      000000C7H   SFRSYM    DATA     BYTE      IAP_CONTR
      0000008EH   SFRSYM    DATA     BYTE      AUXR
      000000AFH   SFRSYM    DATA     BYTE      IE2
      00000088H   SFRSYM    DATA     BYTE      TCON
      00000089H   SFRSYM    DATA     BYTE      TMOD
      00000098H   SFRSYM    DATA     BYTE      SCON
      00000087H   SFRSYM    DATA     BYTE      PCON
      000000BCH   SFRSYM    DATA     BYTE      ADC_CONTR
      000000D1H   SFRSYM    DATA     BYTE      PSW1
      000000E7H   SFRSYM    DATA     BYTE      CMPCR2
      000000E6H   SFRSYM    DATA     BYTE      CMPCR1
      000000DEH   SFRSYM    DATA     BYTE      ADCCFG
      000000B8H   SFRSYM    DATA     BYTE      IP
      0000008FH   SFRSYM    DATA     BYTE      INTCLKO
      000000EEH   SFRSYM    DATA     BYTE      IP3H
      000000B6H   SFRSYM    DATA     BYTE      IP2H
      000000BFH   SFRSYM    DATA     BYTE      P_SW4
      000000A8H   SFRSYM    DATA     BYTE      IE
      000000BBH   SFRSYM    DATA     BYTE      P_SW3
      000000BAH   SFRSYM    DATA     BYTE      P_SW2
      000000A2H   SFRSYM    DATA     BYTE      P_SW1
      000000CEH   SFRSYM    DATA     BYTE      SPCTL
      000000F8H   SFRSYM    DATA     BYTE      P7
      000000E8H   SFRSYM    DATA     BYTE      P6
      000000C8H   SFRSYM    DATA     BYTE      P5
      000000C0H   SFRSYM    DATA     BYTE      P4
      000000ABH   SFRSYM    DATA     BYTE      WKTCH
      000000B0H   SFRSYM    DATA     BYTE      P3
      000000A0H   SFRSYM    DATA     BYTE      P2
      00000090H   SFRSYM    DATA     BYTE      P1
      00000080H   SFRSYM    DATA     BYTE      P0
      000113E4H   SYMBOL    XDATA    WORD      pca_delay_1ms
      000113E6H   SYMBOL    XDATA    WORD      pca_delay_1us

      00FFDB49H   BLOCK     CODE     ---       LVL=0
      00FFDB49H   LINE      CODE     ---       #48
      00FFDB49H   LINE      CODE     ---       #50
      00FFDB60H   LINE      CODE     ---       #51
      00FFDB7BH   LINE      CODE     ---       #53
      00FFDB88H   LINE      CODE     ---       #54
      00FFDB95H   LINE      CODE     ---       #55
      00FFDBA5H   LINE      CODE     ---       #57
      ---         BLOCKEND  ---      ---       LVL=0

      00FFD5E8H   BLOCK     CODE     ---       LVL=0
      000113E8H   SYMBOL    XDATA    WORD      ms
      00FFD5EEH   BLOCK     CODE     NEAR LAB  LVL=1
      000113EAH   SYMBOL    XDATA    WORD      temp
      ---         BLOCKEND  ---      ---       LVL=1
      00FFD5E8H   LINE      CODE     ---       #65
      00FFD5EEH   LINE      CODE     ---       #66
      00FFD5EEH   LINE      CODE     ---       #69
      00FFD5F0H   LINE      CODE     ---       #71
      00FFD61AH   LINE      CODE     ---       #73
      00FFD62BH   LINE      CODE     ---       #74
      00FFD640H   LINE      CODE     ---       #76
      00FFD64EH   LINE      CODE     ---       #77
      00FFD65EH   LINE      CODE     ---       #78
      00FFD66FH   LINE      CODE     ---       #79
      ---         BLOCKEND  ---      ---       LVL=0
      000113ECH   SYMBOL    XDATA    WORD      ms
L251 LINKER/LOCATER V4.66.93.0                                                        05/05/2025  21:49:10  PAGE 61


      000113EEH   SYMBOL    XDATA    WORD      temp

      ---         MODULE    ---      ---       zf_driver_encoder
      000000D0H   SFRSYM    DATA     BYTE      PSW
      0000009DH   SFRSYM    DATA     BYTE      IRCBAND
      00000097H   SFRSYM    DATA     BYTE      AUXR2
      000000EFH   SFRSYM    DATA     BYTE      AUXINTIF
      000000FDH   SFRSYM    DATA     BYTE      S4CON
      000000ACH   SFRSYM    DATA     BYTE      S3CON
      0000009AH   SFRSYM    DATA     BYTE      S2CON
      000000B7H   SFRSYM    DATA     BYTE      IPH
      000000CDH   SFRSYM    DATA     BYTE      SPSTAT
      000000DDH   SFRSYM    DATA     BYTE      T4T3M
      000000C1H   SFRSYM    DATA     BYTE      WDT_CONTR
      00000088H.6 SFRSYM    DATA     BIT       TR1
      00000088H.4 SFRSYM    DATA     BIT       TR0
      000000D3H   SFRSYM    DATA     BYTE      T4L
      000000D5H   SFRSYM    DATA     BYTE      T3L
      000000D7H   SFRSYM    DATA     BYTE      T2L
      0000008BH   SFRSYM    DATA     BYTE      TL1
      0000008AH   SFRSYM    DATA     BYTE      TL0
      000000D2H   SFRSYM    DATA     BYTE      T4H
      000000D4H   SFRSYM    DATA     BYTE      T3H
      000000D6H   SFRSYM    DATA     BYTE      T2H
      0000008DH   SFRSYM    DATA     BYTE      TH1
      0000008CH   SFRSYM    DATA     BYTE      TH0
      000000DFH   SFRSYM    DATA     BYTE      IP3
      000000F4H   SFRSYM    DATA     BYTE      USBCON
      000000B5H   SFRSYM    DATA     BYTE      IP2
      000000FFH   SFRSYM    DATA     BYTE      RSTCFG
      000000C7H   SFRSYM    DATA     BYTE      IAP_CONTR
      0000008EH   SFRSYM    DATA     BYTE      AUXR
      000000AFH   SFRSYM    DATA     BYTE      IE2
      00000088H   SFRSYM    DATA     BYTE      TCON
      00000089H   SFRSYM    DATA     BYTE      TMOD
      00000098H   SFRSYM    DATA     BYTE      SCON
      00000087H   SFRSYM    DATA     BYTE      PCON
      000000BCH   SFRSYM    DATA     BYTE      ADC_CONTR
      000000D1H   SFRSYM    DATA     BYTE      PSW1
      000000E7H   SFRSYM    DATA     BYTE      CMPCR2
      000000E6H   SFRSYM    DATA     BYTE      CMPCR1
      000000DEH   SFRSYM    DATA     BYTE      ADCCFG
      000000B8H   SFRSYM    DATA     BYTE      IP
      0000008FH   SFRSYM    DATA     BYTE      INTCLKO
      000000EEH   SFRSYM    DATA     BYTE      IP3H
      000000B6H   SFRSYM    DATA     BYTE      IP2H
      000000BFH   SFRSYM    DATA     BYTE      P_SW4
      000000A8H   SFRSYM    DATA     BYTE      IE
      000000BBH   SFRSYM    DATA     BYTE      P_SW3
      000000BAH   SFRSYM    DATA     BYTE      P_SW2
      000000A2H   SFRSYM    DATA     BYTE      P_SW1
      000000CEH   SFRSYM    DATA     BYTE      SPCTL
      000000F8H   SFRSYM    DATA     BYTE      P7
      000000E8H   SFRSYM    DATA     BYTE      P6
      000000C8H   SFRSYM    DATA     BYTE      P5
      000000C0H   SFRSYM    DATA     BYTE      P4
      000000ABH   SFRSYM    DATA     BYTE      WKTCH
      000000B0H   SFRSYM    DATA     BYTE      P3
      000000A0H   SFRSYM    DATA     BYTE      P2
      00000090H   SFRSYM    DATA     BYTE      P1
      00000080H   SFRSYM    DATA     BYTE      P0
      0001130FH   SYMBOL    XDATA    ---       encoder_dir_pin
      000113F0H   SYMBOL    XDATA    INT       encoder_n
      000113F2H   SYMBOL    XDATA    INT       dat
      000114A0H   SYMBOL    XDATA    INT       encoder_n
L251 LINKER/LOCATER V4.66.93.0                                                        05/05/2025  21:49:10  PAGE 62


      00011315H   SYMBOL    XDATA    INT       encoder_n
      00011317H   SYMBOL    XDATA    INT       dir_pin
      00011319H   SYMBOL    XDATA    INT       lsb_pin

      ---         MODULE    ---      ---       zf_driver_exti
      000000D0H   SFRSYM    DATA     BYTE      PSW
      0000009DH   SFRSYM    DATA     BYTE      IRCBAND
      00000097H   SFRSYM    DATA     BYTE      AUXR2
      000000EFH   SFRSYM    DATA     BYTE      AUXINTIF
      000000FDH   SFRSYM    DATA     BYTE      S4CON
      000000ACH   SFRSYM    DATA     BYTE      S3CON
      0000009AH   SFRSYM    DATA     BYTE      S2CON
      000000B7H   SFRSYM    DATA     BYTE      IPH
      000000CDH   SFRSYM    DATA     BYTE      SPSTAT
      000000DDH   SFRSYM    DATA     BYTE      T4T3M
      000000C1H   SFRSYM    DATA     BYTE      WDT_CONTR
      000000DFH   SFRSYM    DATA     BYTE      IP3
      000000F4H   SFRSYM    DATA     BYTE      USBCON
      000000B5H   SFRSYM    DATA     BYTE      IP2
      000000FFH   SFRSYM    DATA     BYTE      RSTCFG
      000000C7H   SFRSYM    DATA     BYTE      IAP_CONTR
      0000008EH   SFRSYM    DATA     BYTE      AUXR
      000000AFH   SFRSYM    DATA     BYTE      IE2
      00000088H   SFRSYM    DATA     BYTE      TCON
      00000089H   SFRSYM    DATA     BYTE      TMOD
      00000098H   SFRSYM    DATA     BYTE      SCON
      00000087H   SFRSYM    DATA     BYTE      PCON
      000000BCH   SFRSYM    DATA     BYTE      ADC_CONTR
      000000D1H   SFRSYM    DATA     BYTE      PSW1
      000000E7H   SFRSYM    DATA     BYTE      CMPCR2
      000000E6H   SFRSYM    DATA     BYTE      CMPCR1
      000000DEH   SFRSYM    DATA     BYTE      ADCCFG
      000000B8H   SFRSYM    DATA     BYTE      IP
      0000008FH   SFRSYM    DATA     BYTE      INTCLKO
      000000EEH   SFRSYM    DATA     BYTE      IP3H
      000000B6H   SFRSYM    DATA     BYTE      IP2H
      000000BFH   SFRSYM    DATA     BYTE      P_SW4
      000000A8H   SFRSYM    DATA     BYTE      IE
      000000BBH   SFRSYM    DATA     BYTE      P_SW3
      000000BAH   SFRSYM    DATA     BYTE      P_SW2
      000000A2H   SFRSYM    DATA     BYTE      P_SW1
      000000CEH   SFRSYM    DATA     BYTE      SPCTL
      000000F8H   SFRSYM    DATA     BYTE      P7
      000000E8H   SFRSYM    DATA     BYTE      P6
      000000C8H   SFRSYM    DATA     BYTE      P5
      000000C0H   SFRSYM    DATA     BYTE      P4
      000000ABH   SFRSYM    DATA     BYTE      WKTCH
      000000B0H   SFRSYM    DATA     BYTE      P3
      000000A0H   SFRSYM    DATA     BYTE      P2
      00000090H   SFRSYM    DATA     BYTE      P1
      00000080H   SFRSYM    DATA     BYTE      P0

      ---         MODULE    ---      ---       zf_driver_gpio
      00FFC756H   PUBLIC    CODE     ---       gpio_init
      00FFC18EH   PUBLIC    CODE     ---       gpio_get_level
      00FF8646H   PUBLIC    CODE     ---       gpio_set_level_speed
      00FFA413H   PUBLIC    CODE     ---       gpio_set_level
      00FFAF00H   PUBLIC    CODE     ---       gpio_set_impedance
      00000094H   SFRSYM    DATA     BYTE      P0M0
      000000D0H   SFRSYM    DATA     BYTE      PSW
      0000009DH   SFRSYM    DATA     BYTE      IRCBAND
      00000097H   SFRSYM    DATA     BYTE      AUXR2
      000000EFH   SFRSYM    DATA     BYTE      AUXINTIF
      000000FDH   SFRSYM    DATA     BYTE      S4CON
      000000ACH   SFRSYM    DATA     BYTE      S3CON
L251 LINKER/LOCATER V4.66.93.0                                                        05/05/2025  21:49:10  PAGE 63


      0000009AH   SFRSYM    DATA     BYTE      S2CON
      000000B7H   SFRSYM    DATA     BYTE      IPH
      000000CDH   SFRSYM    DATA     BYTE      SPSTAT
      000000DDH   SFRSYM    DATA     BYTE      T4T3M
      000000C1H   SFRSYM    DATA     BYTE      WDT_CONTR
      000000DFH   SFRSYM    DATA     BYTE      IP3
      000000F4H   SFRSYM    DATA     BYTE      USBCON
      000000B5H   SFRSYM    DATA     BYTE      IP2
      000000FFH   SFRSYM    DATA     BYTE      RSTCFG
      000000C7H   SFRSYM    DATA     BYTE      IAP_CONTR
      0000008EH   SFRSYM    DATA     BYTE      AUXR
      000000AFH   SFRSYM    DATA     BYTE      IE2
      00000088H   SFRSYM    DATA     BYTE      TCON
      00000089H   SFRSYM    DATA     BYTE      TMOD
      00000098H   SFRSYM    DATA     BYTE      SCON
      00000087H   SFRSYM    DATA     BYTE      PCON
      000000BCH   SFRSYM    DATA     BYTE      ADC_CONTR
      000000D1H   SFRSYM    DATA     BYTE      PSW1
      000000E7H   SFRSYM    DATA     BYTE      CMPCR2
      000000E6H   SFRSYM    DATA     BYTE      CMPCR1
      000000DEH   SFRSYM    DATA     BYTE      ADCCFG
      000000B8H   SFRSYM    DATA     BYTE      IP
      0000008FH   SFRSYM    DATA     BYTE      INTCLKO
      000000EEH   SFRSYM    DATA     BYTE      IP3H
      000000B6H   SFRSYM    DATA     BYTE      IP2H
      000000BFH   SFRSYM    DATA     BYTE      P_SW4
      000000A8H   SFRSYM    DATA     BYTE      IE
      000000BBH   SFRSYM    DATA     BYTE      P_SW3
      000000BAH   SFRSYM    DATA     BYTE      P_SW2
      000000A2H   SFRSYM    DATA     BYTE      P_SW1
      000000CEH   SFRSYM    DATA     BYTE      SPCTL
      000000F8H   SFRSYM    DATA     BYTE      P7
      000000E8H   SFRSYM    DATA     BYTE      P6
      000000C8H   SFRSYM    DATA     BYTE      P5
      000000C0H   SFRSYM    DATA     BYTE      P4
      000000C9H   SFRSYM    DATA     BYTE      P5M1
      000000ABH   SFRSYM    DATA     BYTE      WKTCH
      000000B0H   SFRSYM    DATA     BYTE      P3
      000000B3H   SFRSYM    DATA     BYTE      P4M1
      000000CAH   SFRSYM    DATA     BYTE      P5M0
      000000A0H   SFRSYM    DATA     BYTE      P2
      000000B1H   SFRSYM    DATA     BYTE      P3M1
      000000B4H   SFRSYM    DATA     BYTE      P4M0
      00000090H   SFRSYM    DATA     BYTE      P1
      00000095H   SFRSYM    DATA     BYTE      P2M1
      000000B2H   SFRSYM    DATA     BYTE      P3M0
      00000080H   SFRSYM    DATA     BYTE      P0
      00000091H   SFRSYM    DATA     BYTE      P1M1
      00000096H   SFRSYM    DATA     BYTE      P2M0
      00000092H   SFRSYM    DATA     BYTE      P1M0
      00000093H   SFRSYM    DATA     BYTE      P0M1
      00FF73BBH   SYMBOL    CODE     ---       gpio_set_dir
      00FF890DH   SYMBOL    CODE     ---       gpio_set_mode

      00FF890DH   BLOCK     CODE     ---       LVL=0
      000113F4H   SYMBOL    XDATA    INT       pin
      000113F6H   SYMBOL    XDATA    INT       mode
      00FF890DH   LINE      CODE     ---       #45
      00FF8919H   LINE      CODE     ---       #51
      00FF8931H   LINE      CODE     ---       #53
      00FF8968H   LINE      CODE     ---       #54
      00FF899FH   LINE      CODE     ---       #55
      00FF89A2H   LINE      CODE     ---       #56
      00FF89AEH   LINE      CODE     ---       #58
      00FF89E3H   LINE      CODE     ---       #59
L251 LINKER/LOCATER V4.66.93.0                                                        05/05/2025  21:49:10  PAGE 64


      00FF89E6H   LINE      CODE     ---       #60
      00FF89FEH   LINE      CODE     ---       #62
      00FF8A33H   LINE      CODE     ---       #63
      00FF8A36H   LINE      CODE     ---       #64
      00FF8A45H   LINE      CODE     ---       #66
      00FF8A82H   LINE      CODE     ---       #68
      00FF8A82H   LINE      CODE     ---       #70
      00FF8A99H   LINE      CODE     ---       #71
      00FF8AB0H   LINE      CODE     ---       #73
      00FF8AB3H   LINE      CODE     ---       #75
      00FF8AB3H   LINE      CODE     ---       #77
      00FF8ACAH   LINE      CODE     ---       #78
      00FF8AE1H   LINE      CODE     ---       #80
      00FF8AE4H   LINE      CODE     ---       #82
      00FF8AE4H   LINE      CODE     ---       #84
      00FF8AFBH   LINE      CODE     ---       #85
      00FF8B12H   LINE      CODE     ---       #87
      00FF8B15H   LINE      CODE     ---       #89
      00FF8B15H   LINE      CODE     ---       #91
      00FF8B2CH   LINE      CODE     ---       #92
      00FF8B43H   LINE      CODE     ---       #94
      00FF8B45H   LINE      CODE     ---       #96
      00FF8B45H   LINE      CODE     ---       #98
      00FF8B5CH   LINE      CODE     ---       #99
      00FF8B73H   LINE      CODE     ---       #101
      00FF8B75H   LINE      CODE     ---       #103
      00FF8B75H   LINE      CODE     ---       #105
      00FF8B8CH   LINE      CODE     ---       #106
      00FF8BA3H   LINE      CODE     ---       #108
      00FF8BA3H   LINE      CODE     ---       #109
      00FF8BA3H   LINE      CODE     ---       #112
      00FF8BA3H   LINE      CODE     ---       #113
      00FF8BA3H   LINE      CODE     ---       #114
      00FF8BA3H   LINE      CODE     ---       #119
      00FF8BA3H   LINE      CODE     ---       #120
      ---         BLOCKEND  ---      ---       LVL=0

      00FF8646H   BLOCK     CODE     ---       LVL=0
      000113F8H   SYMBOL    XDATA    INT       pin
      000113FAH   SYMBOL    XDATA    INT       speed
      00FF8646H   LINE      CODE     ---       #123
      00FF8652H   LINE      CODE     ---       #125
      00FF8692H   LINE      CODE     ---       #127
      00FF8692H   LINE      CODE     ---       #129
      00FF869CH   LINE      CODE     ---       #131
      00FF86C3H   LINE      CODE     ---       #132
      00FF86C6H   LINE      CODE     ---       #133
      00FF86D5H   LINE      CODE     ---       #135
      00FF86FAH   LINE      CODE     ---       #136
      00FF86FDH   LINE      CODE     ---       #141
      00FF86FDH   LINE      CODE     ---       #143
      00FF86FDH   LINE      CODE     ---       #145
      00FF86FDH   LINE      CODE     ---       #147
      00FF8707H   LINE      CODE     ---       #149
      00FF872EH   LINE      CODE     ---       #150
      00FF8731H   LINE      CODE     ---       #151
      00FF8740H   LINE      CODE     ---       #153
      00FF8765H   LINE      CODE     ---       #154
      00FF8768H   LINE      CODE     ---       #159
      00FF8768H   LINE      CODE     ---       #161
      00FF8768H   LINE      CODE     ---       #163
      00FF8768H   LINE      CODE     ---       #165
      00FF8772H   LINE      CODE     ---       #167
      00FF8799H   LINE      CODE     ---       #168
      00FF879CH   LINE      CODE     ---       #169
L251 LINKER/LOCATER V4.66.93.0                                                        05/05/2025  21:49:10  PAGE 65


      00FF87ABH   LINE      CODE     ---       #171
      00FF87D0H   LINE      CODE     ---       #172
      00FF87D3H   LINE      CODE     ---       #177
      00FF87D3H   LINE      CODE     ---       #179
      00FF87D3H   LINE      CODE     ---       #181
      00FF87D3H   LINE      CODE     ---       #183
      00FF87DDH   LINE      CODE     ---       #185
      00FF8804H   LINE      CODE     ---       #186
      00FF8807H   LINE      CODE     ---       #187
      00FF8816H   LINE      CODE     ---       #189
      00FF883BH   LINE      CODE     ---       #190
      00FF883EH   LINE      CODE     ---       #195
      00FF883EH   LINE      CODE     ---       #197
      00FF883EH   LINE      CODE     ---       #199
      00FF883EH   LINE      CODE     ---       #201
      00FF8848H   LINE      CODE     ---       #203
      00FF886FH   LINE      CODE     ---       #204
      00FF8872H   LINE      CODE     ---       #205
      00FF8881H   LINE      CODE     ---       #207
      00FF88A6H   LINE      CODE     ---       #208
      00FF88A8H   LINE      CODE     ---       #213
      00FF88A8H   LINE      CODE     ---       #215
      00FF88A8H   LINE      CODE     ---       #217
      00FF88A8H   LINE      CODE     ---       #219
      00FF88B2H   LINE      CODE     ---       #221
      00FF88D9H   LINE      CODE     ---       #222
      00FF88DBH   LINE      CODE     ---       #223
      00FF88E7H   LINE      CODE     ---       #225
      00FF890CH   LINE      CODE     ---       #226
      00FF890CH   LINE      CODE     ---       #231
      00FF890CH   LINE      CODE     ---       #233
      00FF890CH   LINE      CODE     ---       #235
      00FF890CH   LINE      CODE     ---       #239
      00FF890CH   LINE      CODE     ---       #240
      00FF890CH   LINE      CODE     ---       #241
      ---         BLOCKEND  ---      ---       LVL=0

      00FF73BBH   BLOCK     CODE     ---       LVL=0
      000113FCH   SYMBOL    XDATA    INT       pin
      000113FEH   SYMBOL    XDATA    INT       dir
      00FF73BBH   LINE      CODE     ---       #245
      00FF73C7H   LINE      CODE     ---       #247
      00FF7407H   LINE      CODE     ---       #249
      00FF7407H   LINE      CODE     ---       #251
      00FF7413H   LINE      CODE     ---       #253
      00FF742CH   LINE      CODE     ---       #254
      00FF7445H   LINE      CODE     ---       #255
      00FF7448H   LINE      CODE     ---       #261
      00FF7454H   LINE      CODE     ---       #263
      00FF746DH   LINE      CODE     ---       #264
      00FF7484H   LINE      CODE     ---       #265
      00FF7487H   LINE      CODE     ---       #266
      00FF7494H   LINE      CODE     ---       #268
      00FF74ABH   LINE      CODE     ---       #269
      00FF74C4H   LINE      CODE     ---       #270
      00FF74C4H   LINE      CODE     ---       #272
      00FF74C7H   LINE      CODE     ---       #274
      00FF74C7H   LINE      CODE     ---       #276
      00FF74D3H   LINE      CODE     ---       #278
      00FF74ECH   LINE      CODE     ---       #279
      00FF7505H   LINE      CODE     ---       #280
      00FF7508H   LINE      CODE     ---       #286
      00FF7514H   LINE      CODE     ---       #288
      00FF752DH   LINE      CODE     ---       #289
      00FF7544H   LINE      CODE     ---       #290
L251 LINKER/LOCATER V4.66.93.0                                                        05/05/2025  21:49:10  PAGE 66


      00FF7547H   LINE      CODE     ---       #291
      00FF7554H   LINE      CODE     ---       #293
      00FF756BH   LINE      CODE     ---       #294
      00FF7584H   LINE      CODE     ---       #295
      00FF7584H   LINE      CODE     ---       #297
      00FF7587H   LINE      CODE     ---       #299
      00FF7587H   LINE      CODE     ---       #301
      00FF7593H   LINE      CODE     ---       #303
      00FF75ACH   LINE      CODE     ---       #304
      00FF75C5H   LINE      CODE     ---       #305
      00FF75C8H   LINE      CODE     ---       #311
      00FF75D4H   LINE      CODE     ---       #313
      00FF75EDH   LINE      CODE     ---       #314
      00FF7604H   LINE      CODE     ---       #315
      00FF7607H   LINE      CODE     ---       #316
      00FF7614H   LINE      CODE     ---       #318
      00FF762BH   LINE      CODE     ---       #319
      00FF7644H   LINE      CODE     ---       #320
      00FF7644H   LINE      CODE     ---       #322
      00FF7647H   LINE      CODE     ---       #324
      00FF7647H   LINE      CODE     ---       #326
      00FF7653H   LINE      CODE     ---       #328
      00FF766CH   LINE      CODE     ---       #329
      00FF7685H   LINE      CODE     ---       #330
      00FF7688H   LINE      CODE     ---       #336
      00FF7694H   LINE      CODE     ---       #338
      00FF76ADH   LINE      CODE     ---       #339
      00FF76C4H   LINE      CODE     ---       #340
      00FF76C7H   LINE      CODE     ---       #341
      00FF76D4H   LINE      CODE     ---       #343
      00FF76EBH   LINE      CODE     ---       #344
      00FF7704H   LINE      CODE     ---       #345
      00FF7704H   LINE      CODE     ---       #347
      00FF7707H   LINE      CODE     ---       #349
      00FF7707H   LINE      CODE     ---       #351
      00FF7713H   LINE      CODE     ---       #353
      00FF772CH   LINE      CODE     ---       #354
      00FF7745H   LINE      CODE     ---       #355
      00FF7748H   LINE      CODE     ---       #361
      00FF7754H   LINE      CODE     ---       #363
      00FF776DH   LINE      CODE     ---       #364
      00FF7784H   LINE      CODE     ---       #365
      00FF7787H   LINE      CODE     ---       #366
      00FF7794H   LINE      CODE     ---       #368
      00FF77ABH   LINE      CODE     ---       #369
      00FF77C4H   LINE      CODE     ---       #370
      00FF77C4H   LINE      CODE     ---       #372
      00FF77C7H   LINE      CODE     ---       #374
      00FF77C7H   LINE      CODE     ---       #376
      00FF77D3H   LINE      CODE     ---       #378
      00FF77ECH   LINE      CODE     ---       #379
      00FF7805H   LINE      CODE     ---       #380
      00FF7807H   LINE      CODE     ---       #386
      00FF7813H   LINE      CODE     ---       #388
      00FF782CH   LINE      CODE     ---       #389
      00FF7843H   LINE      CODE     ---       #390
      00FF7845H   LINE      CODE     ---       #391
      00FF784FH   LINE      CODE     ---       #393
      00FF7866H   LINE      CODE     ---       #394
      00FF787FH   LINE      CODE     ---       #395
      00FF787FH   LINE      CODE     ---       #397
      00FF787FH   LINE      CODE     ---       #399
      00FF787FH   LINE      CODE     ---       #403
      00FF787FH   LINE      CODE     ---       #404
      00FF787FH   LINE      CODE     ---       #405
L251 LINKER/LOCATER V4.66.93.0                                                        05/05/2025  21:49:10  PAGE 67


      ---         BLOCKEND  ---      ---       LVL=0

      00FFC18EH   BLOCK     CODE     ---       LVL=0
      0001147FH   SYMBOL    XDATA    INT       pin
      00FFC194H   BLOCK     CODE     NEAR LAB  LVL=1
      00011481H   SYMBOL    XDATA    BYTE      status
      ---         BLOCKEND  ---      ---       LVL=1
      00FFC18EH   LINE      CODE     ---       #413
      00FFC194H   LINE      CODE     ---       #414
      00FFC194H   LINE      CODE     ---       #415
      00FFC199H   LINE      CODE     ---       #417
      00FFC1D0H   LINE      CODE     ---       #419
      00FFC1D0H   LINE      CODE     ---       #421
      00FFC1EDH   LINE      CODE     ---       #423
      00FFC1F0H   LINE      CODE     ---       #425
      00FFC1F0H   LINE      CODE     ---       #427
      00FFC20DH   LINE      CODE     ---       #429
      00FFC20FH   LINE      CODE     ---       #431
      00FFC20FH   LINE      CODE     ---       #433
      00FFC22CH   LINE      CODE     ---       #435
      00FFC22EH   LINE      CODE     ---       #437
      00FFC22EH   LINE      CODE     ---       #439
      00FFC24BH   LINE      CODE     ---       #441
      00FFC24DH   LINE      CODE     ---       #443
      00FFC24DH   LINE      CODE     ---       #445
      00FFC26AH   LINE      CODE     ---       #447
      00FFC26CH   LINE      CODE     ---       #449
      00FFC26CH   LINE      CODE     ---       #451
      00FFC289H   LINE      CODE     ---       #453
      00FFC289H   LINE      CODE     ---       #455
      00FFC289H   LINE      CODE     ---       #459
      00FFC289H   LINE      CODE     ---       #460
      00FFC289H   LINE      CODE     ---       #462
      00FFC294H   LINE      CODE     ---       #463
      ---         BLOCKEND  ---      ---       LVL=0

      00FFA413H   BLOCK     CODE     ---       LVL=0
      00011482H   SYMBOL    XDATA    INT       pin
      00011484H   SYMBOL    XDATA    BYTE      dat
      00FFA413H   LINE      CODE     ---       #472
      00FFA41DH   LINE      CODE     ---       #474
      00FFA45AH   LINE      CODE     ---       #476
      00FFA45AH   LINE      CODE     ---       #478
      00FFA460H   LINE      CODE     ---       #480
      00FFA477H   LINE      CODE     ---       #481
      00FFA47AH   LINE      CODE     ---       #484
      00FFA493H   LINE      CODE     ---       #485
      00FFA493H   LINE      CODE     ---       #487
      00FFA496H   LINE      CODE     ---       #489
      00FFA496H   LINE      CODE     ---       #491
      00FFA49CH   LINE      CODE     ---       #493
      00FFA4B3H   LINE      CODE     ---       #494
      00FFA4B6H   LINE      CODE     ---       #497
      00FFA4CFH   LINE      CODE     ---       #498
      00FFA4CFH   LINE      CODE     ---       #500
      00FFA4D2H   LINE      CODE     ---       #502
      00FFA4D2H   LINE      CODE     ---       #504
      00FFA4D8H   LINE      CODE     ---       #506
      00FFA4EFH   LINE      CODE     ---       #507
      00FFA4F2H   LINE      CODE     ---       #510
      00FFA50BH   LINE      CODE     ---       #511
      00FFA50BH   LINE      CODE     ---       #513
      00FFA50EH   LINE      CODE     ---       #515
      00FFA50EH   LINE      CODE     ---       #517
      00FFA514H   LINE      CODE     ---       #519
L251 LINKER/LOCATER V4.66.93.0                                                        05/05/2025  21:49:10  PAGE 68


      00FFA52BH   LINE      CODE     ---       #520
      00FFA52EH   LINE      CODE     ---       #523
      00FFA547H   LINE      CODE     ---       #524
      00FFA547H   LINE      CODE     ---       #526
      00FFA549H   LINE      CODE     ---       #528
      00FFA549H   LINE      CODE     ---       #530
      00FFA54FH   LINE      CODE     ---       #532
      00FFA566H   LINE      CODE     ---       #533
      00FFA568H   LINE      CODE     ---       #536
      00FFA581H   LINE      CODE     ---       #537
      00FFA581H   LINE      CODE     ---       #539
      00FFA583H   LINE      CODE     ---       #541
      00FFA583H   LINE      CODE     ---       #543
      00FFA589H   LINE      CODE     ---       #545
      00FFA5A0H   LINE      CODE     ---       #546
      00FFA5A2H   LINE      CODE     ---       #549
      00FFA5BBH   LINE      CODE     ---       #550
      00FFA5BBH   LINE      CODE     ---       #552
      00FFA5BBH   LINE      CODE     ---       #554
      00FFA5BBH   LINE      CODE     ---       #558
      00FFA5BBH   LINE      CODE     ---       #559
      00FFA5BBH   LINE      CODE     ---       #560
      ---         BLOCKEND  ---      ---       LVL=0
      000114A2H   SYMBOL    XDATA    INT       pin

      00FFAF00H   BLOCK     CODE     ---       LVL=0
      000114A4H   SYMBOL    XDATA    INT       pin
      00FFAF00H   LINE      CODE     ---       #587
      00FFAF06H   LINE      CODE     ---       #589
      00FFAF43H   LINE      CODE     ---       #591
      00FFAF43H   LINE      CODE     ---       #593
      00FFAF5AH   LINE      CODE     ---       #594
      00FFAF73H   LINE      CODE     ---       #596
      00FFAF76H   LINE      CODE     ---       #598
      00FFAF76H   LINE      CODE     ---       #600
      00FFAF8DH   LINE      CODE     ---       #601
      00FFAFA6H   LINE      CODE     ---       #603
      00FFAFA9H   LINE      CODE     ---       #605
      00FFAFA9H   LINE      CODE     ---       #607
      00FFAFC0H   LINE      CODE     ---       #608
      00FFAFD9H   LINE      CODE     ---       #610
      00FFAFDCH   LINE      CODE     ---       #612
      00FFAFDCH   LINE      CODE     ---       #614
      00FFAFF3H   LINE      CODE     ---       #615
      00FFB00CH   LINE      CODE     ---       #617
      00FFB00EH   LINE      CODE     ---       #619
      00FFB00EH   LINE      CODE     ---       #621
      00FFB025H   LINE      CODE     ---       #622
      00FFB03EH   LINE      CODE     ---       #624
      00FFB040H   LINE      CODE     ---       #626
      00FFB040H   LINE      CODE     ---       #628
      00FFB057H   LINE      CODE     ---       #629
      00FFB070H   LINE      CODE     ---       #631
      00FFB070H   LINE      CODE     ---       #633
      00FFB070H   LINE      CODE     ---       #637
      00FFB070H   LINE      CODE     ---       #638
      00FFB070H   LINE      CODE     ---       #639
      ---         BLOCKEND  ---      ---       LVL=0

      00FFC756H   BLOCK     CODE     ---       LVL=0
      000112E6H   SYMBOL    XDATA    INT       pin
      000112E8H   SYMBOL    XDATA    INT       dir
      000112EAH   SYMBOL    XDATA    BYTE      dat
      000112EBH   SYMBOL    XDATA    INT       mode
      00FFC756H   LINE      CODE     ---       #650
L251 LINKER/LOCATER V4.66.93.0                                                        05/05/2025  21:49:10  PAGE 69


      00FFC76CH   LINE      CODE     ---       #654
      00FFC778H   LINE      CODE     ---       #656
      00FFC785H   LINE      CODE     ---       #657
      00FFC794H   LINE      CODE     ---       #658
      00FFC797H   LINE      CODE     ---       #659
      00FFC7A1H   LINE      CODE     ---       #661
      00FFC7ABH   LINE      CODE     ---       #663
      00FFC7B4H   LINE      CODE     ---       #664
      00FFC7B6H   LINE      CODE     ---       #667
      00FFC7C1H   LINE      CODE     ---       #668
      00FFC7D0H   LINE      CODE     ---       #669
      00FFC7D0H   LINE      CODE     ---       #670
      00FFC7D2H   LINE      CODE     ---       #671
      00FFC7DEH   LINE      CODE     ---       #673
      00FFC7EAH   LINE      CODE     ---       #675
      00FFC7F7H   LINE      CODE     ---       #676
      00FFC804H   LINE      CODE     ---       #677
      00FFC806H   LINE      CODE     ---       #678
      00FFC812H   LINE      CODE     ---       #680
      00FFC81FH   LINE      CODE     ---       #681
      00FFC81FH   LINE      CODE     ---       #683
      00FFC82CH   LINE      CODE     ---       #684
      ---         BLOCKEND  ---      ---       LVL=0

      ---         MODULE    ---      ---       zf_driver_pit
      00FF8069H   PUBLIC    CODE     ---       pit_init
      000000D0H   SFRSYM    DATA     BYTE      PSW
      0000009DH   SFRSYM    DATA     BYTE      IRCBAND
      00000097H   SFRSYM    DATA     BYTE      AUXR2
      000000EFH   SFRSYM    DATA     BYTE      AUXINTIF
      000000FDH   SFRSYM    DATA     BYTE      S4CON
      000000ACH   SFRSYM    DATA     BYTE      S3CON
      0000009AH   SFRSYM    DATA     BYTE      S2CON
      000000B7H   SFRSYM    DATA     BYTE      IPH
      000000CDH   SFRSYM    DATA     BYTE      SPSTAT
      000000DDH   SFRSYM    DATA     BYTE      T4T3M
      000000C1H   SFRSYM    DATA     BYTE      WDT_CONTR
      00000088H.6 SFRSYM    DATA     BIT       TR1
      00000088H.4 SFRSYM    DATA     BIT       TR0
      000000D3H   SFRSYM    DATA     BYTE      T4L
      000000D5H   SFRSYM    DATA     BYTE      T3L
      000000D7H   SFRSYM    DATA     BYTE      T2L
      0000008BH   SFRSYM    DATA     BYTE      TL1
      0000008AH   SFRSYM    DATA     BYTE      TL0
      000000D2H   SFRSYM    DATA     BYTE      T4H
      000000D4H   SFRSYM    DATA     BYTE      T3H
      000000D6H   SFRSYM    DATA     BYTE      T2H
      0000008DH   SFRSYM    DATA     BYTE      TH1
      0000008CH   SFRSYM    DATA     BYTE      TH0
      000000DFH   SFRSYM    DATA     BYTE      IP3
      000000F4H   SFRSYM    DATA     BYTE      USBCON
      000000B5H   SFRSYM    DATA     BYTE      IP2
      000000FFH   SFRSYM    DATA     BYTE      RSTCFG
      000000A8H.3 SFRSYM    DATA     BIT       ET1
      000000A8H.1 SFRSYM    DATA     BIT       ET0
      000000C7H   SFRSYM    DATA     BYTE      IAP_CONTR
      0000008EH   SFRSYM    DATA     BYTE      AUXR
      000000AFH   SFRSYM    DATA     BYTE      IE2
      00000088H   SFRSYM    DATA     BYTE      TCON
      00000089H   SFRSYM    DATA     BYTE      TMOD
      00000098H   SFRSYM    DATA     BYTE      SCON
      00000087H   SFRSYM    DATA     BYTE      PCON
      000000BCH   SFRSYM    DATA     BYTE      ADC_CONTR
      000000D1H   SFRSYM    DATA     BYTE      PSW1
      000000E7H   SFRSYM    DATA     BYTE      CMPCR2
L251 LINKER/LOCATER V4.66.93.0                                                        05/05/2025  21:49:10  PAGE 70


      000000E6H   SFRSYM    DATA     BYTE      CMPCR1
      000000DEH   SFRSYM    DATA     BYTE      ADCCFG
      000000B8H   SFRSYM    DATA     BYTE      IP
      0000008FH   SFRSYM    DATA     BYTE      INTCLKO
      000000EEH   SFRSYM    DATA     BYTE      IP3H
      000000B6H   SFRSYM    DATA     BYTE      IP2H
      000000BFH   SFRSYM    DATA     BYTE      P_SW4
      000000A8H   SFRSYM    DATA     BYTE      IE
      000000BBH   SFRSYM    DATA     BYTE      P_SW3
      000000BAH   SFRSYM    DATA     BYTE      P_SW2
      000000A2H   SFRSYM    DATA     BYTE      P_SW1
      000000CEH   SFRSYM    DATA     BYTE      SPCTL
      000000F8H   SFRSYM    DATA     BYTE      P7
      000000E8H   SFRSYM    DATA     BYTE      P6
      000000C8H   SFRSYM    DATA     BYTE      P5
      000000C0H   SFRSYM    DATA     BYTE      P4
      000000ABH   SFRSYM    DATA     BYTE      WKTCH
      000000B0H   SFRSYM    DATA     BYTE      P3
      000000A0H   SFRSYM    DATA     BYTE      P2
      00000090H   SFRSYM    DATA     BYTE      P1
      00000080H   SFRSYM    DATA     BYTE      P0

      00FF8069H   BLOCK     CODE     ---       LVL=0
      00010F76H   SYMBOL    XDATA    INT       pit_n
      00010F78H   SYMBOL    XDATA    DWORD     period
      00FF8079H   BLOCK     CODE     NEAR LAB  LVL=1
      00010F7CH   SYMBOL    XDATA    BYTE      freq_div
      00010F7DH   SYMBOL    XDATA    WORD      period_temp
      00010F7FH   SYMBOL    XDATA    WORD      temp
      ---         BLOCKEND  ---      ---       LVL=1
      00FF8069H   LINE      CODE     ---       #50
      00FF8079H   LINE      CODE     ---       #51
      00FF8079H   LINE      CODE     ---       #52
      00FF807EH   LINE      CODE     ---       #53
      00FF8086H   LINE      CODE     ---       #54
      00FF808EH   LINE      CODE     ---       #57
      00FF80A7H   LINE      CODE     ---       #60
      00FF80BFH   LINE      CODE     ---       #62
      00FF80C9H   LINE      CODE     ---       #64
      00FF80CCH   LINE      CODE     ---       #65
      00FF80CFH   LINE      CODE     ---       #66
      00FF80DBH   LINE      CODE     ---       #68
      00FF80DEH   LINE      CODE     ---       #69
      00FF80E1H   LINE      CODE     ---       #70
      00FF80EDH   LINE      CODE     ---       #72
      00FF80F0H   LINE      CODE     ---       #73
      00FF80F3H   LINE      CODE     ---       #74
      00FF80FFH   LINE      CODE     ---       #76
      00FF8102H   LINE      CODE     ---       #77
      00FF8105H   LINE      CODE     ---       #78
      00FF8111H   LINE      CODE     ---       #80
      00FF8114H   LINE      CODE     ---       #81
      00FF8117H   LINE      CODE     ---       #82
      00FF8126H   LINE      CODE     ---       #84
      00FF8136H   LINE      CODE     ---       #85
      00FF8138H   LINE      CODE     ---       #91
      00FF8142H   LINE      CODE     ---       #93
      00FF8145H   LINE      CODE     ---       #94
      00FF8147H   LINE      CODE     ---       #95
      00FF8153H   LINE      CODE     ---       #97
      00FF8156H   LINE      CODE     ---       #98
      00FF8158H   LINE      CODE     ---       #99
      00FF8164H   LINE      CODE     ---       #101
      00FF8167H   LINE      CODE     ---       #102
      00FF8169H   LINE      CODE     ---       #103
L251 LINKER/LOCATER V4.66.93.0                                                        05/05/2025  21:49:10  PAGE 71


      00FF8175H   LINE      CODE     ---       #105
      00FF8178H   LINE      CODE     ---       #106
      00FF817AH   LINE      CODE     ---       #107
      00FF8186H   LINE      CODE     ---       #109
      00FF8189H   LINE      CODE     ---       #110
      00FF818BH   LINE      CODE     ---       #111
      00FF8197H   LINE      CODE     ---       #113
      00FF81A7H   LINE      CODE     ---       #114
      00FF81A7H   LINE      CODE     ---       #118
      00FF81C5H   LINE      CODE     ---       #119
      00FF81E2H   LINE      CODE     ---       #121
      00FF81F4H   LINE      CODE     ---       #123
      00FF81FEH   LINE      CODE     ---       #125
      00FF820DH   LINE      CODE     ---       #126
      00FF8211H   LINE      CODE     ---       #127
      00FF8219H   LINE      CODE     ---       #128
      00FF8225H   LINE      CODE     ---       #129
      00FF8227H   LINE      CODE     ---       #130
      00FF8229H   LINE      CODE     ---       #131
      00FF822CH   LINE      CODE     ---       #132
      00FF8238H   LINE      CODE     ---       #134
      00FF8247H   LINE      CODE     ---       #135
      00FF824BH   LINE      CODE     ---       #136
      00FF8253H   LINE      CODE     ---       #137
      00FF825FH   LINE      CODE     ---       #138
      00FF8261H   LINE      CODE     ---       #139
      00FF8263H   LINE      CODE     ---       #140
      00FF8266H   LINE      CODE     ---       #141
      00FF8272H   LINE      CODE     ---       #143
      00FF8281H   LINE      CODE     ---       #144
      00FF8289H   LINE      CODE     ---       #145
      00FF8295H   LINE      CODE     ---       #146
      00FF8298H   LINE      CODE     ---       #147
      00FF829BH   LINE      CODE     ---       #148
      00FF829EH   LINE      CODE     ---       #149
      00FF82AAH   LINE      CODE     ---       #151
      00FF82B9H   LINE      CODE     ---       #152
      00FF82C1H   LINE      CODE     ---       #153
      00FF82CDH   LINE      CODE     ---       #154
      00FF82D0H   LINE      CODE     ---       #155
      00FF82D3H   LINE      CODE     ---       #156
      00FF82D6H   LINE      CODE     ---       #157
      00FF82E2H   LINE      CODE     ---       #159
      00FF82F1H   LINE      CODE     ---       #160
      00FF82F9H   LINE      CODE     ---       #161
      00FF8305H   LINE      CODE     ---       #162
      00FF8308H   LINE      CODE     ---       #163
      00FF830BH   LINE      CODE     ---       #164
      00FF830DH   LINE      CODE     ---       #165
      00FF8319H   LINE      CODE     ---       #167
      00FF8328H   LINE      CODE     ---       #168
      00FF8339H   LINE      CODE     ---       #169
      00FF834EH   LINE      CODE     ---       #170
      00FF835BH   LINE      CODE     ---       #172
      ---         BLOCKEND  ---      ---       LVL=0

      ---         MODULE    ---      ---       zf_driver_pwm
      00FFA8F0H   PUBLIC    CODE     ---       pwm_set_duty
      00FF58F9H   PUBLIC    CODE     ---       pwm_init
      00FFE981H   PUBLIC    HCONST   ---       PWM_PSCR_ADDR
      00FFE989H   PUBLIC    HCONST   ---       PWM_CCR_ADDR
      00FFE9A9H   PUBLIC    HCONST   ---       PWM_ARR_ADDR
      00FFE9B1H   PUBLIC    HCONST   ---       PWM_CCER_ADDR
      00FFE9C1H   PUBLIC    HCONST   ---       PWM_CCMR_ADDR
      00010C0EH   PUBLIC    XDATA    BYTE      ?pwm_set_freq?BYTE
L251 LINKER/LOCATER V4.66.93.0                                                        05/05/2025  21:49:10  PAGE 72


      00010C83H   PUBLIC    XDATA    BYTE      ?pwm_init?BYTE
      000000D0H   SFRSYM    DATA     BYTE      PSW
      0000009DH   SFRSYM    DATA     BYTE      IRCBAND
      00000097H   SFRSYM    DATA     BYTE      AUXR2
      000000EFH   SFRSYM    DATA     BYTE      AUXINTIF
      000000FDH   SFRSYM    DATA     BYTE      S4CON
      000000ACH   SFRSYM    DATA     BYTE      S3CON
      0000009AH   SFRSYM    DATA     BYTE      S2CON
      000000B7H   SFRSYM    DATA     BYTE      IPH
      000000CDH   SFRSYM    DATA     BYTE      SPSTAT
      000000DDH   SFRSYM    DATA     BYTE      T4T3M
      000000C1H   SFRSYM    DATA     BYTE      WDT_CONTR
      000000DFH   SFRSYM    DATA     BYTE      IP3
      000000F4H   SFRSYM    DATA     BYTE      USBCON
      000000B5H   SFRSYM    DATA     BYTE      IP2
      000000FFH   SFRSYM    DATA     BYTE      RSTCFG
      000000C7H   SFRSYM    DATA     BYTE      IAP_CONTR
      0000008EH   SFRSYM    DATA     BYTE      AUXR
      000000AFH   SFRSYM    DATA     BYTE      IE2
      00000088H   SFRSYM    DATA     BYTE      TCON
      00000089H   SFRSYM    DATA     BYTE      TMOD
      00000098H   SFRSYM    DATA     BYTE      SCON
      00000087H   SFRSYM    DATA     BYTE      PCON
      000000BCH   SFRSYM    DATA     BYTE      ADC_CONTR
      000000D1H   SFRSYM    DATA     BYTE      PSW1
      000000E7H   SFRSYM    DATA     BYTE      CMPCR2
      000000E6H   SFRSYM    DATA     BYTE      CMPCR1
      000000DEH   SFRSYM    DATA     BYTE      ADCCFG
      000000B8H   SFRSYM    DATA     BYTE      IP
      0000008FH   SFRSYM    DATA     BYTE      INTCLKO
      000000EEH   SFRSYM    DATA     BYTE      IP3H
      000000B6H   SFRSYM    DATA     BYTE      IP2H
      000000BFH   SFRSYM    DATA     BYTE      P_SW4
      000000A8H   SFRSYM    DATA     BYTE      IE
      000000BBH   SFRSYM    DATA     BYTE      P_SW3
      000000BAH   SFRSYM    DATA     BYTE      P_SW2
      000000A2H   SFRSYM    DATA     BYTE      P_SW1
      000000CEH   SFRSYM    DATA     BYTE      SPCTL
      000000F8H   SFRSYM    DATA     BYTE      P7
      000000E8H   SFRSYM    DATA     BYTE      P6
      000000C8H   SFRSYM    DATA     BYTE      P5
      000000C0H   SFRSYM    DATA     BYTE      P4
      000000ABH   SFRSYM    DATA     BYTE      WKTCH
      000000B0H   SFRSYM    DATA     BYTE      P3
      000000A0H   SFRSYM    DATA     BYTE      P2
      00000090H   SFRSYM    DATA     BYTE      P1
      00000080H   SFRSYM    DATA     BYTE      P0
      00010C0EH   SYMBOL    XDATA    INT       pin
      00010C10H   SYMBOL    XDATA    DWORD     freq
      00010C14H   SYMBOL    XDATA    DWORD     duty
      00010C18H   SYMBOL    XDATA    DWORD     match_temp
      00010C1CH   SYMBOL    XDATA    DWORD     period_temp
      00010C20H   SYMBOL    XDATA    WORD      freq_div

      00FFA8F0H   BLOCK     CODE     ---       LVL=0
      00010CE3H   SYMBOL    XDATA    INT       pin
      00010CE5H   SYMBOL    XDATA    DWORD     duty
      00FFA900H   BLOCK     CODE     NEAR LAB  LVL=1
      00010CE9H   SYMBOL    XDATA    DWORD     match_temp
      00010CEDH   SYMBOL    XDATA    DWORD     arr
      ---         BLOCKEND  ---      ---       LVL=1
      00FFA8F0H   LINE      CODE     ---       #132
      00FFA900H   LINE      CODE     ---       #133
      00FFA900H   LINE      CODE     ---       #135
      00FFA96AH   LINE      CODE     ---       #140
L251 LINKER/LOCATER V4.66.93.0                                                        05/05/2025  21:49:10  PAGE 73


      00FFA97AH   LINE      CODE     ---       #142
      00FFA9B3H   LINE      CODE     ---       #143
      00FFA9B5H   LINE      CODE     ---       #146
      00FFA9CBH   LINE      CODE     ---       #147
      00FFA9CBH   LINE      CODE     ---       #150
      00FFAA21H   LINE      CODE     ---       #151
      00FFAA77H   LINE      CODE     ---       #153
      ---         BLOCKEND  ---      ---       LVL=0

      00FF58F9H   BLOCK     CODE     ---       LVL=0
      00010C83H   SYMBOL    XDATA    INT       pin
      00010C85H   SYMBOL    XDATA    DWORD     freq
      00010C89H   SYMBOL    XDATA    DWORD     duty
      00FF5909H   BLOCK     CODE     NEAR LAB  LVL=1
      00010C8DH   SYMBOL    XDATA    WORD      match_temp
      00010C8FH   SYMBOL    XDATA    DWORD     period_temp
      00010C93H   SYMBOL    XDATA    WORD      freq_div
      ---         BLOCKEND  ---      ---       LVL=1
      00FF58F9H   LINE      CODE     ---       #164
      00FF5909H   LINE      CODE     ---       #165
      00FF5909H   LINE      CODE     ---       #167
      00FF5911H   LINE      CODE     ---       #168
      00FF591DH   LINE      CODE     ---       #169
      00FF5925H   LINE      CODE     ---       #174
      00FF593BH   LINE      CODE     ---       #178
      00FF595CH   LINE      CODE     ---       #179
      00FF597DH   LINE      CODE     ---       #180
      00FF599EH   LINE      CODE     ---       #182
      00FF59AEH   LINE      CODE     ---       #184
      00FF59E3H   LINE      CODE     ---       #185
      00FF59E5H   LINE      CODE     ---       #188
      00FF59F7H   LINE      CODE     ---       #189
      00FF59F7H   LINE      CODE     ---       #191
      00FF5A2BH   LINE      CODE     ---       #192
      00FF5A5DH   LINE      CODE     ---       #194
      00FF5A93H   LINE      CODE     ---       #195
      00FF5AC9H   LINE      CODE     ---       #197
      00FF5B1DH   LINE      CODE     ---       #198
      00FF5B6FH   LINE      CODE     ---       #200
      00FF5B82H   LINE      CODE     ---       #202
      00FF5BCBH   LINE      CODE     ---       #203
      00FF5C0AH   LINE      CODE     ---       #204
      00FF5C9AH   LINE      CODE     ---       #206
      00FF5CA7H   LINE      CODE     ---       #207
      00FF5CB4H   LINE      CODE     ---       #208
      00FF5CB7H   LINE      CODE     ---       #209
      00FF5CCEH   LINE      CODE     ---       #211
      00FF5D17H   LINE      CODE     ---       #212
      00FF5D56H   LINE      CODE     ---       #213
      00FF5DD0H   LINE      CODE     ---       #215
      00FF5DDDH   LINE      CODE     ---       #216
      00FF5DEAH   LINE      CODE     ---       #217
      00FF5DEAH   LINE      CODE     ---       #219
      00FF5E39H   LINE      CODE     ---       #220
      00FF5E88H   LINE      CODE     ---       #221
      ---         BLOCKEND  ---      ---       LVL=0

      ---         MODULE    ---      ---       zf_driver_soft_iic
      00010DC6H   PUBLIC    XDATA    BYTE      ?soft_iic_write_8bit_array?BYTE
      00010DD2H   PUBLIC    XDATA    BYTE      ?soft_iic_write_16bit_array?BYTE
      00010D44H   PUBLIC    XDATA    BYTE      ?soft_iic_write_8bit_registers?BYTE
      00010CF1H   PUBLIC    XDATA    BYTE      ?soft_iic_write_16bit_registers?BYTE
      00010DDEH   PUBLIC    XDATA    BYTE      ?soft_iic_read_8bit_array?BYTE
      00010DEAH   PUBLIC    XDATA    BYTE      ?soft_iic_read_16bit_array?BYTE
      00010D51H   PUBLIC    XDATA    BYTE      ?soft_iic_read_8bit_registers?BYTE
L251 LINKER/LOCATER V4.66.93.0                                                        05/05/2025  21:49:10  PAGE 74


      00010CFFH   PUBLIC    XDATA    BYTE      ?soft_iic_read_16bit_registers?BYTE
      00010C22H   PUBLIC    XDATA    BYTE      ?soft_iic_transfer_8bit_array?BYTE
      00010C36H   PUBLIC    XDATA    BYTE      ?soft_iic_transfer_16bit_array?BYTE
      00010D5EH   PUBLIC    XDATA    BYTE      ?soft_iic_init?BYTE
      000000D0H   SFRSYM    DATA     BYTE      PSW
      0000009DH   SFRSYM    DATA     BYTE      IRCBAND
      00000097H   SFRSYM    DATA     BYTE      AUXR2
      000000EFH   SFRSYM    DATA     BYTE      AUXINTIF
      000000FDH   SFRSYM    DATA     BYTE      S4CON
      000000ACH   SFRSYM    DATA     BYTE      S3CON
      0000009AH   SFRSYM    DATA     BYTE      S2CON
      000000B7H   SFRSYM    DATA     BYTE      IPH
      000000CDH   SFRSYM    DATA     BYTE      SPSTAT
      000000DDH   SFRSYM    DATA     BYTE      T4T3M
      000000C1H   SFRSYM    DATA     BYTE      WDT_CONTR
      000000DFH   SFRSYM    DATA     BYTE      IP3
      000000F4H   SFRSYM    DATA     BYTE      USBCON
      000000B5H   SFRSYM    DATA     BYTE      IP2
      000000FFH   SFRSYM    DATA     BYTE      RSTCFG
      000000C7H   SFRSYM    DATA     BYTE      IAP_CONTR
      0000008EH   SFRSYM    DATA     BYTE      AUXR
      000000AFH   SFRSYM    DATA     BYTE      IE2
      00000088H   SFRSYM    DATA     BYTE      TCON
      00000089H   SFRSYM    DATA     BYTE      TMOD
      00000098H   SFRSYM    DATA     BYTE      SCON
      00000087H   SFRSYM    DATA     BYTE      PCON
      000000BCH   SFRSYM    DATA     BYTE      ADC_CONTR
      000000D1H   SFRSYM    DATA     BYTE      PSW1
      000000E7H   SFRSYM    DATA     BYTE      CMPCR2
      000000E6H   SFRSYM    DATA     BYTE      CMPCR1
      000000DEH   SFRSYM    DATA     BYTE      ADCCFG
      000000B8H   SFRSYM    DATA     BYTE      IP
      0000008FH   SFRSYM    DATA     BYTE      INTCLKO
      000000EEH   SFRSYM    DATA     BYTE      IP3H
      000000B6H   SFRSYM    DATA     BYTE      IP2H
      000000BFH   SFRSYM    DATA     BYTE      P_SW4
      000000A8H   SFRSYM    DATA     BYTE      IE
      000000BBH   SFRSYM    DATA     BYTE      P_SW3
      000000BAH   SFRSYM    DATA     BYTE      P_SW2
      000000A2H   SFRSYM    DATA     BYTE      P_SW1
      000000CEH   SFRSYM    DATA     BYTE      SPCTL
      000000F8H   SFRSYM    DATA     BYTE      P7
      000000E8H   SFRSYM    DATA     BYTE      P6
      000000C8H   SFRSYM    DATA     BYTE      P5
      000000C0H   SFRSYM    DATA     BYTE      P4
      000000ABH   SFRSYM    DATA     BYTE      WKTCH
      000000B0H   SFRSYM    DATA     BYTE      P3
      000000A0H   SFRSYM    DATA     BYTE      P2
      00000090H   SFRSYM    DATA     BYTE      P1
      00000080H   SFRSYM    DATA     BYTE      P0
      0001128EH   SYMBOL    XDATA    DWORD     delay
      00011292H   SYMBOL    XDATA    DWORD     count
      00011400H   SYMBOL    XDATA    ---       soft_iic_obj
      00011404H   SYMBOL    XDATA    ---       soft_iic_obj
      00011381H   SYMBOL    XDATA    ---       soft_iic_obj
      00011385H   SYMBOL    XDATA    BYTE      ack
      00011386H   SYMBOL    XDATA    ---       soft_iic_obj
      0001138AH   SYMBOL    XDATA    BYTE      temp
      0001131BH   SYMBOL    XDATA    ---       soft_iic_obj
      0001131FH   SYMBOL    XDATA    BYTE      dat
      00011320H   SYMBOL    XDATA    BYTE      temp
      000112EDH   SYMBOL    XDATA    ---       soft_iic_obj
      000112F1H   SYMBOL    XDATA    BYTE      ack
      000112F2H   SYMBOL    XDATA    BYTE      dat
      000112F3H   SYMBOL    XDATA    BYTE      temp
L251 LINKER/LOCATER V4.66.93.0                                                        05/05/2025  21:49:10  PAGE 75


      0001138BH   SYMBOL    XDATA    ---       soft_iic_obj
      0001138FH   SYMBOL    XDATA    BYTE      dat
      00010DC6H   SYMBOL    XDATA    ---       soft_iic_obj
      00010DCAH   SYMBOL    XDATA    ---       dat
      00010DCEH   SYMBOL    XDATA    DWORD     len
      00011321H   SYMBOL    XDATA    ---       soft_iic_obj
      00011325H   SYMBOL    XDATA    WORD      dat
      00010DD2H   SYMBOL    XDATA    ---       soft_iic_obj
      00010DD6H   SYMBOL    XDATA    ---       dat
      00010DDAH   SYMBOL    XDATA    DWORD     len
      00011327H   SYMBOL    XDATA    ---       soft_iic_obj
      0001132BH   SYMBOL    XDATA    BYTE      register_name
      0001132CH   SYMBOL    XDATA    BYTE      dat
      00010D44H   SYMBOL    XDATA    ---       soft_iic_obj
      00010D48H   SYMBOL    XDATA    BYTE      register_name
      00010D49H   SYMBOL    XDATA    ---       dat
      00010D4DH   SYMBOL    XDATA    DWORD     len
      00011296H   SYMBOL    XDATA    ---       soft_iic_obj
      0001129AH   SYMBOL    XDATA    WORD      register_name
      0001129CH   SYMBOL    XDATA    WORD      dat
      00010CF1H   SYMBOL    XDATA    ---       soft_iic_obj
      00010CF5H   SYMBOL    XDATA    WORD      register_name
      00010CF7H   SYMBOL    XDATA    ---       dat
      00010CFBH   SYMBOL    XDATA    DWORD     len
      00011390H   SYMBOL    XDATA    ---       soft_iic_obj
      00011394H   SYMBOL    XDATA    BYTE      temp
      00010DDEH   SYMBOL    XDATA    ---       soft_iic_obj
      00010DE2H   SYMBOL    XDATA    ---       dat
      00010DE6H   SYMBOL    XDATA    DWORD     len
      0001132DH   SYMBOL    XDATA    ---       soft_iic_obj
      00011331H   SYMBOL    XDATA    WORD      temp
      00010DEAH   SYMBOL    XDATA    ---       soft_iic_obj
      00010DEEH   SYMBOL    XDATA    ---       dat
      00010DF2H   SYMBOL    XDATA    DWORD     len
      00011333H   SYMBOL    XDATA    ---       soft_iic_obj
      00011337H   SYMBOL    XDATA    BYTE      register_name
      00011338H   SYMBOL    XDATA    BYTE      temp
      00010D51H   SYMBOL    XDATA    ---       soft_iic_obj
      00010D55H   SYMBOL    XDATA    BYTE      register_name
      00010D56H   SYMBOL    XDATA    ---       dat
      00010D5AH   SYMBOL    XDATA    DWORD     len
      0001129EH   SYMBOL    XDATA    ---       soft_iic_obj
      000112A2H   SYMBOL    XDATA    WORD      register_name
      000112A4H   SYMBOL    XDATA    WORD      temp
      00010CFFH   SYMBOL    XDATA    ---       soft_iic_obj
      00010D03H   SYMBOL    XDATA    WORD      register_name
      00010D05H   SYMBOL    XDATA    ---       dat
      00010D09H   SYMBOL    XDATA    DWORD     len
      00010C22H   SYMBOL    XDATA    ---       soft_iic_obj
      00010C26H   SYMBOL    XDATA    ---       write_data
      00010C2AH   SYMBOL    XDATA    DWORD     write_len
      00010C2EH   SYMBOL    XDATA    ---       read_data
      00010C32H   SYMBOL    XDATA    DWORD     read_len
      00010C36H   SYMBOL    XDATA    ---       soft_iic_obj
      00010C3AH   SYMBOL    XDATA    ---       write_data
      00010C3EH   SYMBOL    XDATA    DWORD     write_len
      00010C42H   SYMBOL    XDATA    ---       read_data
      00010C46H   SYMBOL    XDATA    DWORD     read_len
      00011339H   SYMBOL    XDATA    ---       soft_iic_obj
      0001133DH   SYMBOL    XDATA    BYTE      register_name
      0001133EH   SYMBOL    XDATA    BYTE      dat
      0001133FH   SYMBOL    XDATA    ---       soft_iic_obj
      00011343H   SYMBOL    XDATA    BYTE      register_name
      00011344H   SYMBOL    XDATA    BYTE      temp
      00010D5EH   SYMBOL    XDATA    ---       soft_iic_obj
L251 LINKER/LOCATER V4.66.93.0                                                        05/05/2025  21:49:10  PAGE 76


      00010D62H   SYMBOL    XDATA    BYTE      addr
      00010D63H   SYMBOL    XDATA    DWORD     delay
      00010D67H   SYMBOL    XDATA    INT       scl_pin
      00010D69H   SYMBOL    XDATA    INT       sda_pin

      ---         MODULE    ---      ---       zf_driver_spi
      00FFE260H   PUBLIC    CODE     ---       spi_write_8bit_register
      00FFE3A8H   PUBLIC    CODE     ---       spi_write_8bit
      00FF7880H   PUBLIC    CODE     ---       spi_init
      00FFD952H   PUBLIC    CODE     ---       spi_read_8bit_registers
      00FFE19DH   PUBLIC    CODE     ---       spi_write_16bit
      00FFDA25H   PUBLIC    CODE     ---       spi_read_dat
      00FFDC03H   PUBLIC    CODE     ---       spi_write_8bit_registers
      00FFDF02H   PUBLIC    CODE     ---       spi_write_dat
      0001112EH   PUBLIC    XDATA    BYTE      ?spi_write_8bit_array?BYTE
      00011138H   PUBLIC    XDATA    BYTE      ?spi_write_16bit_array?BYTE
      00010F81H   PUBLIC    XDATA    BYTE      ?spi_write_8bit_registers?BYTE
      00010DF6H   PUBLIC    XDATA    BYTE      ?spi_write_16bit_registers?BYTE
      00011142H   PUBLIC    XDATA    BYTE      ?spi_read_8bit_array?BYTE
      0001114CH   PUBLIC    XDATA    BYTE      ?spi_read_16bit_array?BYTE
      00010F8CH   PUBLIC    XDATA    BYTE      ?spi_read_8bit_registers?BYTE
      00010E02H   PUBLIC    XDATA    BYTE      ?spi_read_16bit_registers?BYTE
      00010D0DH   PUBLIC    XDATA    BYTE      ?spi_transfer_8bit?BYTE
      00010D1BH   PUBLIC    XDATA    BYTE      ?spi_transfer_16bit?BYTE
      00010C4AH   PUBLIC    XDATA    BYTE      ?spi_init?BYTE
      000000CFH   SFRSYM    DATA     BYTE      SPDAT
      000000D0H   SFRSYM    DATA     BYTE      PSW
      0000009DH   SFRSYM    DATA     BYTE      IRCBAND
      00000097H   SFRSYM    DATA     BYTE      AUXR2
      000000EFH   SFRSYM    DATA     BYTE      AUXINTIF
      000000FDH   SFRSYM    DATA     BYTE      S4CON
      000000ACH   SFRSYM    DATA     BYTE      S3CON
      0000009AH   SFRSYM    DATA     BYTE      S2CON
      0000009BH   SFRSYM    DATA     BYTE      S2BUF
      000000B7H   SFRSYM    DATA     BYTE      IPH
      000000CDH   SFRSYM    DATA     BYTE      SPSTAT
      000000DDH   SFRSYM    DATA     BYTE      T4T3M
      000000C1H   SFRSYM    DATA     BYTE      WDT_CONTR
      000000DFH   SFRSYM    DATA     BYTE      IP3
      000000F4H   SFRSYM    DATA     BYTE      USBCON
      000000B5H   SFRSYM    DATA     BYTE      IP2
      000000FFH   SFRSYM    DATA     BYTE      RSTCFG
      000000C7H   SFRSYM    DATA     BYTE      IAP_CONTR
      0000008EH   SFRSYM    DATA     BYTE      AUXR
      000000AFH   SFRSYM    DATA     BYTE      IE2
      00000088H   SFRSYM    DATA     BYTE      TCON
      00000089H   SFRSYM    DATA     BYTE      TMOD
      00000098H   SFRSYM    DATA     BYTE      SCON
      00000087H   SFRSYM    DATA     BYTE      PCON
      00000099H   SFRSYM    DATA     BYTE      SBUF
      000000BCH   SFRSYM    DATA     BYTE      ADC_CONTR
      000000D1H   SFRSYM    DATA     BYTE      PSW1
      000000E7H   SFRSYM    DATA     BYTE      CMPCR2
      000000E6H   SFRSYM    DATA     BYTE      CMPCR1
      0000009AH.1 SFRSYM    DATA     BIT       S2TI
      00000098H.1 SFRSYM    DATA     BIT       TI
      000000DEH   SFRSYM    DATA     BYTE      ADCCFG
      000000B8H   SFRSYM    DATA     BYTE      IP
      0000008FH   SFRSYM    DATA     BYTE      INTCLKO
      000000EEH   SFRSYM    DATA     BYTE      IP3H
      000000B6H   SFRSYM    DATA     BYTE      IP2H
      000000BFH   SFRSYM    DATA     BYTE      P_SW4
      000000A8H   SFRSYM    DATA     BYTE      IE
      000000BBH   SFRSYM    DATA     BYTE      P_SW3
      000000BAH   SFRSYM    DATA     BYTE      P_SW2
L251 LINKER/LOCATER V4.66.93.0                                                        05/05/2025  21:49:10  PAGE 77


      000000A2H   SFRSYM    DATA     BYTE      P_SW1
      000000CEH   SFRSYM    DATA     BYTE      SPCTL
      000000F8H   SFRSYM    DATA     BYTE      P7
      000000E8H   SFRSYM    DATA     BYTE      P6
      000000C8H   SFRSYM    DATA     BYTE      P5
      000000C0H   SFRSYM    DATA     BYTE      P4
      000000ABH   SFRSYM    DATA     BYTE      WKTCH
      000000B0H   SFRSYM    DATA     BYTE      P3
      000000A0H   SFRSYM    DATA     BYTE      P2
      00000090H   SFRSYM    DATA     BYTE      P1
      00000080H   SFRSYM    DATA     BYTE      P0

      00FFDF02H   BLOCK     CODE     ---       LVL=0
      00011485H   SYMBOL    XDATA    INT       spi_n
      00011487H   SYMBOL    XDATA    BYTE      dat
      00FFDF02H   LINE      CODE     ---       #81
      00FFDF0CH   LINE      CODE     ---       #83
      00FFDF1EH   LINE      CODE     ---       #85
      00FFDF1EH   LINE      CODE     ---       #86
      00FFDF21H   LINE      CODE     ---       #87
      00FFDF27H   LINE      CODE     ---       #88
      00FFDF2CH   LINE      CODE     ---       #89
      00FFDF2EH   LINE      CODE     ---       #90
      00FFDF2EH   LINE      CODE     ---       #91
      00FFDF30H   LINE      CODE     ---       #92
      00FFDF36H   LINE      CODE     ---       #93
      00FFDF39H   LINE      CODE     ---       #94
      00FFDF3BH   LINE      CODE     ---       #95
      00FFDF3BH   LINE      CODE     ---       #96
      00FFDF3EH   LINE      CODE     ---       #97
      00FFDF44H   LINE      CODE     ---       #98
      00FFDF48H   LINE      CODE     ---       #99
      00FFDF48H   LINE      CODE     ---       #100
      00FFDF48H   LINE      CODE     ---       #102
      00FFDF48H   LINE      CODE     ---       #103
      00FFDF48H   LINE      CODE     ---       #104
      ---         BLOCKEND  ---      ---       LVL=0

      00FFDA25H   BLOCK     CODE     ---       LVL=0
      00011408H   SYMBOL    XDATA    INT       spi_n
      0001140AH   SYMBOL    XDATA    BYTE      dat
      00FFDA2FH   BLOCK     CODE     NEAR LAB  LVL=1
      0001140BH   SYMBOL    XDATA    BYTE      ret
      ---         BLOCKEND  ---      ---       LVL=1
      00FFDA25H   LINE      CODE     ---       #107
      00FFDA2FH   LINE      CODE     ---       #108
      00FFDA2FH   LINE      CODE     ---       #109
      00FFDA35H   LINE      CODE     ---       #110
      00FFDA47H   LINE      CODE     ---       #112
      00FFDA47H   LINE      CODE     ---       #113
      00FFDA4AH   LINE      CODE     ---       #114
      00FFDA50H   LINE      CODE     ---       #115
      00FFDA55H   LINE      CODE     ---       #116
      00FFDA5BH   LINE      CODE     ---       #117
      00FFDA5DH   LINE      CODE     ---       #118
      00FFDA5DH   LINE      CODE     ---       #119
      00FFDA5FH   LINE      CODE     ---       #120
      00FFDA65H   LINE      CODE     ---       #121
      00FFDA68H   LINE      CODE     ---       #122
      00FFDA6EH   LINE      CODE     ---       #123
      00FFDA70H   LINE      CODE     ---       #124
      00FFDA70H   LINE      CODE     ---       #125
      00FFDA73H   LINE      CODE     ---       #126
      00FFDA79H   LINE      CODE     ---       #127
      00FFDA7DH   LINE      CODE     ---       #128
L251 LINKER/LOCATER V4.66.93.0                                                        05/05/2025  21:49:10  PAGE 78


      00FFDA83H   LINE      CODE     ---       #129
      00FFDA83H   LINE      CODE     ---       #130
      00FFDA83H   LINE      CODE     ---       #132
      00FFDA83H   LINE      CODE     ---       #133
      00FFDA83H   LINE      CODE     ---       #135
      00FFDA87H   LINE      CODE     ---       #136
      ---         BLOCKEND  ---      ---       LVL=0

      00FFE3A8H   BLOCK     CODE     ---       LVL=0
      00011488H   SYMBOL    XDATA    INT       spi_n
      0001148AH   SYMBOL    XDATA    BYTE      dat
      00FFE3A8H   LINE      CODE     ---       #147
      00FFE3B2H   LINE      CODE     ---       #149
      00FFE3BFH   LINE      CODE     ---       #150
      ---         BLOCKEND  ---      ---       LVL=0
      0001112EH   SYMBOL    XDATA    INT       spi_n
      00011130H   SYMBOL    XDATA    ---       dat
      00011134H   SYMBOL    XDATA    DWORD     len

      00FFE19DH   BLOCK     CODE     ---       LVL=0
      0001140CH   SYMBOL    XDATA    INT       spi_n
      0001140EH   SYMBOL    XDATA    WORD      dat
      00FFE19DH   LINE      CODE     ---       #175
      00FFE1A9H   LINE      CODE     ---       #177
      00FFE1BFH   LINE      CODE     ---       #178
      00FFE1D1H   LINE      CODE     ---       #179
      ---         BLOCKEND  ---      ---       LVL=0
      00011138H   SYMBOL    XDATA    INT       spi_n
      0001113AH   SYMBOL    XDATA    ---       dat
      0001113EH   SYMBOL    XDATA    DWORD     len

      00FFE260H   BLOCK     CODE     ---       LVL=0
      00011410H   SYMBOL    XDATA    INT       spi_n
      00011412H   SYMBOL    XDATA    BYTE      register_name
      00011413H   SYMBOL    XDATA    BYTE      dat
      00FFE260H   LINE      CODE     ---       #206
      00FFE270H   LINE      CODE     ---       #208
      00FFE27DH   LINE      CODE     ---       #209
      00FFE28AH   LINE      CODE     ---       #210
      ---         BLOCKEND  ---      ---       LVL=0

      00FFDC03H   BLOCK     CODE     ---       LVL=0
      00010F81H   SYMBOL    XDATA    INT       spi_n
      00010F83H   SYMBOL    XDATA    BYTE      register_name
      00010F84H   SYMBOL    XDATA    ---       dat
      00010F88H   SYMBOL    XDATA    DWORD     len
      00FFDC03H   LINE      CODE     ---       #222
      00FFDC17H   LINE      CODE     ---       #224
      00FFDC24H   LINE      CODE     ---       #225
      00FFDC26H   LINE      CODE     ---       #227
      00FFDC45H   LINE      CODE     ---       #228
      00FFDC5EH   LINE      CODE     ---       #229
      ---         BLOCKEND  ---      ---       LVL=0
      00011345H   SYMBOL    XDATA    INT       spi_n
      00011347H   SYMBOL    XDATA    WORD      register_name
      00011349H   SYMBOL    XDATA    WORD      dat
      00010DF6H   SYMBOL    XDATA    INT       spi_n
      00010DF8H   SYMBOL    XDATA    WORD      register_name
      00010DFAH   SYMBOL    XDATA    ---       dat
      000114A6H   SYMBOL    XDATA    INT       spi_n
      00011142H   SYMBOL    XDATA    INT       spi_n
      00011144H   SYMBOL    XDATA    ---       dat
      00011148H   SYMBOL    XDATA    DWORD     len
      00011414H   SYMBOL    XDATA    INT       spi_n
      00011416H   SYMBOL    XDATA    WORD      dat
L251 LINKER/LOCATER V4.66.93.0                                                        05/05/2025  21:49:10  PAGE 79


      0001114CH   SYMBOL    XDATA    INT       spi_n
      0001114EH   SYMBOL    XDATA    ---       dat
      00011152H   SYMBOL    XDATA    DWORD     len
      0001148BH   SYMBOL    XDATA    INT       spi_n
      0001148DH   SYMBOL    XDATA    BYTE      register_name

      00FFD952H   BLOCK     CODE     ---       LVL=0
      00010F8CH   SYMBOL    XDATA    INT       spi_n
      00010F8EH   SYMBOL    XDATA    BYTE      register_name
      00010F8FH   SYMBOL    XDATA    ---       dat
      00010F93H   SYMBOL    XDATA    DWORD     len
      00FFD952H   LINE      CODE     ---       #350
      00FFD966H   LINE      CODE     ---       #352
      00FFD973H   LINE      CODE     ---       #353
      00FFD975H   LINE      CODE     ---       #355
      00FFD9A2H   LINE      CODE     ---       #356
      00FFD9BBH   LINE      CODE     ---       #357
      ---         BLOCKEND  ---      ---       LVL=0
      0001134BH   SYMBOL    XDATA    INT       spi_n
      0001134DH   SYMBOL    XDATA    WORD      register_name
      0001134FH   SYMBOL    XDATA    WORD      dat
      00010E02H   SYMBOL    XDATA    INT       spi_n
      00010E04H   SYMBOL    XDATA    WORD      register_name
      00010E06H   SYMBOL    XDATA    ---       dat
      00010E0AH   SYMBOL    XDATA    DWORD     len
      00010D0DH   SYMBOL    XDATA    INT       spi_n
      00010D0FH   SYMBOL    XDATA    ---       write_buffer
      00010D13H   SYMBOL    XDATA    ---       read_buffer
      00010D17H   SYMBOL    XDATA    DWORD     len
      00010D1BH   SYMBOL    XDATA    INT       spi_n
      00010D1DH   SYMBOL    XDATA    ---       write_buffer
      00010D21H   SYMBOL    XDATA    ---       read_buffer
      00010D25H   SYMBOL    XDATA    DWORD     len

      00FF7880H   BLOCK     CODE     ---       LVL=0
      00010C4AH   SYMBOL    XDATA    INT       spi_n
      00010C4CH   SYMBOL    XDATA    INT       mode
      00010C4EH   SYMBOL    XDATA    DWORD     baud
      00010C52H   SYMBOL    XDATA    INT       sck_pin
      00010C54H   SYMBOL    XDATA    INT       mosi_pin
      00010C56H   SYMBOL    XDATA    INT       miso_pin
      00010C58H   SYMBOL    XDATA    INT       cs_pin
      00FF7896H   BLOCK     CODE     NEAR LAB  LVL=1
      00010C5AH   SYMBOL    XDATA    DWORD     spi_psc
      ---         BLOCKEND  ---      ---       LVL=1
      00FF7880H   LINE      CODE     ---       #465
      00FF7896H   LINE      CODE     ---       #466
      00FF7896H   LINE      CODE     ---       #467
      00FF78A2H   LINE      CODE     ---       #469
      00FF78A2H   LINE      CODE     ---       #473
      00FF78A2H   LINE      CODE     ---       #475
      00FF78B8H   LINE      CODE     ---       #476
      00FF78CEH   LINE      CODE     ---       #478
      00FF78DAH   LINE      CODE     ---       #480
      00FF78F0H   LINE      CODE     ---       #481
      00FF78F0H   LINE      CODE     ---       #483
      00FF78FCH   LINE      CODE     ---       #485
      00FF7911H   LINE      CODE     ---       #486
      00FF7911H   LINE      CODE     ---       #489
      00FF7921H   LINE      CODE     ---       #491
      00FF792FH   LINE      CODE     ---       #492
      00FF793DH   LINE      CODE     ---       #493
      00FF7949H   LINE      CODE     ---       #495
      00FF7957H   LINE      CODE     ---       #496
      00FF7957H   LINE      CODE     ---       #497
L251 LINKER/LOCATER V4.66.93.0                                                        05/05/2025  21:49:10  PAGE 80


      00FF7963H   LINE      CODE     ---       #499
      00FF7971H   LINE      CODE     ---       #500
      00FF7971H   LINE      CODE     ---       #504
      00FF797EH   LINE      CODE     ---       #506
      00FF7981H   LINE      CODE     ---       #508
      00FF799FH   LINE      CODE     ---       #510
      00FF799FH   LINE      CODE     ---       #511
      00FF79A3H   LINE      CODE     ---       #512
      00FF79A5H   LINE      CODE     ---       #514
      00FF79A5H   LINE      CODE     ---       #515
      00FF79A8H   LINE      CODE     ---       #516
      00FF79AAH   LINE      CODE     ---       #518
      00FF79AAH   LINE      CODE     ---       #519
      00FF79ADH   LINE      CODE     ---       #520
      00FF79AFH   LINE      CODE     ---       #522
      00FF79AFH   LINE      CODE     ---       #523
      00FF79B2H   LINE      CODE     ---       #524
      00FF79B2H   LINE      CODE     ---       #525
      00FF79B2H   LINE      CODE     ---       #527
      00FF79B5H   LINE      CODE     ---       #528
      00FF79B8H   LINE      CODE     ---       #529
      00FF79BBH   LINE      CODE     ---       #532
      00FF79DCH   LINE      CODE     ---       #534
      00FF79DFH   LINE      CODE     ---       #536
      00FF79EFH   LINE      CODE     ---       #538
      00FF79F2H   LINE      CODE     ---       #539
      00FF79F4H   LINE      CODE     ---       #540
      00FF7A04H   LINE      CODE     ---       #542
      00FF7A07H   LINE      CODE     ---       #543
      00FF7A09H   LINE      CODE     ---       #544
      00FF7A19H   LINE      CODE     ---       #546
      00FF7A1DH   LINE      CODE     ---       #547
      00FF7A1FH   LINE      CODE     ---       #550
      00FF7A22H   LINE      CODE     ---       #551
      00FF7A22H   LINE      CODE     ---       #554
      00FF7A36H   LINE      CODE     ---       #556
      00FF7A36H   LINE      CODE     ---       #557
      00FF7A38H   LINE      CODE     ---       #559
      00FF7A38H   LINE      CODE     ---       #560
      00FF7A3BH   LINE      CODE     ---       #561
      00FF7A3DH   LINE      CODE     ---       #563
      00FF7A3DH   LINE      CODE     ---       #564
      00FF7A40H   LINE      CODE     ---       #565
      00FF7A42H   LINE      CODE     ---       #567
      00FF7A42H   LINE      CODE     ---       #568
      00FF7A45H   LINE      CODE     ---       #569
      00FF7A45H   LINE      CODE     ---       #570
      00FF7A45H   LINE      CODE     ---       #572
      00FF7A48H   LINE      CODE     ---       #573
      00FF7A4BH   LINE      CODE     ---       #574
      00FF7A5AH   LINE      CODE     ---       #586
      00FF7A5DH   LINE      CODE     ---       #588
      00FF7A7BH   LINE      CODE     ---       #590
      00FF7A7BH   LINE      CODE     ---       #591
      00FF7A7FH   LINE      CODE     ---       #592
      00FF7A81H   LINE      CODE     ---       #594
      00FF7A81H   LINE      CODE     ---       #595
      00FF7A84H   LINE      CODE     ---       #596
      00FF7A86H   LINE      CODE     ---       #598
      00FF7A86H   LINE      CODE     ---       #599
      00FF7A89H   LINE      CODE     ---       #600
      00FF7A8BH   LINE      CODE     ---       #602
      00FF7A8BH   LINE      CODE     ---       #603
      00FF7A8EH   LINE      CODE     ---       #604
      00FF7A8EH   LINE      CODE     ---       #605
L251 LINKER/LOCATER V4.66.93.0                                                        05/05/2025  21:49:10  PAGE 81


      00FF7A8EH   LINE      CODE     ---       #607
      00FF7A91H   LINE      CODE     ---       #608
      00FF7A9EH   LINE      CODE     ---       #612
      00FF7ABFH   LINE      CODE     ---       #616
      00FF7ACFH   LINE      CODE     ---       #618
      00FF7ADFH   LINE      CODE     ---       #619
      00FF7AE1H   LINE      CODE     ---       #620
      00FF7AF1H   LINE      CODE     ---       #622
      00FF7B01H   LINE      CODE     ---       #623
      00FF7B03H   LINE      CODE     ---       #624
      00FF7B13H   LINE      CODE     ---       #626
      00FF7B21H   LINE      CODE     ---       #627
      00FF7B23H   LINE      CODE     ---       #630
      00FF7B33H   LINE      CODE     ---       #631
      00FF7B33H   LINE      CODE     ---       #635
      00FF7B4BH   LINE      CODE     ---       #637
      00FF7B4BH   LINE      CODE     ---       #638
      00FF7B59H   LINE      CODE     ---       #639
      00FF7B5BH   LINE      CODE     ---       #641
      00FF7B5BH   LINE      CODE     ---       #642
      00FF7B6BH   LINE      CODE     ---       #643
      00FF7B6DH   LINE      CODE     ---       #645
      00FF7B6DH   LINE      CODE     ---       #646
      00FF7B7DH   LINE      CODE     ---       #647
      00FF7B7FH   LINE      CODE     ---       #649
      00FF7B7FH   LINE      CODE     ---       #650
      00FF7B8FH   LINE      CODE     ---       #651
      00FF7B8FH   LINE      CODE     ---       #652
      00FF7B8FH   LINE      CODE     ---       #654
      00FF7B9FH   LINE      CODE     ---       #655
      00FF7BA2H   LINE      CODE     ---       #656
      00FF7BB1H   LINE      CODE     ---       #667
      00FF7BB4H   LINE      CODE     ---       #669
      00FF7BD2H   LINE      CODE     ---       #671
      00FF7BD2H   LINE      CODE     ---       #672
      00FF7BD6H   LINE      CODE     ---       #673
      00FF7BD8H   LINE      CODE     ---       #675
      00FF7BD8H   LINE      CODE     ---       #676
      00FF7BDBH   LINE      CODE     ---       #677
      00FF7BDDH   LINE      CODE     ---       #679
      00FF7BDDH   LINE      CODE     ---       #680
      00FF7BE0H   LINE      CODE     ---       #681
      00FF7BE2H   LINE      CODE     ---       #683
      00FF7BE2H   LINE      CODE     ---       #684
      00FF7BE5H   LINE      CODE     ---       #685
      00FF7BE5H   LINE      CODE     ---       #686
      00FF7BE5H   LINE      CODE     ---       #688
      00FF7BE8H   LINE      CODE     ---       #689
      00FF7BF5H   LINE      CODE     ---       #693
      00FF7C16H   LINE      CODE     ---       #695
      00FF7C26H   LINE      CODE     ---       #697
      00FF7C36H   LINE      CODE     ---       #698
      00FF7C38H   LINE      CODE     ---       #699
      00FF7C48H   LINE      CODE     ---       #701
      00FF7C58H   LINE      CODE     ---       #702
      00FF7C5AH   LINE      CODE     ---       #703
      00FF7C6AH   LINE      CODE     ---       #705
      00FF7C78H   LINE      CODE     ---       #706
      00FF7C7AH   LINE      CODE     ---       #709
      00FF7C8AH   LINE      CODE     ---       #710
      00FF7C8AH   LINE      CODE     ---       #714
      00FF7CA2H   LINE      CODE     ---       #716
      00FF7CA2H   LINE      CODE     ---       #717
      00FF7CB0H   LINE      CODE     ---       #718
      00FF7CB2H   LINE      CODE     ---       #720
L251 LINKER/LOCATER V4.66.93.0                                                        05/05/2025  21:49:10  PAGE 82


      00FF7CB2H   LINE      CODE     ---       #721
      00FF7CC2H   LINE      CODE     ---       #722
      00FF7CC4H   LINE      CODE     ---       #724
      00FF7CC4H   LINE      CODE     ---       #725
      00FF7CD4H   LINE      CODE     ---       #726
      00FF7CD6H   LINE      CODE     ---       #728
      00FF7CD6H   LINE      CODE     ---       #729
      00FF7CE6H   LINE      CODE     ---       #730
      00FF7CE6H   LINE      CODE     ---       #731
      00FF7CE6H   LINE      CODE     ---       #733
      00FF7CF6H   LINE      CODE     ---       #734
      ---         BLOCKEND  ---      ---       LVL=0

      ---         MODULE    ---      ---       zf_driver_timer
      000000D0H   SFRSYM    DATA     BYTE      PSW
      0000009DH   SFRSYM    DATA     BYTE      IRCBAND
      00000097H   SFRSYM    DATA     BYTE      AUXR2
      000000EFH   SFRSYM    DATA     BYTE      AUXINTIF
      000000FDH   SFRSYM    DATA     BYTE      S4CON
      000000ACH   SFRSYM    DATA     BYTE      S3CON
      0000009AH   SFRSYM    DATA     BYTE      S2CON
      000000B7H   SFRSYM    DATA     BYTE      IPH
      000000CDH   SFRSYM    DATA     BYTE      SPSTAT
      000000DDH   SFRSYM    DATA     BYTE      T4T3M
      000000C1H   SFRSYM    DATA     BYTE      WDT_CONTR
      000000DFH   SFRSYM    DATA     BYTE      IP3
      000000F4H   SFRSYM    DATA     BYTE      USBCON
      000000B5H   SFRSYM    DATA     BYTE      IP2
      000000FFH   SFRSYM    DATA     BYTE      RSTCFG
      000000C7H   SFRSYM    DATA     BYTE      IAP_CONTR
      0000008EH   SFRSYM    DATA     BYTE      AUXR
      000000AFH   SFRSYM    DATA     BYTE      IE2
      00000088H   SFRSYM    DATA     BYTE      TCON
      00000089H   SFRSYM    DATA     BYTE      TMOD
      00000098H   SFRSYM    DATA     BYTE      SCON
      00000087H   SFRSYM    DATA     BYTE      PCON
      000000BCH   SFRSYM    DATA     BYTE      ADC_CONTR
      000000D1H   SFRSYM    DATA     BYTE      PSW1
      000000E7H   SFRSYM    DATA     BYTE      CMPCR2
      000000E6H   SFRSYM    DATA     BYTE      CMPCR1
      000000DEH   SFRSYM    DATA     BYTE      ADCCFG
      000000B8H   SFRSYM    DATA     BYTE      IP
      0000008FH   SFRSYM    DATA     BYTE      INTCLKO
      000000EEH   SFRSYM    DATA     BYTE      IP3H
      000000B6H   SFRSYM    DATA     BYTE      IP2H
      000000BFH   SFRSYM    DATA     BYTE      P_SW4
      000000A8H   SFRSYM    DATA     BYTE      IE
      000000BBH   SFRSYM    DATA     BYTE      P_SW3
      000000BAH   SFRSYM    DATA     BYTE      P_SW2
      000000A2H   SFRSYM    DATA     BYTE      P_SW1
      000000CEH   SFRSYM    DATA     BYTE      SPCTL
      000000F8H   SFRSYM    DATA     BYTE      P7
      000000E8H   SFRSYM    DATA     BYTE      P6
      000000C8H   SFRSYM    DATA     BYTE      P5
      000000C0H   SFRSYM    DATA     BYTE      P4
      000000ABH   SFRSYM    DATA     BYTE      WKTCH
      000000B0H   SFRSYM    DATA     BYTE      P3
      000000A0H   SFRSYM    DATA     BYTE      P2
      00000090H   SFRSYM    DATA     BYTE      P1
      00000080H   SFRSYM    DATA     BYTE      P0
      00010E0EH   SYMBOL    XDATA    ---       timer_function_state
      00011395H   SYMBOL    XDATA    INT       index
      00011397H   SYMBOL    XDATA    INT       mode
      00011399H   SYMBOL    XDATA    BYTE      return_state

L251 LINKER/LOCATER V4.66.93.0                                                        05/05/2025  21:49:10  PAGE 83


      ---         MODULE    ---      ---       zf_driver_uart
      00FFCB1AH   PUBLIC    CODE     ---       uart_rx_start_buff
      00FFB869H   PUBLIC    CODE     ---       uart_write_buffer
      00FF8E34H   PUBLIC    CODE     ---       uart_init
      00FFDD68H   PUBLIC    CODE     ---       uart_rx_interrupt
      00FFE369H   PUBLIC    CODE     ---       uart_write_byte
      00FFAA78H   PUBLIC    CODE     ---       uart_dma_init
      00FFD332H   PUBLIC    CODE     ---       uart_query_byte
      00010E22H   PUBLIC    XDATA    ---       uart_rx_buff
      00010E26H   PUBLIC    XDATA    BYTE      ?uart_init?BYTE
      000000D0H   SFRSYM    DATA     BYTE      PSW
      0000009DH   SFRSYM    DATA     BYTE      IRCBAND
      00000097H   SFRSYM    DATA     BYTE      AUXR2
      000000EFH   SFRSYM    DATA     BYTE      AUXINTIF
      000000FDH   SFRSYM    DATA     BYTE      S4CON
      000000ACH   SFRSYM    DATA     BYTE      S3CON
      0000009AH   SFRSYM    DATA     BYTE      S2CON
      000000B7H   SFRSYM    DATA     BYTE      IPH
      000000CDH   SFRSYM    DATA     BYTE      SPSTAT
      000000DDH   SFRSYM    DATA     BYTE      T4T3M
      000000C1H   SFRSYM    DATA     BYTE      WDT_CONTR
      00000088H.6 SFRSYM    DATA     BIT       TR1
      000000D7H   SFRSYM    DATA     BYTE      T2L
      000000D6H   SFRSYM    DATA     BYTE      T2H
      000000DFH   SFRSYM    DATA     BYTE      IP3
      000000F4H   SFRSYM    DATA     BYTE      USBCON
      000000B5H   SFRSYM    DATA     BYTE      IP2
      000000FFH   SFRSYM    DATA     BYTE      RSTCFG
      000000C7H   SFRSYM    DATA     BYTE      IAP_CONTR
      0000008EH   SFRSYM    DATA     BYTE      AUXR
      000000AFH   SFRSYM    DATA     BYTE      IE2
      00000088H   SFRSYM    DATA     BYTE      TCON
      00000089H   SFRSYM    DATA     BYTE      TMOD
      00000098H   SFRSYM    DATA     BYTE      SCON
      00000087H   SFRSYM    DATA     BYTE      PCON
      000000BCH   SFRSYM    DATA     BYTE      ADC_CONTR
      000000D1H   SFRSYM    DATA     BYTE      PSW1
      000000E7H   SFRSYM    DATA     BYTE      CMPCR2
      000000E6H   SFRSYM    DATA     BYTE      CMPCR1
      000000DEH   SFRSYM    DATA     BYTE      ADCCFG
      000000B8H   SFRSYM    DATA     BYTE      IP
      0000008FH   SFRSYM    DATA     BYTE      INTCLKO
      000000EEH   SFRSYM    DATA     BYTE      IP3H
      000000B6H   SFRSYM    DATA     BYTE      IP2H
      000000BFH   SFRSYM    DATA     BYTE      P_SW4
      000000A8H   SFRSYM    DATA     BYTE      IE
      000000BBH   SFRSYM    DATA     BYTE      P_SW3
      000000BAH   SFRSYM    DATA     BYTE      P_SW2
      000000A2H   SFRSYM    DATA     BYTE      P_SW1
      000000CEH   SFRSYM    DATA     BYTE      SPCTL
      000000F8H   SFRSYM    DATA     BYTE      P7
      000000E8H   SFRSYM    DATA     BYTE      P6
      000000C8H   SFRSYM    DATA     BYTE      P5
      000000C0H   SFRSYM    DATA     BYTE      P4
      000000ABH   SFRSYM    DATA     BYTE      WKTCH
      000000B0H   SFRSYM    DATA     BYTE      P3
      000000A0H   SFRSYM    DATA     BYTE      P2
      00000090H   SFRSYM    DATA     BYTE      P1
      00000080H   SFRSYM    DATA     BYTE      P0
      00010E1AH   SYMBOL    XDATA    ---       uart_function_state
      0001139AH   SYMBOL    XDATA    INT       index
      0001139CH   SYMBOL    XDATA    INT       mode
      0001139EH   SYMBOL    XDATA    BYTE      return_state

      00FFB869H   BLOCK     CODE     ---       LVL=0
L251 LINKER/LOCATER V4.66.93.0                                                        05/05/2025  21:49:10  PAGE 84


      000112A6H   SYMBOL    XDATA    INT       uart_n
      000112A8H   SYMBOL    XDATA    ---       buff
      000112ACH   SYMBOL    XDATA    WORD      len
      00FFB869H   LINE      CODE     ---       #108
      00FFB87FH   LINE      CODE     ---       #112
      00FFB89DH   LINE      CODE     ---       #113
      00FFB8A8H   LINE      CODE     ---       #114
      00FFB8CCH   LINE      CODE     ---       #115
      00FFB8EFH   LINE      CODE     ---       #116
      00FFB91BH   LINE      CODE     ---       #117
      00FFB945H   LINE      CODE     ---       #118
      00FFB964H   LINE      CODE     ---       #120
      00FFB983H   LINE      CODE     ---       #122
      00FFB9A1H   LINE      CODE     ---       #124
      ---         BLOCKEND  ---      ---       LVL=0
      000103D2H   SYMBOL    XDATA    INT       uart_n
      000103D4H   SYMBOL    XDATA    ---       str
      000103D8H   SYMBOL    XDATA    WORD      len
      000103DAH   SYMBOL    XDATA    ---       buff

      00FFE369H   BLOCK     CODE     ---       LVL=0
      0001148EH   SYMBOL    XDATA    INT       uart_n
      00011490H   SYMBOL    XDATA    BYTE      dat
      00FFE369H   LINE      CODE     ---       #154
      00FFE373H   LINE      CODE     ---       #156
      00FFE388H   LINE      CODE     ---       #157
      ---         BLOCKEND  ---      ---       LVL=0

      00FFCB1AH   BLOCK     CODE     ---       LVL=0
      000114A8H   SYMBOL    XDATA    INT       uart_n
      00FFCB1AH   LINE      CODE     ---       #165
      00FFCB20H   LINE      CODE     ---       #167
      00FFCB3EH   LINE      CODE     ---       #168
      00FFCB58H   LINE      CODE     ---       #169
      00FFCB80H   LINE      CODE     ---       #170
      00FFCBACH   LINE      CODE     ---       #171
      00FFCBCBH   LINE      CODE     ---       #172
      ---         BLOCKEND  ---      ---       LVL=0

      00FFDD68H   BLOCK     CODE     ---       LVL=0
      00011491H   SYMBOL    XDATA    INT       uart_n
      00011493H   SYMBOL    XDATA    BYTE      status
      00FFDD68H   LINE      CODE     ---       #183
      00FFDD72H   LINE      CODE     ---       #185
      00FFDD78H   LINE      CODE     ---       #187
      00FFDD99H   LINE      CODE     ---       #188
      00FFDD9BH   LINE      CODE     ---       #191
      00FFDDBCH   LINE      CODE     ---       #192
      00FFDDBCH   LINE      CODE     ---       #193
      ---         BLOCKEND  ---      ---       LVL=0
      00011494H   SYMBOL    XDATA    INT       uart_n
      00011496H   SYMBOL    XDATA    BYTE      dat

      00FFD332H   BLOCK     CODE     ---       LVL=0
      000112F4H   SYMBOL    XDATA    INT       uart_n
      000112F6H   SYMBOL    XDATA    ---       dat
      00FFD342H   BLOCK     CODE     NEAR LAB  LVL=1
      000112FAH   SYMBOL    XDATA    BYTE      ret
      ---         BLOCKEND  ---      ---       LVL=1
      00FFD332H   LINE      CODE     ---       #227
      00FFD342H   LINE      CODE     ---       #228
      00FFD342H   LINE      CODE     ---       #229
      00FFD347H   LINE      CODE     ---       #232
      00FFD365H   LINE      CODE     ---       #234
      00FFD385H   LINE      CODE     ---       #236
L251 LINKER/LOCATER V4.66.93.0                                                        05/05/2025  21:49:10  PAGE 85


      00FFD38BH   LINE      CODE     ---       #238
      00FFD3ACH   LINE      CODE     ---       #239
      00FFD3AEH   LINE      CODE     ---       #242
      00FFD3B3H   LINE      CODE     ---       #243
      00FFD3B3H   LINE      CODE     ---       #246
      00FFD3BCH   LINE      CODE     ---       #248
      00FFD3C0H   LINE      CODE     ---       #249
      ---         BLOCKEND  ---      ---       LVL=0

      00FFAA78H   BLOCK     CODE     ---       LVL=0
      000114AAH   SYMBOL    XDATA    INT       uart_n
      00FFAA78H   LINE      CODE     ---       #257
      00FFAA7EH   LINE      CODE     ---       #259
      00FFAA9CH   LINE      CODE     ---       #260
      00FFAABAH   LINE      CODE     ---       #261
      00FFAAD8H   LINE      CODE     ---       #263
      00FFAAF6H   LINE      CODE     ---       #264
      00FFAB14H   LINE      CODE     ---       #265
      00FFAB32H   LINE      CODE     ---       #267
      00FFAB50H   LINE      CODE     ---       #268
      00FFAB6AH   LINE      CODE     ---       #269
      00FFAB92H   LINE      CODE     ---       #270
      00FFABBEH   LINE      CODE     ---       #271
      00FFABDDH   LINE      CODE     ---       #272
      00FFABFCH   LINE      CODE     ---       #274
      ---         BLOCKEND  ---      ---       LVL=0

      00FF8E34H   BLOCK     CODE     ---       LVL=0
      00010E26H   SYMBOL    XDATA    INT       uart_n
      00010E28H   SYMBOL    XDATA    DWORD     baud
      00010E2CH   SYMBOL    XDATA    INT       tx_pin
      00010E2EH   SYMBOL    XDATA    INT       rx_pin
      00FF8E4AH   BLOCK     CODE     NEAR LAB  LVL=1
      00010E30H   SYMBOL    XDATA    WORD      brt
      ---         BLOCKEND  ---      ---       LVL=1
      00FF8E34H   LINE      CODE     ---       #286
      00FF8E4AH   LINE      CODE     ---       #287
      00FF8E4AH   LINE      CODE     ---       #311
      00FF8E60H   LINE      CODE     ---       #312
      00FF8E74H   LINE      CODE     ---       #314
      00FF8EABH   LINE      CODE     ---       #316
      00FF8ECFH   LINE      CODE     ---       #318
      00FF8ECFH   LINE      CODE     ---       #332
      00FF8ED2H   LINE      CODE     ---       #333
      00FF8EDAH   LINE      CODE     ---       #334
      00FF8EE6H   LINE      CODE     ---       #335
      00FF8EE9H   LINE      CODE     ---       #336
      00FF8EEBH   LINE      CODE     ---       #339
      00FF8EEEH   LINE      CODE     ---       #341
      00FF8F06H   LINE      CODE     ---       #343
      00FF8F0AH   LINE      CODE     ---       #344
      00FF8F0DH   LINE      CODE     ---       #345
      00FF8F25H   LINE      CODE     ---       #347
      00FF8F28H   LINE      CODE     ---       #348
      00FF8F2BH   LINE      CODE     ---       #349
      00FF8F43H   LINE      CODE     ---       #351
      00FF8F46H   LINE      CODE     ---       #352
      00FF8F49H   LINE      CODE     ---       #353
      00FF8F67H   LINE      CODE     ---       #355
      00FF8F6AH   LINE      CODE     ---       #356
      00FF8F6AH   LINE      CODE     ---       #359
      00FF8F6DH   LINE      CODE     ---       #362
      00FF8F6DH   LINE      CODE     ---       #366
      00FF8F70H   LINE      CODE     ---       #367
      00FF8F78H   LINE      CODE     ---       #368
L251 LINKER/LOCATER V4.66.93.0                                                        05/05/2025  21:49:10  PAGE 86


      00FF8F84H   LINE      CODE     ---       #369
      00FF8F87H   LINE      CODE     ---       #372
      00FF8F8AH   LINE      CODE     ---       #374
      00FF8FA2H   LINE      CODE     ---       #376
      00FF8FA6H   LINE      CODE     ---       #377
      00FF8FA9H   LINE      CODE     ---       #378
      00FF8FC7H   LINE      CODE     ---       #380
      00FF8FCAH   LINE      CODE     ---       #381
      00FF8FCAH   LINE      CODE     ---       #385
      00FF8FCDH   LINE      CODE     ---       #388
      00FF8FCDH   LINE      CODE     ---       #392
      00FF8FD0H   LINE      CODE     ---       #393
      00FF8FD8H   LINE      CODE     ---       #394
      00FF8FE4H   LINE      CODE     ---       #395
      00FF8FE7H   LINE      CODE     ---       #405
      00FF8FEAH   LINE      CODE     ---       #407
      00FF9002H   LINE      CODE     ---       #409
      00FF9006H   LINE      CODE     ---       #410
      00FF9008H   LINE      CODE     ---       #411
      00FF9020H   LINE      CODE     ---       #413
      00FF9023H   LINE      CODE     ---       #414
      00FF9023H   LINE      CODE     ---       #418
      00FF9025H   LINE      CODE     ---       #421
      00FF9025H   LINE      CODE     ---       #425
      00FF9028H   LINE      CODE     ---       #426
      00FF9030H   LINE      CODE     ---       #427
      00FF903CH   LINE      CODE     ---       #428
      00FF903FH   LINE      CODE     ---       #438
      00FF9042H   LINE      CODE     ---       #440
      00FF905AH   LINE      CODE     ---       #442
      00FF905EH   LINE      CODE     ---       #443
      00FF9060H   LINE      CODE     ---       #444
      00FF9078H   LINE      CODE     ---       #448
      00FF907BH   LINE      CODE     ---       #449
      00FF907BH   LINE      CODE     ---       #453
      00FF907BH   LINE      CODE     ---       #456
      00FF907BH   LINE      CODE     ---       #459
      00FF9084H   LINE      CODE     ---       #461
      ---         BLOCKEND  ---      ---       LVL=0

      ---         MODULE    ---      ---       zf_device_config
      00FF021EH   PUBLIC    CODE     ---       imu660ra_config_file

      ---         MODULE    ---      ---       zf_device_ips114
      00FFA269H   PUBLIC    CODE     ---       ips114_show_float
      00FFD86AH   PUBLIC    CODE     ---       ips114_show_string
      00FFC8ECH   PUBLIC    CODE     ---       ips114_show_char
      00FF0066H   PUBLIC    CODE     ---       ips114_set_color
      00FFE0F5H   PUBLIC    CODE     ---       ips114_set_dir
      00FFD8DFH   PUBLIC    CODE     ---       ips114_clear
      00FFD20CH   PUBLIC    CODE     ---       ips114_show_uint8
      00FF92C8H   PUBLIC    CODE     ---       ips114_init
      000112AEH   PUBLIC    XDATA    WORD      ips114_pencolor
      000112B0H   PUBLIC    XDATA    WORD      ips114_bgcolor
      000112B2H   PUBLIC    XDATA    INT       ips114_display_dir
      000112B4H   PUBLIC    XDATA    BYTE      ips114_x_max
      000112B5H   PUBLIC    XDATA    BYTE      ips114_y_max
      0001099AH   PUBLIC    XDATA    BYTE      ?ips114_show_float?BYTE
      00010A9CH   PUBLIC    XDATA    BYTE      ?ips114_show_wave?BYTE
      00010B69H   PUBLIC    XDATA    BYTE      ?ips114_show_chinese?BYTE
      000000D0H   SFRSYM    DATA     BYTE      PSW
      0000009DH   SFRSYM    DATA     BYTE      IRCBAND
      00000097H   SFRSYM    DATA     BYTE      AUXR2
      000000EFH   SFRSYM    DATA     BYTE      AUXINTIF
      000000FDH   SFRSYM    DATA     BYTE      S4CON
L251 LINKER/LOCATER V4.66.93.0                                                        05/05/2025  21:49:10  PAGE 87


      000000ACH   SFRSYM    DATA     BYTE      S3CON
      0000009AH   SFRSYM    DATA     BYTE      S2CON
      000000B7H   SFRSYM    DATA     BYTE      IPH
      000000CDH   SFRSYM    DATA     BYTE      SPSTAT
      000000DDH   SFRSYM    DATA     BYTE      T4T3M
      000000C1H   SFRSYM    DATA     BYTE      WDT_CONTR
      000000DFH   SFRSYM    DATA     BYTE      IP3
      000000F4H   SFRSYM    DATA     BYTE      USBCON
      000000B5H   SFRSYM    DATA     BYTE      IP2
      000000FFH   SFRSYM    DATA     BYTE      RSTCFG
      000000C7H   SFRSYM    DATA     BYTE      IAP_CONTR
      0000008EH   SFRSYM    DATA     BYTE      AUXR
      000000AFH   SFRSYM    DATA     BYTE      IE2
      00000088H   SFRSYM    DATA     BYTE      TCON
      00000089H   SFRSYM    DATA     BYTE      TMOD
      00000098H   SFRSYM    DATA     BYTE      SCON
      000000A0H.2 SFRSYM    DATA     BIT       P22
      000000A0H.1 SFRSYM    DATA     BIT       P21
      000000A0H.0 SFRSYM    DATA     BIT       P20
      00000087H   SFRSYM    DATA     BYTE      PCON
      000000BCH   SFRSYM    DATA     BYTE      ADC_CONTR
      000000D1H   SFRSYM    DATA     BYTE      PSW1
      000000E7H   SFRSYM    DATA     BYTE      CMPCR2
      000000E6H   SFRSYM    DATA     BYTE      CMPCR1
      000000DEH   SFRSYM    DATA     BYTE      ADCCFG
      000000B8H   SFRSYM    DATA     BYTE      IP
      0000008FH   SFRSYM    DATA     BYTE      INTCLKO
      000000EEH   SFRSYM    DATA     BYTE      IP3H
      000000B6H   SFRSYM    DATA     BYTE      IP2H
      000000BFH   SFRSYM    DATA     BYTE      P_SW4
      000000A8H   SFRSYM    DATA     BYTE      IE
      000000BBH   SFRSYM    DATA     BYTE      P_SW3
      000000BAH   SFRSYM    DATA     BYTE      P_SW2
      000000A2H   SFRSYM    DATA     BYTE      P_SW1
      000000CEH   SFRSYM    DATA     BYTE      SPCTL
      000000F8H   SFRSYM    DATA     BYTE      P7
      000000E8H   SFRSYM    DATA     BYTE      P6
      000000C8H   SFRSYM    DATA     BYTE      P5
      000000C0H   SFRSYM    DATA     BYTE      P4
      000000ABH   SFRSYM    DATA     BYTE      WKTCH
      000000B0H   SFRSYM    DATA     BYTE      P3
      000000A0H   SFRSYM    DATA     BYTE      P2
      00000090H   SFRSYM    DATA     BYTE      P1
      00000080H   SFRSYM    DATA     BYTE      P0
      00FF0046H   SYMBOL    CODE     ---       ips114_write_index
      00FFB071H   SYMBOL    CODE     ---       ips114_set_region

      00FF0046H   BLOCK     CODE     ---       LVL=0
      000114C2H   SYMBOL    XDATA    BYTE      dat
      00FF0046H   LINE      CODE     ---       #66
      00FF004AH   LINE      CODE     ---       #68
      00FF004CH   LINE      CODE     ---       #69
      00FF004EH   LINE      CODE     ---       #70
      00FF0050H   LINE      CODE     ---       #71
      00FF0059H   LINE      CODE     ---       #72
      00FF005BH   LINE      CODE     ---       #73
      00FF005DH   LINE      CODE     ---       #74
      00FF005FH   LINE      CODE     ---       #75
      ---         BLOCKEND  ---      ---       LVL=0

      00FFB071H   BLOCK     CODE     ---       LVL=0
      000112B6H   SYMBOL    XDATA    WORD      x1
      000112B8H   SYMBOL    XDATA    WORD      y1
      000112BAH   SYMBOL    XDATA    WORD      x2
      000112BCH   SYMBOL    XDATA    WORD      y2
L251 LINKER/LOCATER V4.66.93.0                                                        05/05/2025  21:49:10  PAGE 88


      00FFB071H   LINE      CODE     ---       #86
      00FFB089H   LINE      CODE     ---       #93
      00FFB093H   LINE      CODE     ---       #95
      00FFB098H   LINE      CODE     ---       #96
      00FFB0A7H   LINE      CODE     ---       #97
      00FFB0B6H   LINE      CODE     ---       #98
      00FFB0BBH   LINE      CODE     ---       #99
      00FFB0CAH   LINE      CODE     ---       #100
      00FFB0D9H   LINE      CODE     ---       #101
      00FFB0DEH   LINE      CODE     ---       #102
      00FFB0E1H   LINE      CODE     ---       #103
      00FFB0EDH   LINE      CODE     ---       #105
      00FFB0F2H   LINE      CODE     ---       #106
      00FFB101H   LINE      CODE     ---       #107
      00FFB110H   LINE      CODE     ---       #108
      00FFB115H   LINE      CODE     ---       #109
      00FFB124H   LINE      CODE     ---       #110
      00FFB133H   LINE      CODE     ---       #111
      00FFB138H   LINE      CODE     ---       #112
      00FFB13BH   LINE      CODE     ---       #113
      00FFB147H   LINE      CODE     ---       #115
      00FFB14CH   LINE      CODE     ---       #116
      00FFB15BH   LINE      CODE     ---       #117
      00FFB16AH   LINE      CODE     ---       #118
      00FFB16FH   LINE      CODE     ---       #119
      00FFB17EH   LINE      CODE     ---       #120
      00FFB18DH   LINE      CODE     ---       #121
      00FFB192H   LINE      CODE     ---       #122
      00FFB194H   LINE      CODE     ---       #125
      00FFB199H   LINE      CODE     ---       #126
      00FFB1A8H   LINE      CODE     ---       #127
      00FFB1B7H   LINE      CODE     ---       #128
      00FFB1BCH   LINE      CODE     ---       #129
      00FFB1CBH   LINE      CODE     ---       #130
      00FFB1DAH   LINE      CODE     ---       #131
      00FFB1DFH   LINE      CODE     ---       #132
      00FFB1DFH   LINE      CODE     ---       #133
      ---         BLOCKEND  ---      ---       LVL=0

      00FFD8DFH   BLOCK     CODE     ---       LVL=0
      00011351H   SYMBOL    XDATA    WORD      color
      00FFD8E5H   BLOCK     CODE     NEAR LAB  LVL=1
      00011353H   SYMBOL    XDATA    WORD      i
      00011355H   SYMBOL    XDATA    WORD      j
      ---         BLOCKEND  ---      ---       LVL=1
      00FFD8DFH   LINE      CODE     ---       #141
      00FFD8E5H   LINE      CODE     ---       #142
      00FFD8E5H   LINE      CODE     ---       #144
      00FFD8FCH   LINE      CODE     ---       #146
      00FFD906H   LINE      CODE     ---       #148
      00FFD910H   LINE      CODE     ---       #150
      00FFD91BH   LINE      CODE     ---       #151
      00FFD936H   LINE      CODE     ---       #152
      00FFD951H   LINE      CODE     ---       #153
      ---         BLOCKEND  ---      ---       LVL=0

      00FFE0F5H   BLOCK     CODE     ---       LVL=0
      000114ACH   SYMBOL    XDATA    INT       dir
      00FFE0F5H   LINE      CODE     ---       #161
      00FFE0FBH   LINE      CODE     ---       #163
      00FFE107H   LINE      CODE     ---       #164
      00FFE113H   LINE      CODE     ---       #166
      00FFE119H   LINE      CODE     ---       #167
      00FFE11FH   LINE      CODE     ---       #168
      00FFE121H   LINE      CODE     ---       #171
L251 LINKER/LOCATER V4.66.93.0                                                        05/05/2025  21:49:10  PAGE 89


      00FFE127H   LINE      CODE     ---       #172
      00FFE12DH   LINE      CODE     ---       #173
      00FFE12DH   LINE      CODE     ---       #174
      ---         BLOCKEND  ---      ---       LVL=0

      00FF0066H   BLOCK     CODE     ---       LVL=0
      00011418H   SYMBOL    XDATA    WORD      pen
      0001141AH   SYMBOL    XDATA    WORD      bgcolor
      00FF0066H   LINE      CODE     ---       #183
      00FF0072H   LINE      CODE     ---       #185
      00FF007EH   LINE      CODE     ---       #186
      00FF008AH   LINE      CODE     ---       #187
      ---         BLOCKEND  ---      ---       LVL=0
      00011357H   SYMBOL    XDATA    WORD      x
      00011359H   SYMBOL    XDATA    WORD      y
      0001135BH   SYMBOL    XDATA    WORD      color

      00FFC8ECH   BLOCK     CODE     ---       LVL=0
      000112BEH   SYMBOL    XDATA    WORD      x
      000112C0H   SYMBOL    XDATA    WORD      y
      000112C2H   SYMBOL    XDATA    CHAR      dat
      00FFC8FCH   BLOCK     CODE     NEAR LAB  LVL=1
      000112C3H   SYMBOL    XDATA    BYTE      i
      000112C4H   SYMBOL    XDATA    BYTE      j
      000112C5H   SYMBOL    XDATA    BYTE      temp
      ---         BLOCKEND  ---      ---       LVL=1
      00FFC8ECH   LINE      CODE     ---       #214
      00FFC8FCH   LINE      CODE     ---       #215
      00FFC8FCH   LINE      CODE     ---       #222
      00FFC904H   LINE      CODE     ---       #224
      00FFC933H   LINE      CODE     ---       #225
      00FFC959H   LINE      CODE     ---       #226
      00FFC960H   LINE      CODE     ---       #228
      00FFC967H   LINE      CODE     ---       #229
      00FFC974H   LINE      CODE     ---       #231
      00FFC97FH   LINE      CODE     ---       #232
      00FFC986H   LINE      CODE     ---       #233
      00FFC995H   LINE      CODE     ---       #234
      00FFC9A7H   LINE      CODE     ---       #235
      ---         BLOCKEND  ---      ---       LVL=0

      00FFD86AH   BLOCK     CODE     ---       LVL=0
      00011156H   SYMBOL    XDATA    WORD      x
      00011158H   SYMBOL    XDATA    WORD      y
      0001115AH   SYMBOL    XDATA    ---       dat
      00FFD880H   BLOCK     CODE     NEAR LAB  LVL=1
      0001115EH   SYMBOL    XDATA    WORD      j
      ---         BLOCKEND  ---      ---       LVL=1
      00FFD86AH   LINE      CODE     ---       #245
      00FFD880H   LINE      CODE     ---       #246
      00FFD880H   LINE      CODE     ---       #250
      00FFD888H   LINE      CODE     ---       #251
      00FFD88AH   LINE      CODE     ---       #253
      00FFD8BCH   LINE      CODE     ---       #254
      00FFD8C7H   LINE      CODE     ---       #255
      00FFD8DEH   LINE      CODE     ---       #256
      ---         BLOCKEND  ---      ---       LVL=0
      0001123BH   SYMBOL    XDATA    WORD      x
      0001123DH   SYMBOL    XDATA    WORD      y
      0001123FH   SYMBOL    XDATA    CHAR      dat
      00011240H   SYMBOL    XDATA    ---       a
      00011243H   SYMBOL    XDATA    BYTE      i

      00FFD20CH   BLOCK     CODE     ---       LVL=0
      00011244H   SYMBOL    XDATA    WORD      x
L251 LINKER/LOCATER V4.66.93.0                                                        05/05/2025  21:49:10  PAGE 90


      00011246H   SYMBOL    XDATA    WORD      y
      00011248H   SYMBOL    XDATA    BYTE      dat
      00FFD21CH   BLOCK     CODE     NEAR LAB  LVL=1
      00011249H   SYMBOL    XDATA    ---       a
      0001124CH   SYMBOL    XDATA    BYTE      i
      ---         BLOCKEND  ---      ---       LVL=1
      00FFD20CH   LINE      CODE     ---       #300
      00FFD21CH   LINE      CODE     ---       #301
      00FFD21CH   LINE      CODE     ---       #308
      00FFD22CH   LINE      CODE     ---       #309
      00FFD245H   LINE      CODE     ---       #310
      00FFD258H   LINE      CODE     ---       #311
      00FFD25DH   LINE      CODE     ---       #312
      00FFD25FH   LINE      CODE     ---       #314
      00FFD291H   LINE      CODE     ---       #315
      00FFD297H   LINE      CODE     ---       #316
      00FFD2A0H   LINE      CODE     ---       #318
      ---         BLOCKEND  ---      ---       LVL=0
      00010E32H   SYMBOL    XDATA    WORD      x
      00010E34H   SYMBOL    XDATA    WORD      y
      00010E36H   SYMBOL    XDATA    INT       dat
      00010E38H   SYMBOL    XDATA    ---       a
      00010E3DH   SYMBOL    XDATA    BYTE      i
      00010E3EH   SYMBOL    XDATA    WORD      x
      00010E40H   SYMBOL    XDATA    WORD      y
      00010E42H   SYMBOL    XDATA    WORD      dat
      00010E44H   SYMBOL    XDATA    ---       a
      00010E49H   SYMBOL    XDATA    BYTE      i
      000109CEH   SYMBOL    XDATA    WORD      x
      000109D0H   SYMBOL    XDATA    WORD      y
      000109D2H   SYMBOL    XDATA    LONG      dat
      000109D6H   SYMBOL    XDATA    BYTE      num
      000109D7H   SYMBOL    XDATA    ---       buff
      000109F9H   SYMBOL    XDATA    BYTE      length

      00FFA269H   BLOCK     CODE     ---       LVL=0
      0001099AH   SYMBOL    XDATA    WORD      x
      0001099CH   SYMBOL    XDATA    WORD      y
      0001099EH   SYMBOL    XDATA    DOUBLE    dat
      000109A6H   SYMBOL    XDATA    BYTE      num
      000109A7H   SYMBOL    XDATA    BYTE      pointnum
      00FFA27FH   BLOCK     CODE     NEAR LAB  LVL=1
      000109A8H   SYMBOL    XDATA    BYTE      length
      000109A9H   SYMBOL    XDATA    ---       buff
      000109CBH   SYMBOL    XDATA    CHAR      start
      000109CCH   SYMBOL    XDATA    CHAR      end
      000109CDH   SYMBOL    XDATA    CHAR      point
      ---         BLOCKEND  ---      ---       LVL=1
      00FFA269H   LINE      CODE     ---       #439
      00FFA27FH   LINE      CODE     ---       #440
      00FFA27FH   LINE      CODE     ---       #448
      00FFA28EH   LINE      CODE     ---       #449
      00FFA29DH   LINE      CODE     ---       #451
      00FFA2F7H   LINE      CODE     ---       #454
      00FFA334H   LINE      CODE     ---       #455
      00FFA33AH   LINE      CODE     ---       #456
      00FFA33AH   LINE      CODE     ---       #457
      00FFA348H   LINE      CODE     ---       #458
      00FFA35CH   LINE      CODE     ---       #459
      00FFA370H   LINE      CODE     ---       #460
      00FFA372H   LINE      CODE     ---       #462
      00FFA388H   LINE      CODE     ---       #463
      00FFA38EH   LINE      CODE     ---       #464
      00FFA394H   LINE      CODE     ---       #465
      00FFA39DH   LINE      CODE     ---       #467
L251 LINKER/LOCATER V4.66.93.0                                                        05/05/2025  21:49:10  PAGE 91


      00FFA3D0H   LINE      CODE     ---       #468
      00FFA3E6H   LINE      CODE     ---       #470
      00FFA3FBH   LINE      CODE     ---       #472
      00FFA412H   LINE      CODE     ---       #473
      ---         BLOCKEND  ---      ---       LVL=0
      00010A9CH   SYMBOL    XDATA    WORD      x
      00010A9EH   SYMBOL    XDATA    WORD      y
      00010AA0H   SYMBOL    XDATA    ---       p
      00010AA4H   SYMBOL    XDATA    WORD      width
      00010AA6H   SYMBOL    XDATA    WORD      value_max
      00010AA8H   SYMBOL    XDATA    WORD      dis_width
      00010AAAH   SYMBOL    XDATA    WORD      dis_value_max
      00010AACH   SYMBOL    XDATA    DWORD     i
      00010AB0H   SYMBOL    XDATA    DWORD     j
      00010AB4H   SYMBOL    XDATA    DWORD     width_index
      00010AB8H   SYMBOL    XDATA    DWORD     value_max_index
      00010B69H   SYMBOL    XDATA    WORD      x
      00010B6BH   SYMBOL    XDATA    WORD      y
      00010B6DH   SYMBOL    XDATA    BYTE      siz
      00010B6EH   SYMBOL    XDATA    ---       p
      00010B72H   SYMBOL    XDATA    BYTE      number
      00010B73H   SYMBOL    XDATA    WORD      color
      00010B75H   SYMBOL    XDATA    INT       i
      00010B77H   SYMBOL    XDATA    INT       j
      00010B79H   SYMBOL    XDATA    INT       k
      00010B7BH   SYMBOL    XDATA    BYTE      temp
      00010B7CH   SYMBOL    XDATA    BYTE      temp1
      00010B7DH   SYMBOL    XDATA    BYTE      temp2
      00010B7EH   SYMBOL    XDATA    ---       p_data

      00FF92C8H   BLOCK     CODE     ---       LVL=0
      00FF92C8H   LINE      CODE     ---       #564
      00FF92C8H   LINE      CODE     ---       #571
      00FF92FFH   LINE      CODE     ---       #579
      00FF9308H   LINE      CODE     ---       #580
      00FF9317H   LINE      CODE     ---       #582
      00FF9319H   LINE      CODE     ---       #583
      00FF9320H   LINE      CODE     ---       #585
      00FF9322H   LINE      CODE     ---       #586
      00FF9329H   LINE      CODE     ---       #588
      00FF932EH   LINE      CODE     ---       #589
      00FF9335H   LINE      CODE     ---       #590
      00FF9347H   LINE      CODE     ---       #591
      00FF935CH   LINE      CODE     ---       #592
      00FF9371H   LINE      CODE     ---       #593
      00FF9378H   LINE      CODE     ---       #595
      00FF937DH   LINE      CODE     ---       #596
      00FF9384H   LINE      CODE     ---       #598
      00FF9389H   LINE      CODE     ---       #599
      00FF9390H   LINE      CODE     ---       #600
      00FF9397H   LINE      CODE     ---       #601
      00FF939DH   LINE      CODE     ---       #602
      00FF93A4H   LINE      CODE     ---       #603
      00FF93ABH   LINE      CODE     ---       #605
      00FF93B0H   LINE      CODE     ---       #606
      00FF93B7H   LINE      CODE     ---       #608
      00FF93BCH   LINE      CODE     ---       #609
      00FF93C3H   LINE      CODE     ---       #611
      00FF93C8H   LINE      CODE     ---       #612
      00FF93CFH   LINE      CODE     ---       #614
      00FF93D4H   LINE      CODE     ---       #615
      00FF93DBH   LINE      CODE     ---       #617
      00FF93E0H   LINE      CODE     ---       #618
      00FF93E7H   LINE      CODE     ---       #620
      00FF93ECH   LINE      CODE     ---       #621
L251 LINKER/LOCATER V4.66.93.0                                                        05/05/2025  21:49:10  PAGE 92


      00FF93F3H   LINE      CODE     ---       #623
      00FF93F8H   LINE      CODE     ---       #624
      00FF93FFH   LINE      CODE     ---       #626
      00FF9404H   LINE      CODE     ---       #627
      00FF940BH   LINE      CODE     ---       #628
      00FF9412H   LINE      CODE     ---       #630
      00FF9417H   LINE      CODE     ---       #631
      00FF941EH   LINE      CODE     ---       #632
      00FF9425H   LINE      CODE     ---       #633
      00FF942CH   LINE      CODE     ---       #634
      00FF9433H   LINE      CODE     ---       #635
      00FF943AH   LINE      CODE     ---       #636
      00FF9441H   LINE      CODE     ---       #637
      00FF9448H   LINE      CODE     ---       #638
      00FF944FH   LINE      CODE     ---       #639
      00FF9456H   LINE      CODE     ---       #640
      00FF945DH   LINE      CODE     ---       #641
      00FF9464H   LINE      CODE     ---       #642
      00FF946BH   LINE      CODE     ---       #643
      00FF9472H   LINE      CODE     ---       #644
      00FF9479H   LINE      CODE     ---       #646
      00FF947EH   LINE      CODE     ---       #647
      00FF9485H   LINE      CODE     ---       #648
      00FF948CH   LINE      CODE     ---       #649
      00FF9493H   LINE      CODE     ---       #650
      00FF949AH   LINE      CODE     ---       #651
      00FF94A1H   LINE      CODE     ---       #652
      00FF94A8H   LINE      CODE     ---       #653
      00FF94AFH   LINE      CODE     ---       #654
      00FF94B6H   LINE      CODE     ---       #655
      00FF94BDH   LINE      CODE     ---       #656
      00FF94C4H   LINE      CODE     ---       #657
      00FF94CBH   LINE      CODE     ---       #658
      00FF94D2H   LINE      CODE     ---       #659
      00FF94D9H   LINE      CODE     ---       #660
      00FF94E0H   LINE      CODE     ---       #662
      00FF94E5H   LINE      CODE     ---       #664
      00FF94EAH   LINE      CODE     ---       #665
      00FF94F1H   LINE      CODE     ---       #667
      00FF94F6H   LINE      CODE     ---       #669
      00FF94FFH   LINE      CODE     ---       #670
      ---         BLOCKEND  ---      ---       LVL=0

      ---         MODULE    ---      ---       zf_device_ble6a20
      00FFDA88H   PUBLIC    CODE     ---       ble6a20_read_buffer
      00FFB4A6H   PUBLIC    CODE     ---       ble6a20_send_string
      00FFE2DAH   PUBLIC    CODE     ---       ble6a20_callback
      00FFD670H   PUBLIC    CODE     ---       ble6a20_init
      00FFDDBDH   PUBLIC    CODE     ---       ble6a20_send_byte
      000000D0H   SFRSYM    DATA     BYTE      PSW
      0000009DH   SFRSYM    DATA     BYTE      IRCBAND
      00000097H   SFRSYM    DATA     BYTE      AUXR2
      000000EFH   SFRSYM    DATA     BYTE      AUXINTIF
      000000FDH   SFRSYM    DATA     BYTE      S4CON
      000000ACH   SFRSYM    DATA     BYTE      S3CON
      0000009AH   SFRSYM    DATA     BYTE      S2CON
      000000B7H   SFRSYM    DATA     BYTE      IPH
      000000CDH   SFRSYM    DATA     BYTE      SPSTAT
      000000DDH   SFRSYM    DATA     BYTE      T4T3M
      000000C1H   SFRSYM    DATA     BYTE      WDT_CONTR
      000000DFH   SFRSYM    DATA     BYTE      IP3
      000000F4H   SFRSYM    DATA     BYTE      USBCON
      000000B5H   SFRSYM    DATA     BYTE      IP2
      000000FFH   SFRSYM    DATA     BYTE      RSTCFG
      000000C7H   SFRSYM    DATA     BYTE      IAP_CONTR
L251 LINKER/LOCATER V4.66.93.0                                                        05/05/2025  21:49:10  PAGE 93


      0000008EH   SFRSYM    DATA     BYTE      AUXR
      000000AFH   SFRSYM    DATA     BYTE      IE2
      00000088H   SFRSYM    DATA     BYTE      TCON
      00000089H   SFRSYM    DATA     BYTE      TMOD
      00000098H   SFRSYM    DATA     BYTE      SCON
      00000087H   SFRSYM    DATA     BYTE      PCON
      000000BCH   SFRSYM    DATA     BYTE      ADC_CONTR
      000000D1H   SFRSYM    DATA     BYTE      PSW1
      000000E7H   SFRSYM    DATA     BYTE      CMPCR2
      000000E6H   SFRSYM    DATA     BYTE      CMPCR1
      000000DEH   SFRSYM    DATA     BYTE      ADCCFG
      000000B8H   SFRSYM    DATA     BYTE      IP
      0000008FH   SFRSYM    DATA     BYTE      INTCLKO
      000000EEH   SFRSYM    DATA     BYTE      IP3H
      000000B6H   SFRSYM    DATA     BYTE      IP2H
      000000BFH   SFRSYM    DATA     BYTE      P_SW4
      000000A8H   SFRSYM    DATA     BYTE      IE
      000000BBH   SFRSYM    DATA     BYTE      P_SW3
      000000BAH   SFRSYM    DATA     BYTE      P_SW2
      000000A2H   SFRSYM    DATA     BYTE      P_SW1
      000000CEH   SFRSYM    DATA     BYTE      SPCTL
      000000F8H   SFRSYM    DATA     BYTE      P7
      000000E8H   SFRSYM    DATA     BYTE      P6
      000000C8H   SFRSYM    DATA     BYTE      P5
      000000C0H   SFRSYM    DATA     BYTE      P4
      000000ABH   SFRSYM    DATA     BYTE      WKTCH
      000000B0H   SFRSYM    DATA     BYTE      P3
      000000A0H   SFRSYM    DATA     BYTE      P2
      00000090H   SFRSYM    DATA     BYTE      P1
      00000080H   SFRSYM    DATA     BYTE      P0
      0001080DH   SYMBOL    XDATA    ---       ble6a20_buffer
      0001084DH   SYMBOL    XDATA    ---       ble6a20_fifo
      00FFE891H   SYMBOL    HCONST   ---       ?tpl?0001

      00FFDDBDH   BLOCK     CODE     ---       LVL=0
      00011497H   SYMBOL    XDATA    BYTE      dat
      00FFDDC1H   BLOCK     CODE     NEAR LAB  LVL=1
      00011498H   SYMBOL    XDATA    WORD      time_count
      ---         BLOCKEND  ---      ---       LVL=1
      00FFDDBDH   LINE      CODE     ---       #73
      00FFDDC1H   LINE      CODE     ---       #74
      00FFDDC1H   LINE      CODE     ---       #75
      00FFDDCBH   LINE      CODE     ---       #77
      00FFDDCDH   LINE      CODE     ---       #79
      00FFDDD6H   LINE      CODE     ---       #81
      00FFDDE1H   LINE      CODE     ---       #82
      00FFDDE3H   LINE      CODE     ---       #83
      00FFDDE3H   LINE      CODE     ---       #85
      00FFDDEEH   LINE      CODE     ---       #86
      00FFDDF5H   LINE      CODE     ---       #87
      00FFDDFFH   LINE      CODE     ---       #89
      00FFDE11H   LINE      CODE     ---       #90
      ---         BLOCKEND  ---      ---       LVL=0
      00011160H   SYMBOL    XDATA    ---       buff
      00011164H   SYMBOL    XDATA    DWORD     len
      00011168H   SYMBOL    XDATA    WORD      time_count

      00FFB4A6H   BLOCK     CODE     ---       LVL=0
      0001060FH   SYMBOL    XDATA    ---       str
      00FFB4B0H   BLOCK     CODE     NEAR LAB  LVL=1
      00010613H   SYMBOL    XDATA    WORD      time_count
      00010615H   SYMBOL    XDATA    DWORD     len
      00010619H   SYMBOL    XDATA    ---       temp
      ---         BLOCKEND  ---      ---       LVL=1
      00FFB4A6H   LINE      CODE     ---       #144
L251 LINKER/LOCATER V4.66.93.0                                                        05/05/2025  21:49:10  PAGE 94


      00FFB4B0H   LINE      CODE     ---       #145
      00FFB4B0H   LINE      CODE     ---       #146
      00FFB4B8H   LINE      CODE     ---       #147
      00FFB4D1H   LINE      CODE     ---       #148
      00FFB4E6H   LINE      CODE     ---       #151
      00FFB4E9H   LINE      CODE     ---       #153
      00FFB4F5H   LINE      CODE     ---       #155
      00FFB505H   LINE      CODE     ---       #157
      00FFB522H   LINE      CODE     ---       #158
      00FFB535H   LINE      CODE     ---       #159
      00FFB54AH   LINE      CODE     ---       #160
      00FFB55FH   LINE      CODE     ---       #161
      00FFB567H   LINE      CODE     ---       #162
      00FFB569H   LINE      CODE     ---       #165
      00FFB58CH   LINE      CODE     ---       #166
      00FFB5A7H   LINE      CODE     ---       #167
      00FFB5B3H   LINE      CODE     ---       #168
      00FFB5B5H   LINE      CODE     ---       #169
      00FFB5B5H   LINE      CODE     ---       #170
      00FFB5B5H   LINE      CODE     ---       #173
      00FFB5C6H   LINE      CODE     ---       #175
      00FFB5C6H   LINE      CODE     ---       #176
      00FFB5C6H   LINE      CODE     ---       #178
      00FFB5CDH   LINE      CODE     ---       #179
      00FFB5CDH   LINE      CODE     ---       #180
      00FFB5DEH   LINE      CODE     ---       #182
      00FFB5E8H   LINE      CODE     ---       #183
      ---         BLOCKEND  ---      ---       LVL=0

      00FFDA88H   BLOCK     CODE     ---       LVL=0
      00010E4AH   SYMBOL    XDATA    ---       buff
      00010E4EH   SYMBOL    XDATA    DWORD     len
      00FFDA9CH   BLOCK     CODE     NEAR LAB  LVL=1
      00010E52H   SYMBOL    XDATA    DWORD     data_len
      ---         BLOCKEND  ---      ---       LVL=1
      00FFDA88H   LINE      CODE     ---       #194
      00FFDA9CH   LINE      CODE     ---       #195
      00FFDA9CH   LINE      CODE     ---       #196
      00FFDAB0H   LINE      CODE     ---       #198
      00FFDADFH   LINE      CODE     ---       #199
      00FFDAE9H   LINE      CODE     ---       #200
      ---         BLOCKEND  ---      ---       LVL=0

      00FFE2DAH   BLOCK     CODE     ---       LVL=0
      000114C3H   SYMBOL    XDATA    BYTE      uart_dat
      00FFE2DAH   LINE      CODE     ---       #211
      00FFE2DEH   LINE      CODE     ---       #214
      00FFE2FFH   LINE      CODE     ---       #215
      ---         BLOCKEND  ---      ---       LVL=0

      00FFD670H   BLOCK     CODE     ---       LVL=0
      000114C4H   SYMBOL    XDATA    BYTE      return_state
      00FFD670H   LINE      CODE     ---       #224
      00FFD670H   LINE      CODE     ---       #225
      00FFD670H   LINE      CODE     ---       #226
      00FFD675H   LINE      CODE     ---       #229
      00FFD67CH   LINE      CODE     ---       #231
      00FFD68FH   LINE      CODE     ---       #233
      00FFD6BCH   LINE      CODE     ---       #234
      00FFD6CDH   LINE      CODE     ---       #237
      00FFD6EAH   LINE      CODE     ---       #238
      00FFD6F3H   LINE      CODE     ---       #240
      00FFD6F7H   LINE      CODE     ---       #241
      ---         BLOCKEND  ---      ---       LVL=0

L251 LINKER/LOCATER V4.66.93.0                                                        05/05/2025  21:49:10  PAGE 95


      ---         MODULE    ---      ---       zf_device_imu660ra
      00FFD77AH   PUBLIC    CODE     ---       imu660ra_get_gyro
      00FF9500H   PUBLIC    CODE     ---       imu660ra_init
      00FFD7F2H   PUBLIC    CODE     ---       imu660ra_get_acc
      00010ABCH   PUBLIC    XDATA    INT       imu660ra_acc_x
      00010ABEH   PUBLIC    XDATA    INT       imu660ra_acc_y
      00010AC0H   PUBLIC    XDATA    INT       imu660ra_acc_z
      00010AC2H   PUBLIC    XDATA    INT       imu660ra_gyro_x
      00010AC4H   PUBLIC    XDATA    INT       imu660ra_gyro_y
      00010AC6H   PUBLIC    XDATA    INT       imu660ra_gyro_z
      00010AC8H   PUBLIC    XDATA    ---       imu660ra_transition_factor
      00010AD0H   PUBLIC    XDATA    INT       imu_acc_x_pre
      00010AD2H   PUBLIC    XDATA    INT       imu_acc_y_pre
      00010AD4H   PUBLIC    XDATA    INT       imu_acc_z_pre
      00010AD6H   PUBLIC    XDATA    INT       imu_gyro_x_pre
      00010AD8H   PUBLIC    XDATA    INT       imu_gyro_y_pre
      00010ADAH   PUBLIC    XDATA    INT       imu_gyro_z_pre
      000000D0H   SFRSYM    DATA     BYTE      PSW
      0000009DH   SFRSYM    DATA     BYTE      IRCBAND
      00000097H   SFRSYM    DATA     BYTE      AUXR2
      000000EFH   SFRSYM    DATA     BYTE      AUXINTIF
      000000FDH   SFRSYM    DATA     BYTE      S4CON
      000000ACH   SFRSYM    DATA     BYTE      S3CON
      0000009AH   SFRSYM    DATA     BYTE      S2CON
      000000B7H   SFRSYM    DATA     BYTE      IPH
      000000CDH   SFRSYM    DATA     BYTE      SPSTAT
      000000DDH   SFRSYM    DATA     BYTE      T4T3M
      000000C1H   SFRSYM    DATA     BYTE      WDT_CONTR
      000000DFH   SFRSYM    DATA     BYTE      IP3
      000000F4H   SFRSYM    DATA     BYTE      USBCON
      000000B5H   SFRSYM    DATA     BYTE      IP2
      000000FFH   SFRSYM    DATA     BYTE      RSTCFG
      000000C7H   SFRSYM    DATA     BYTE      IAP_CONTR
      0000008EH   SFRSYM    DATA     BYTE      AUXR
      000000AFH   SFRSYM    DATA     BYTE      IE2
      00000088H   SFRSYM    DATA     BYTE      TCON
      00000089H   SFRSYM    DATA     BYTE      TMOD
      00000098H   SFRSYM    DATA     BYTE      SCON
      00000087H   SFRSYM    DATA     BYTE      PCON
      000000BCH   SFRSYM    DATA     BYTE      ADC_CONTR
      000000D1H   SFRSYM    DATA     BYTE      PSW1
      000000E7H   SFRSYM    DATA     BYTE      CMPCR2
      000000E6H   SFRSYM    DATA     BYTE      CMPCR1
      000000DEH   SFRSYM    DATA     BYTE      ADCCFG
      000000B8H   SFRSYM    DATA     BYTE      IP
      0000008FH   SFRSYM    DATA     BYTE      INTCLKO
      000000EEH   SFRSYM    DATA     BYTE      IP3H
      000000B6H   SFRSYM    DATA     BYTE      IP2H
      000000BFH   SFRSYM    DATA     BYTE      P_SW4
      000000A8H   SFRSYM    DATA     BYTE      IE
      000000BBH   SFRSYM    DATA     BYTE      P_SW3
      000000BAH   SFRSYM    DATA     BYTE      P_SW2
      000000A2H   SFRSYM    DATA     BYTE      P_SW1
      000000CEH   SFRSYM    DATA     BYTE      SPCTL
      000000F8H   SFRSYM    DATA     BYTE      P7
      000000E8H   SFRSYM    DATA     BYTE      P6
      000000C8H   SFRSYM    DATA     BYTE      P5
      000000C0H   SFRSYM    DATA     BYTE      P4
      000000ABH   SFRSYM    DATA     BYTE      WKTCH
      000000B0H   SFRSYM    DATA     BYTE      P3
      000000A0H   SFRSYM    DATA     BYTE      P2
      00000090H   SFRSYM    DATA     BYTE      P1
      00000080H   SFRSYM    DATA     BYTE      P0
      00FFE07FH   SYMBOL    CODE     ---       imu660ra_read_register
      00FFDE12H   SYMBOL    CODE     ---       imu660ra_write_registers
L251 LINKER/LOCATER V4.66.93.0                                                        05/05/2025  21:49:10  PAGE 96


      00FFE233H   SYMBOL    CODE     ---       imu660ra_write_register
      00FFDAEAH   SYMBOL    CODE     ---       imu660ra_self_check
      00FFC9A8H   SYMBOL    CODE     ---       imu660ra_read_registers

      00FFE233H   BLOCK     CODE     ---       LVL=0
      000114AEH   SYMBOL    XDATA    BYTE      reg
      000114AFH   SYMBOL    XDATA    BYTE      dat
      00FFE233H   LINE      CODE     ---       #92
      00FFE23DH   LINE      CODE     ---       #94
      00FFE245H   LINE      CODE     ---       #95
      00FFE256H   LINE      CODE     ---       #96
      00FFE25FH   LINE      CODE     ---       #97
      ---         BLOCKEND  ---      ---       LVL=0

      00FFDE12H   BLOCK     CODE     ---       LVL=0
      0001124DH   SYMBOL    XDATA    BYTE      reg
      0001124EH   SYMBOL    XDATA    ---       dat
      00011252H   SYMBOL    XDATA    DWORD     len
      00FFDE12H   LINE      CODE     ---       #107
      00FFDE2AH   LINE      CODE     ---       #109
      00FFDE32H   LINE      CODE     ---       #110
      00FFDE5BH   LINE      CODE     ---       #111
      00FFDE64H   LINE      CODE     ---       #112
      ---         BLOCKEND  ---      ---       LVL=0

      00FFE07FH   BLOCK     CODE     ---       LVL=0
      0001149AH   SYMBOL    XDATA    BYTE      reg
      00FFE083H   BLOCK     CODE     NEAR LAB  LVL=1
      0001149BH   SYMBOL    XDATA    ---       dat
      ---         BLOCKEND  ---      ---       LVL=1
      00FFE07FH   LINE      CODE     ---       #121
      00FFE083H   LINE      CODE     ---       #122
      00FFE083H   LINE      CODE     ---       #124
      00FFE08BH   LINE      CODE     ---       #125
      00FFE0AEH   LINE      CODE     ---       #126
      00FFE0B7H   LINE      CODE     ---       #127
      00FFE0BBH   LINE      CODE     ---       #128
      ---         BLOCKEND  ---      ---       LVL=0

      00FFC9A8H   BLOCK     CODE     ---       LVL=0
      00010C5EH   SYMBOL    XDATA    BYTE      reg
      00010C5FH   SYMBOL    XDATA    ---       dat
      00010C63H   SYMBOL    XDATA    DWORD     len
      00FFC9C0H   BLOCK     CODE     NEAR LAB  LVL=1
      00010C67H   SYMBOL    XDATA    WORD      i
      00010C69H   SYMBOL    XDATA    ---       temp_data
      ---         BLOCKEND  ---      ---       LVL=1
      00FFC9A8H   LINE      CODE     ---       #139
      00FFC9C0H   LINE      CODE     ---       #140
      00FFC9C0H   LINE      CODE     ---       #141
      00FFC9C8H   LINE      CODE     ---       #143
      00FFC9D0H   LINE      CODE     ---       #144
      00FFC9FBH   LINE      CODE     ---       #145
      00FFCA04H   LINE      CODE     ---       #147
      00FFCA0EH   LINE      CODE     ---       #149
      00FFCA42H   LINE      CODE     ---       #150
      00FFCA63H   LINE      CODE     ---       #151
      ---         BLOCKEND  ---      ---       LVL=0

      00FFDAEAH   BLOCK     CODE     ---       LVL=0
      0001141CH   SYMBOL    XDATA    BYTE      dat
      0001141DH   SYMBOL    XDATA    BYTE      return_state
      0001141EH   SYMBOL    XDATA    WORD      timeout_count
      00FFDAEAH   LINE      CODE     ---       #161
      00FFDAEAH   LINE      CODE     ---       #162
L251 LINKER/LOCATER V4.66.93.0                                                        05/05/2025  21:49:10  PAGE 97


      00FFDAEAH   LINE      CODE     ---       #163
      00FFDAF4H   LINE      CODE     ---       #164
      00FFDAFCH   LINE      CODE     ---       #166
      00FFDAFCH   LINE      CODE     ---       #168
      00FFDB0FH   LINE      CODE     ---       #170
      00FFDB15H   LINE      CODE     ---       #171
      00FFDB17H   LINE      CODE     ---       #172
      00FFDB17H   LINE      CODE     ---       #174
      00FFDB1FH   LINE      CODE     ---       #175
      00FFDB36H   LINE      CODE     ---       #176
      00FFDB3DH   LINE      CODE     ---       #177
      00FFDB44H   LINE      CODE     ---       #180
      00FFDB48H   LINE      CODE     ---       #181
      ---         BLOCKEND  ---      ---       LVL=0

      00FFD7F2H   BLOCK     CODE     ---       LVL=0
      0001135DH   SYMBOL    XDATA    ---       dat
      00FFD7F2H   LINE      CODE     ---       #191
      00FFD7F2H   LINE      CODE     ---       #192
      00FFD7F2H   LINE      CODE     ---       #195
      00FFD7FEH   LINE      CODE     ---       #196
      00FFD80AH   LINE      CODE     ---       #197
      00FFD816H   LINE      CODE     ---       #199
      00FFD827H   LINE      CODE     ---       #200
      00FFD83DH   LINE      CODE     ---       #201
      00FFD853H   LINE      CODE     ---       #202
      00FFD869H   LINE      CODE     ---       #203
      ---         BLOCKEND  ---      ---       LVL=0

      00FFD77AH   BLOCK     CODE     ---       LVL=0
      00011363H   SYMBOL    XDATA    ---       dat
      00FFD77AH   LINE      CODE     ---       #212
      00FFD77AH   LINE      CODE     ---       #213
      00FFD77AH   LINE      CODE     ---       #216
      00FFD786H   LINE      CODE     ---       #217
      00FFD792H   LINE      CODE     ---       #218
      00FFD79EH   LINE      CODE     ---       #220
      00FFD7AFH   LINE      CODE     ---       #221
      00FFD7C5H   LINE      CODE     ---       #222
      00FFD7DBH   LINE      CODE     ---       #223
      00FFD7F1H   LINE      CODE     ---       #224
      ---         BLOCKEND  ---      ---       LVL=0

      00FF9500H   BLOCK     CODE     ---       LVL=0
      000114C5H   SYMBOL    XDATA    BYTE      return_state
      00FF9500H   LINE      CODE     ---       #233
      00FF9500H   LINE      CODE     ---       #234
      00FF9500H   LINE      CODE     ---       #235
      00FF9505H   LINE      CODE     ---       #236
      00FF950CH   LINE      CODE     ---       #241
      00FF9545H   LINE      CODE     ---       #242
      00FF9556H   LINE      CODE     ---       #246
      00FF9556H   LINE      CODE     ---       #248
      00FF955BH   LINE      CODE     ---       #253
      00FF9566H   LINE      CODE     ---       #254
      00FF956CH   LINE      CODE     ---       #255
      00FF956FH   LINE      CODE     ---       #256
      00FF956FH   LINE      CODE     ---       #258
      00FF9576H   LINE      CODE     ---       #259
      00FF957DH   LINE      CODE     ---       #260
      00FF9584H   LINE      CODE     ---       #261
      00FF9595H   LINE      CODE     ---       #262
      00FF959DH   LINE      CODE     ---       #263
      00FF95A4H   LINE      CODE     ---       #265
      00FF95AEH   LINE      CODE     ---       #270
L251 LINKER/LOCATER V4.66.93.0                                                        05/05/2025  21:49:10  PAGE 98


      00FF95B9H   LINE      CODE     ---       #271
      00FF95BFH   LINE      CODE     ---       #272
      00FF95C2H   LINE      CODE     ---       #273
      00FF95C2H   LINE      CODE     ---       #275
      00FF95CAH   LINE      CODE     ---       #276
      00FF95D2H   LINE      CODE     ---       #277
      00FF95DAH   LINE      CODE     ---       #284
      00FF95F2H   LINE      CODE     ---       #286
      00FF95F2H   LINE      CODE     ---       #288
      00FF95FDH   LINE      CODE     ---       #289
      00FF9603H   LINE      CODE     ---       #291
      00FF9605H   LINE      CODE     ---       #293
      00FF9605H   LINE      CODE     ---       #295
      00FF960CH   LINE      CODE     ---       #296
      00FF961CH   LINE      CODE     ---       #298
      00FF961EH   LINE      CODE     ---       #300
      00FF961EH   LINE      CODE     ---       #302
      00FF9626H   LINE      CODE     ---       #303
      00FF9636H   LINE      CODE     ---       #305
      00FF9638H   LINE      CODE     ---       #307
      00FF9638H   LINE      CODE     ---       #309
      00FF9640H   LINE      CODE     ---       #310
      00FF9650H   LINE      CODE     ---       #312
      00FF9652H   LINE      CODE     ---       #314
      00FF9652H   LINE      CODE     ---       #316
      00FF965AH   LINE      CODE     ---       #317
      00FF966AH   LINE      CODE     ---       #319
      00FF966AH   LINE      CODE     ---       #320
      00FF966AH   LINE      CODE     ---       #322
      00FF9676H   LINE      CODE     ---       #324
      00FF9676H   LINE      CODE     ---       #325
      00FF9676H   LINE      CODE     ---       #333
      00FF9695H   LINE      CODE     ---       #335
      00FF9695H   LINE      CODE     ---       #337
      00FF96A0H   LINE      CODE     ---       #338
      00FF96A6H   LINE      CODE     ---       #340
      00FF96A9H   LINE      CODE     ---       #342
      00FF96A9H   LINE      CODE     ---       #344
      00FF96B1H   LINE      CODE     ---       #345
      00FF96C3H   LINE      CODE     ---       #347
      00FF96C5H   LINE      CODE     ---       #349
      00FF96C5H   LINE      CODE     ---       #351
      00FF96CDH   LINE      CODE     ---       #352
      00FF96DFH   LINE      CODE     ---       #354
      00FF96E1H   LINE      CODE     ---       #356
      00FF96E1H   LINE      CODE     ---       #358
      00FF96E9H   LINE      CODE     ---       #359
      00FF96FBH   LINE      CODE     ---       #361
      00FF96FDH   LINE      CODE     ---       #363
      00FF96FDH   LINE      CODE     ---       #365
      00FF9705H   LINE      CODE     ---       #366
      00FF9717H   LINE      CODE     ---       #368
      00FF9719H   LINE      CODE     ---       #370
      00FF9719H   LINE      CODE     ---       #372
      00FF9720H   LINE      CODE     ---       #373
      00FF9732H   LINE      CODE     ---       #375
      00FF9732H   LINE      CODE     ---       #376
      00FF9732H   LINE      CODE     ---       #378
      00FF9732H   LINE      CODE     ---       #380
      00FF9732H   LINE      CODE     ---       #381
      00FF9732H   LINE      CODE     ---       #385
      00FF9736H   LINE      CODE     ---       #386
      ---         BLOCKEND  ---      ---       LVL=0

      ---         MODULE    ---      ---       zf_device_gps_tau1201
L251 LINKER/LOCATER V4.66.93.0                                                        05/05/2025  21:49:10  PAGE 99


      00FF7CF7H   PUBLIC    CODE     ---       get_two_points_distance
      00FF9956H   PUBLIC    CODE     ---       gps_data_parse
      00FF8BA4H   PUBLIC    CODE     ---       gps_init
      00FF6400H   PUBLIC    CODE     ---       get_two_points_azimuth
      00FFABFDH   PUBLIC    CODE     ---       gps_uart_callback
      00010219H   PUBLIC    XDATA    BYTE      gps_tau1201_flag
      0001029AH   PUBLIC    XDATA    ---       gps_tau1201
      000103CEH   PUBLIC    XDATA    INT       gps_gga_state
      000103D0H   PUBLIC    XDATA    INT       gps_rmc_state
      000106FCH   PUBLIC    XDATA    BYTE      ?get_two_points_distance?BYTE
      00010962H   PUBLIC    XDATA    BYTE      ?get_two_points_azimuth?BYTE
      000000D0H   SFRSYM    DATA     BYTE      PSW
      0000009DH   SFRSYM    DATA     BYTE      IRCBAND
      00000097H   SFRSYM    DATA     BYTE      AUXR2
      000000EFH   SFRSYM    DATA     BYTE      AUXINTIF
      000000FDH   SFRSYM    DATA     BYTE      S4CON
      000000ACH   SFRSYM    DATA     BYTE      S3CON
      0000009AH   SFRSYM    DATA     BYTE      S2CON
      000000B7H   SFRSYM    DATA     BYTE      IPH
      000000CDH   SFRSYM    DATA     BYTE      SPSTAT
      000000DDH   SFRSYM    DATA     BYTE      T4T3M
      000000C1H   SFRSYM    DATA     BYTE      WDT_CONTR
      000000DFH   SFRSYM    DATA     BYTE      IP3
      000000F4H   SFRSYM    DATA     BYTE      USBCON
      000000B5H   SFRSYM    DATA     BYTE      IP2
      000000FFH   SFRSYM    DATA     BYTE      RSTCFG
      000000C7H   SFRSYM    DATA     BYTE      IAP_CONTR
      0000008EH   SFRSYM    DATA     BYTE      AUXR
      000000AFH   SFRSYM    DATA     BYTE      IE2
      00000088H   SFRSYM    DATA     BYTE      TCON
      00000089H   SFRSYM    DATA     BYTE      TMOD
      00000098H   SFRSYM    DATA     BYTE      SCON
      00000087H   SFRSYM    DATA     BYTE      PCON
      000000BCH   SFRSYM    DATA     BYTE      ADC_CONTR
      000000D1H   SFRSYM    DATA     BYTE      PSW1
      000000E7H   SFRSYM    DATA     BYTE      CMPCR2
      000000E6H   SFRSYM    DATA     BYTE      CMPCR1
      000000DEH   SFRSYM    DATA     BYTE      ADCCFG
      000000B8H   SFRSYM    DATA     BYTE      IP
      0000008FH   SFRSYM    DATA     BYTE      INTCLKO
      000000EEH   SFRSYM    DATA     BYTE      IP3H
      000000B6H   SFRSYM    DATA     BYTE      IP2H
      000000BFH   SFRSYM    DATA     BYTE      P_SW4
      000000A8H   SFRSYM    DATA     BYTE      IE
      000000BBH   SFRSYM    DATA     BYTE      P_SW3
      000000BAH   SFRSYM    DATA     BYTE      P_SW2
      000000A2H   SFRSYM    DATA     BYTE      P_SW1
      000000CEH   SFRSYM    DATA     BYTE      SPCTL
      000000F8H   SFRSYM    DATA     BYTE      P7
      000000E8H   SFRSYM    DATA     BYTE      P6
      000000C8H   SFRSYM    DATA     BYTE      P5
      000000C0H   SFRSYM    DATA     BYTE      P4
      000000ABH   SFRSYM    DATA     BYTE      WKTCH
      000000B0H   SFRSYM    DATA     BYTE      P3
      000000A0H   SFRSYM    DATA     BYTE      P2
      00000090H   SFRSYM    DATA     BYTE      P1
      00000080H   SFRSYM    DATA     BYTE      P0
      00FFE7F7H   SYMBOL    HCONST   ---       ?tpl?0001
      00FFE7FCH   SYMBOL    HCONST   ---       ?tpl?0002
      00FFE818H   SYMBOL    HCONST   ---       ?tpl?0003
      00FFE823H   SYMBOL    HCONST   ---       ?tpl?0004
      00FFE82EH   SYMBOL    HCONST   ---       ?tpl?0005
      00FFE839H   SYMBOL    HCONST   ---       ?tpl?0006
      00FFE844H   SYMBOL    HCONST   ---       ?tpl?0007
      00FFE84FH   SYMBOL    HCONST   ---       ?tpl?0008
L251 LINKER/LOCATER V4.66.93.0                                                        05/05/2025  21:49:10  PAGE 100


      00FFE85AH   SYMBOL    HCONST   ---       ?tpl?0009
      00FFE865H   SYMBOL    HCONST   ---       ?tpl?000A
      00FFE870H   SYMBOL    HCONST   ---       ?tpl?000B
      00FFE87BH   SYMBOL    HCONST   ---       ?tpl?000C
      00FFE886H   SYMBOL    HCONST   ---       ?tpl?000D
      00FFCD2CH   SYMBOL    CODE     ---       get_double_number
      00FFD2A1H   SYMBOL    CODE     ---       get_float_number
      00FFA757H   SYMBOL    CODE     ---       utc_to_btc
      00FFC39CH   SYMBOL    CODE     ---       gps_gngga_parse
      00FF5231H   SYMBOL    CODE     ---       gps_gnrmc_parse
      00FFD6F8H   SYMBOL    CODE     ---       get_int_number
      00FFC82DH   SYMBOL    CODE     ---       get_parameter_index
      00010202H   SYMBOL    XDATA    ---       gps_tau1201_receiver_fifo
      0001021AH   SYMBOL    XDATA    ---       gps_gga_buffer
      000102CDH   SYMBOL    XDATA    BYTE      gps_tau1201_state
      000102CEH   SYMBOL    XDATA    ---       gps_rmc_buffer
      0001034EH   SYMBOL    XDATA    ---       gps_tau1201_receiver_buffer

      00FFC82DH   BLOCK     CODE     ---       LVL=0
      00010D6BH   SYMBOL    XDATA    BYTE      num
      00010D6CH   SYMBOL    XDATA    ---       str
      00FFC83BH   BLOCK     CODE     NEAR LAB  LVL=1
      00010D70H   SYMBOL    XDATA    BYTE      i
      00010D71H   SYMBOL    XDATA    BYTE      j
      00010D72H   SYMBOL    XDATA    ---       temp
      00010D76H   SYMBOL    XDATA    BYTE      len
      00010D77H   SYMBOL    XDATA    BYTE      len1
      ---         BLOCKEND  ---      ---       LVL=1
      00FFC82DH   LINE      CODE     ---       #81
      00FFC83BH   LINE      CODE     ---       #82
      00FFC83BH   LINE      CODE     ---       #83
      00FFC845H   LINE      CODE     ---       #84
      00FFC85EH   LINE      CODE     ---       #85
      00FFC868H   LINE      CODE     ---       #87
      00FFC876H   LINE      CODE     ---       #89
      00FFC892H   LINE      CODE     ---       #90
      00FFC892H   LINE      CODE     ---       #92
      00FFC899H   LINE      CODE     ---       #94
      00FFC8B1H   LINE      CODE     ---       #96
      00FFC8B7H   LINE      CODE     ---       #97
      00FFC8B7H   LINE      CODE     ---       #98
      00FFC8C5H   LINE      CODE     ---       #100
      00FFC8D1H   LINE      CODE     ---       #101
      00FFC8D3H   LINE      CODE     ---       #102
      00FFC8E7H   LINE      CODE     ---       #105
      00FFC8EBH   LINE      CODE     ---       #106
      ---         BLOCKEND  ---      ---       LVL=0

      00FFD6F8H   BLOCK     CODE     ---       LVL=0
      00010CA6H   SYMBOL    XDATA    ---       s
      00FFD702H   BLOCK     CODE     NEAR LAB  LVL=1
      00010CAAH   SYMBOL    XDATA    ---       buf
      00010CB4H   SYMBOL    XDATA    BYTE      i
      00010CB5H   SYMBOL    XDATA    INT       return_value
      ---         BLOCKEND  ---      ---       LVL=1
      00FFD6F8H   LINE      CODE     ---       #115
      00FFD702H   LINE      CODE     ---       #116
      00FFD702H   LINE      CODE     ---       #118
      00FFD707H   LINE      CODE     ---       #119
      00FFD70FH   LINE      CODE     ---       #120
      00FFD722H   LINE      CODE     ---       #121
      00FFD72EH   LINE      CODE     ---       #122
      00FFD74DH   LINE      CODE     ---       #123
      00FFD762H   LINE      CODE     ---       #124
      00FFD773H   LINE      CODE     ---       #125
L251 LINKER/LOCATER V4.66.93.0                                                        05/05/2025  21:49:10  PAGE 101


      00FFD779H   LINE      CODE     ---       #126
      ---         BLOCKEND  ---      ---       LVL=0

      00FFD2A1H   BLOCK     CODE     ---       LVL=0
      00010B9AH   SYMBOL    XDATA    ---       s
      00FFD2ABH   BLOCK     CODE     NEAR LAB  LVL=1
      00010B9EH   SYMBOL    XDATA    BYTE      i
      00010B9FH   SYMBOL    XDATA    ---       buf
      00010BAEH   SYMBOL    XDATA    FLOAT     return_value
      ---         BLOCKEND  ---      ---       LVL=1
      00FFD2A1H   LINE      CODE     ---       #135
      00FFD2ABH   LINE      CODE     ---       #136
      00FFD2ABH   LINE      CODE     ---       #137
      00FFD2B0H   LINE      CODE     ---       #139
      00FFD2BCH   LINE      CODE     ---       #141
      00FFD2CFH   LINE      CODE     ---       #142
      00FFD2DBH   LINE      CODE     ---       #143
      00FFD2FAH   LINE      CODE     ---       #144
      00FFD30FH   LINE      CODE     ---       #145
      00FFD327H   LINE      CODE     ---       #146
      00FFD331H   LINE      CODE     ---       #147
      ---         BLOCKEND  ---      ---       LVL=0

      00FFCD2CH   BLOCK     CODE     ---       LVL=0
      00010B34H   SYMBOL    XDATA    ---       s
      00FFCD36H   BLOCK     CODE     NEAR LAB  LVL=1
      00010B38H   SYMBOL    XDATA    BYTE      i
      00010B39H   SYMBOL    XDATA    ---       buf
      00010B48H   SYMBOL    XDATA    DOUBLE    return_value
      ---         BLOCKEND  ---      ---       LVL=1
      00FFCD2CH   LINE      CODE     ---       #156
      00FFCD36H   LINE      CODE     ---       #157
      00FFCD36H   LINE      CODE     ---       #158
      00FFCD3BH   LINE      CODE     ---       #160
      00FFCD51H   LINE      CODE     ---       #162
      00FFCD64H   LINE      CODE     ---       #163
      00FFCD70H   LINE      CODE     ---       #164
      00FFCD8FH   LINE      CODE     ---       #165
      00FFCDA4H   LINE      CODE     ---       #166
      00FFCDC1H   LINE      CODE     ---       #167
      00FFCDD3H   LINE      CODE     ---       #168
      ---         BLOCKEND  ---      ---       LVL=0

      00FFA757H   BLOCK     CODE     ---       LVL=0
      0001139FH   SYMBOL    XDATA    ---       time
      00FFA761H   BLOCK     CODE     NEAR LAB  LVL=1
      000113A3H   SYMBOL    XDATA    BYTE      day_num
      ---         BLOCKEND  ---      ---       LVL=1
      00FFA757H   LINE      CODE     ---       #177
      00FFA761H   LINE      CODE     ---       #178
      00FFA761H   LINE      CODE     ---       #179
      00FFA766H   LINE      CODE     ---       #181
      00FFA788H   LINE      CODE     ---       #182
      00FFA79EH   LINE      CODE     ---       #184
      00FFA7B2H   LINE      CODE     ---       #185
      00FFA7C7H   LINE      CODE     ---       #187
      00FFA7D8H   LINE      CODE     ---       #189
      00FFA7DEH   LINE      CODE     ---       #190
      00FFA81FH   LINE      CODE     ---       #192
      00FFA825H   LINE      CODE     ---       #193
      00FFA827H   LINE      CODE     ---       #197
      00FFA82DH   LINE      CODE     ---       #198
      00FFA877H   LINE      CODE     ---       #200
      00FFA87DH   LINE      CODE     ---       #201
      00FFA87DH   LINE      CODE     ---       #204
L251 LINKER/LOCATER V4.66.93.0                                                        05/05/2025  21:49:10  PAGE 102


      00FFA893H   LINE      CODE     ---       #206
      00FFA8A3H   LINE      CODE     ---       #207
      00FFA8B6H   LINE      CODE     ---       #208
      00FFA8C9H   LINE      CODE     ---       #210
      00FFA8DDH   LINE      CODE     ---       #211
      00FFA8EFH   LINE      CODE     ---       #212
      00FFA8EFH   LINE      CODE     ---       #214
      00FFA8EFH   LINE      CODE     ---       #215
      ---         BLOCKEND  ---      ---       LVL=0

      00FF5231H   BLOCK     CODE     ---       LVL=0
      00010864H   SYMBOL    XDATA    ---       line
      00010868H   SYMBOL    XDATA    ---       gps
      00FF5245H   BLOCK     CODE     NEAR LAB  LVL=1
      0001086CH   SYMBOL    XDATA    BYTE      state
      0001086DH   SYMBOL    XDATA    BYTE      temp
      0001086EH   SYMBOL    XDATA    DOUBLE    latitude
      00010876H   SYMBOL    XDATA    DOUBLE    longitude
      0001087EH   SYMBOL    XDATA    DOUBLE    lati_cent_tmp
      00010886H   SYMBOL    XDATA    DOUBLE    lati_second_tmp
      0001088EH   SYMBOL    XDATA    DOUBLE    long_cent_tmp
      00010896H   SYMBOL    XDATA    DOUBLE    long_second_tmp
      0001089EH   SYMBOL    XDATA    FLOAT     speed_tmp
      000108A2H   SYMBOL    XDATA    ---       buf
      000108A6H   SYMBOL    XDATA    BYTE      return_state
      ---         BLOCKEND  ---      ---       LVL=1
      00FF5231H   LINE      CODE     ---       #225
      00FF5245H   LINE      CODE     ---       #226
      00FF5245H   LINE      CODE     ---       #227
      00FF524FH   LINE      CODE     ---       #229
      00FF5265H   LINE      CODE     ---       #230
      00FF527BH   LINE      CODE     ---       #232
      00FF52A7H   LINE      CODE     ---       #233
      00FF52D3H   LINE      CODE     ---       #234
      00FF52DFH   LINE      CODE     ---       #235
      00FF52F3H   LINE      CODE     ---       #236
      00FF52F8H   LINE      CODE     ---       #238
      00FF531CH   LINE      CODE     ---       #240
      00FF532BH   LINE      CODE     ---       #241
      00FF5337H   LINE      CODE     ---       #243
      00FF533DH   LINE      CODE     ---       #244
      00FF534DH   LINE      CODE     ---       #245
      00FF537BH   LINE      CODE     ---       #246
      00FF53A9H   LINE      CODE     ---       #248
      00FF53DBH   LINE      CODE     ---       #249
      00FF540DH   LINE      CODE     ---       #251
      00FF5437H   LINE      CODE     ---       #252
      00FF547CH   LINE      CODE     ---       #253
      00FF549FH   LINE      CODE     ---       #254
      00FF54E9H   LINE      CODE     ---       #255
      00FF550CH   LINE      CODE     ---       #257
      00FF5536H   LINE      CODE     ---       #258
      00FF557BH   LINE      CODE     ---       #259
      00FF559EH   LINE      CODE     ---       #260
      00FF55E8H   LINE      CODE     ---       #261
      00FF560BH   LINE      CODE     ---       #263
      00FF565BH   LINE      CODE     ---       #264
      00FF56ABH   LINE      CODE     ---       #266
      00FF56D5H   LINE      CODE     ---       #267
      00FF56FCH   LINE      CODE     ---       #268
      00FF572EH   LINE      CODE     ---       #269
      00FF572EH   LINE      CODE     ---       #272
      00FF576CH   LINE      CODE     ---       #273
      00FF57AAH   LINE      CODE     ---       #274
      00FF57E8H   LINE      CODE     ---       #275
L251 LINKER/LOCATER V4.66.93.0                                                        05/05/2025  21:49:10  PAGE 103


      00FF57FBH   LINE      CODE     ---       #276
      00FF5848H   LINE      CODE     ---       #277
      00FF5896H   LINE      CODE     ---       #278
      00FF58E7H   LINE      CODE     ---       #280
      00FF58F4H   LINE      CODE     ---       #282
      00FF58F8H   LINE      CODE     ---       #283
      ---         BLOCKEND  ---      ---       LVL=0

      00FFC39CH   BLOCK     CODE     ---       LVL=0
      00010D29H   SYMBOL    XDATA    ---       line
      00010D2DH   SYMBOL    XDATA    ---       gps
      00FFC3B2H   BLOCK     CODE     NEAR LAB  LVL=1
      00010D31H   SYMBOL    XDATA    BYTE      state
      00010D32H   SYMBOL    XDATA    ---       buf
      00010D36H   SYMBOL    XDATA    BYTE      return_state
      ---         BLOCKEND  ---      ---       LVL=1
      00FFC39CH   LINE      CODE     ---       #293
      00FFC3B2H   LINE      CODE     ---       #294
      00FFC3B2H   LINE      CODE     ---       #295
      00FFC3B7H   LINE      CODE     ---       #296
      00FFC3CBH   LINE      CODE     ---       #297
      00FFC3D0H   LINE      CODE     ---       #299
      00FFC3F4H   LINE      CODE     ---       #301
      00FFC400H   LINE      CODE     ---       #303
      00FFC42EH   LINE      CODE     ---       #304
      00FFC487H   LINE      CODE     ---       #305
      00FFC48DH   LINE      CODE     ---       #306
      00FFC48DH   LINE      CODE     ---       #308
      00FFC491H   LINE      CODE     ---       #309
      ---         BLOCKEND  ---      ---       LVL=0

      00FF7CF7H   BLOCK     CODE     ---       LVL=0
      000106FCH   SYMBOL    XDATA    DOUBLE    latitude1
      00010704H   SYMBOL    XDATA    DOUBLE    longitude1
      0001070CH   SYMBOL    XDATA    DOUBLE    latitude2
      00010714H   SYMBOL    XDATA    DOUBLE    longitude2
      00FF7D09H   BLOCK     CODE     NEAR LAB  LVL=1
      0001071CH   SYMBOL    XDATA    DOUBLE    EARTH_RADIUS
      00010724H   SYMBOL    XDATA    DOUBLE    rad_latitude1
      0001072CH   SYMBOL    XDATA    DOUBLE    rad_latitude2
      00010734H   SYMBOL    XDATA    DOUBLE    rad_longitude1
      0001073CH   SYMBOL    XDATA    DOUBLE    rad_longitude2
      00010744H   SYMBOL    XDATA    DOUBLE    distance
      0001074CH   SYMBOL    XDATA    DOUBLE    a
      00010754H   SYMBOL    XDATA    DOUBLE    b
      ---         BLOCKEND  ---      ---       LVL=1
      00FF7CF7H   LINE      CODE     ---       #321
      00FF7D09H   LINE      CODE     ---       #322
      00FF7D09H   LINE      CODE     ---       #323
      00FF7D29H   LINE      CODE     ---       #324
      00FF7D3FH   LINE      CODE     ---       #325
      00FF7D55H   LINE      CODE     ---       #326
      00FF7D6BH   LINE      CODE     ---       #327
      00FF7D81H   LINE      CODE     ---       #328
      00FF7D97H   LINE      CODE     ---       #329
      00FF7DADH   LINE      CODE     ---       #330
      00FF7DC3H   LINE      CODE     ---       #332
      00FF7E07H   LINE      CODE     ---       #333
      00FF7E4BH   LINE      CODE     ---       #334
      00FF7E8FH   LINE      CODE     ---       #335
      00FF7ED3H   LINE      CODE     ---       #337
      00FF7F0CH   LINE      CODE     ---       #338
      00FF7F45H   LINE      CODE     ---       #340
      00FF801DH   LINE      CODE     ---       #341
      00FF8056H   LINE      CODE     ---       #343
L251 LINKER/LOCATER V4.66.93.0                                                        05/05/2025  21:49:10  PAGE 104


      00FF8068H   LINE      CODE     ---       #344
      ---         BLOCKEND  ---      ---       LVL=0

      00FF6400H   BLOCK     CODE     ---       LVL=0
      00010962H   SYMBOL    XDATA    DOUBLE    latitude1
      0001096AH   SYMBOL    XDATA    DOUBLE    longitude1
      00010972H   SYMBOL    XDATA    DOUBLE    latitude2
      0001097AH   SYMBOL    XDATA    DOUBLE    longitude2
      00FF6412H   BLOCK     CODE     NEAR LAB  LVL=1
      00010982H   SYMBOL    XDATA    DOUBLE    x
      0001098AH   SYMBOL    XDATA    DOUBLE    y
      00010992H   SYMBOL    XDATA    DOUBLE    angle
      ---         BLOCKEND  ---      ---       LVL=1
      00FF6400H   LINE      CODE     ---       #356
      00FF6412H   LINE      CODE     ---       #357
      00FF6412H   LINE      CODE     ---       #358
      00FF6428H   LINE      CODE     ---       #359
      00FF643EH   LINE      CODE     ---       #360
      00FF6454H   LINE      CODE     ---       #363
      00FF6498H   LINE      CODE     ---       #364
      00FF64DCH   LINE      CODE     ---       #365
      00FF6520H   LINE      CODE     ---       #366
      00FF6564H   LINE      CODE     ---       #368
      00FF65C0H   LINE      CODE     ---       #369
      00FF667CH   LINE      CODE     ---       #371
      00FF66D8H   LINE      CODE     ---       #374
      00FF671BH   LINE      CODE     ---       #376
      00FF6739H   LINE      CODE     ---       #378
      00FF6761H   LINE      CODE     ---       #379
      00FF677DH   LINE      CODE     ---       #380
      00FF6780H   LINE      CODE     ---       #382
      00FF679EH   LINE      CODE     ---       #384
      00FF67C0H   LINE      CODE     ---       #385
      00FF67DCH   LINE      CODE     ---       #386
      00FF67DFH   LINE      CODE     ---       #389
      00FF6845H   LINE      CODE     ---       #390
      00FF68A9H   LINE      CODE     ---       #391
      00FF68A9H   LINE      CODE     ---       #393
      00FF68CAH   LINE      CODE     ---       #395
      00FF68FBH   LINE      CODE     ---       #396
      00FF68FDH   LINE      CODE     ---       #397
      00FF6918H   LINE      CODE     ---       #399
      00FF6949H   LINE      CODE     ---       #400
      00FF6949H   LINE      CODE     ---       #402
      00FF695BH   LINE      CODE     ---       #403
      ---         BLOCKEND  ---      ---       LVL=0

      00FF9956H   BLOCK     CODE     ---       LVL=0
      00010E56H   SYMBOL    XDATA    BYTE      return_state
      00010E57H   SYMBOL    XDATA    ---       check_buffer
      00010E5CH   SYMBOL    XDATA    BYTE      bbc_xor_origin
      00010E5DH   SYMBOL    XDATA    BYTE      bbc_xor_calculation
      00010E5EH   SYMBOL    XDATA    DWORD     data_len
      00FF9956H   LINE      CODE     ---       #412
      00FF9956H   LINE      CODE     ---       #413
      00FF9956H   LINE      CODE     ---       #414
      00FF995BH   LINE      CODE     ---       #415
      00FF9970H   LINE      CODE     ---       #416
      00FF9975H   LINE      CODE     ---       #417
      00FF997AH   LINE      CODE     ---       #418
      00FF9986H   LINE      CODE     ---       #420
      00FF9986H   LINE      CODE     ---       #422
      00FF9995H   LINE      CODE     ---       #424
      00FF999FH   LINE      CODE     ---       #425
      00FF99C1H   LINE      CODE     ---       #426
L251 LINKER/LOCATER V4.66.93.0                                                        05/05/2025  21:49:10  PAGE 105


      00FF99D2H   LINE      CODE     ---       #427
      00FF99EAH   LINE      CODE     ---       #429
      00FF9A08H   LINE      CODE     ---       #430
      00FF9A33H   LINE      CODE     ---       #431
      00FF9A41H   LINE      CODE     ---       #434
      00FF9A47H   LINE      CODE     ---       #435
      00FF9A4AH   LINE      CODE     ---       #436
      00FF9A4AH   LINE      CODE     ---       #438
      00FF9A5DH   LINE      CODE     ---       #439
      00FF9A5DH   LINE      CODE     ---       #440
      00FF9A65H   LINE      CODE     ---       #442
      00FF9A74H   LINE      CODE     ---       #444
      00FF9A7EH   LINE      CODE     ---       #445
      00FF9AA0H   LINE      CODE     ---       #446
      00FF9AB1H   LINE      CODE     ---       #448
      00FF9AC9H   LINE      CODE     ---       #450
      00FF9AE7H   LINE      CODE     ---       #451
      00FF9B12H   LINE      CODE     ---       #452
      00FF9B20H   LINE      CODE     ---       #455
      00FF9B26H   LINE      CODE     ---       #456
      00FF9B28H   LINE      CODE     ---       #457
      00FF9B28H   LINE      CODE     ---       #459
      00FF9B3BH   LINE      CODE     ---       #460
      00FF9B3BH   LINE      CODE     ---       #461
      00FF9B43H   LINE      CODE     ---       #463
      00FF9B43H   LINE      CODE     ---       #464
      00FF9B47H   LINE      CODE     ---       #465
      ---         BLOCKEND  ---      ---       LVL=0

      00FFABFDH   BLOCK     CODE     ---       LVL=0
      00010F97H   SYMBOL    XDATA    BYTE      uart_dat
      00FFAC01H   BLOCK     CODE     NEAR LAB  LVL=1
      00010F98H   SYMBOL    XDATA    ---       temp_gps
      00010F9EH   SYMBOL    XDATA    DWORD     temp_length
      ---         BLOCKEND  ---      ---       LVL=1
      00FFABFDH   LINE      CODE     ---       #475
      00FFAC01H   LINE      CODE     ---       #476
      00FFAC01H   LINE      CODE     ---       #478
      00FFAC0DH   LINE      CODE     ---       #480
      00FFAC16H   LINE      CODE     ---       #482
      00FFAC37H   LINE      CODE     ---       #483
      00FFAC43H   LINE      CODE     ---       #486
      00FFAC51H   LINE      CODE     ---       #487
      00FFAC80H   LINE      CODE     ---       #490
      00FFAC9DH   LINE      CODE     ---       #493
      00FFACACH   LINE      CODE     ---       #495
      00FFACB6H   LINE      CODE     ---       #496
      00FFACCBH   LINE      CODE     ---       #497
      00FFACF8H   LINE      CODE     ---       #498
      00FFACFAH   LINE      CODE     ---       #500
      00FFAD17H   LINE      CODE     ---       #503
      00FFAD23H   LINE      CODE     ---       #505
      00FFAD2DH   LINE      CODE     ---       #506
      00FFAD42H   LINE      CODE     ---       #507
      00FFAD6FH   LINE      CODE     ---       #508
      00FFAD6FH   LINE      CODE     ---       #512
      00FFAD7AH   LINE      CODE     ---       #514
      00FFAD80H   LINE      CODE     ---       #515
      00FFAD80H   LINE      CODE     ---       #517
      ---         BLOCKEND  ---      ---       LVL=0

      00FF8BA4H   BLOCK     CODE     ---       LVL=0
      0001057AH   SYMBOL    XDATA    ---       set_rate
      00010596H   SYMBOL    XDATA    ---       open_gga
      000105A1H   SYMBOL    XDATA    ---       open_rmc
L251 LINKER/LOCATER V4.66.93.0                                                        05/05/2025  21:49:10  PAGE 106


      000105ACH   SYMBOL    XDATA    ---       close_gll
      000105B7H   SYMBOL    XDATA    ---       close_gsa
      000105C2H   SYMBOL    XDATA    ---       close_grs
      000105CDH   SYMBOL    XDATA    ---       close_gsv
      000105D8H   SYMBOL    XDATA    ---       close_vtg
      000105E3H   SYMBOL    XDATA    ---       close_zda
      000105EEH   SYMBOL    XDATA    ---       close_gst
      000105F9H   SYMBOL    XDATA    ---       close_txt
      00010604H   SYMBOL    XDATA    ---       close_txt_ant
      00FF8BA4H   LINE      CODE     ---       #526
      00FF8BA4H   LINE      CODE     ---       #527
      00FF8BA4H   LINE      CODE     ---       #528
      00FF8BB9H   LINE      CODE     ---       #529
      00FF8BCEH   LINE      CODE     ---       #530
      00FF8BE3H   LINE      CODE     ---       #532
      00FF8BF8H   LINE      CODE     ---       #533
      00FF8C0DH   LINE      CODE     ---       #534
      00FF8C22H   LINE      CODE     ---       #535
      00FF8C37H   LINE      CODE     ---       #536
      00FF8C4CH   LINE      CODE     ---       #537
      00FF8C61H   LINE      CODE     ---       #538
      00FF8C76H   LINE      CODE     ---       #539
      00FF8C8BH   LINE      CODE     ---       #540
      00FF8CA0H   LINE      CODE     ---       #542
      00FF8CCDH   LINE      CODE     ---       #543
      00FF8CD4H   LINE      CODE     ---       #545
      00FF8CEFH   LINE      CODE     ---       #546
      00FF8CF5H   LINE      CODE     ---       #548
      00FF8D06H   LINE      CODE     ---       #550
      00FF8D17H   LINE      CODE     ---       #551
      00FF8D1EH   LINE      CODE     ---       #553
      00FF8D2FH   LINE      CODE     ---       #554
      00FF8D36H   LINE      CODE     ---       #555
      00FF8D47H   LINE      CODE     ---       #556
      00FF8D4EH   LINE      CODE     ---       #557
      00FF8D5FH   LINE      CODE     ---       #558
      00FF8D66H   LINE      CODE     ---       #559
      00FF8D77H   LINE      CODE     ---       #560
      00FF8D7EH   LINE      CODE     ---       #561
      00FF8D8FH   LINE      CODE     ---       #562
      00FF8D96H   LINE      CODE     ---       #563
      00FF8DA7H   LINE      CODE     ---       #564
      00FF8DAEH   LINE      CODE     ---       #565
      00FF8DBFH   LINE      CODE     ---       #566
      00FF8DC6H   LINE      CODE     ---       #567
      00FF8DD7H   LINE      CODE     ---       #568
      00FF8DDEH   LINE      CODE     ---       #569
      00FF8DEFH   LINE      CODE     ---       #570
      00FF8DF6H   LINE      CODE     ---       #571
      00FF8E07H   LINE      CODE     ---       #572
      00FF8E0EH   LINE      CODE     ---       #573
      00FF8E1FH   LINE      CODE     ---       #574
      00FF8E26H   LINE      CODE     ---       #576
      00FF8E2CH   LINE      CODE     ---       #577
      00FF8E33H   LINE      CODE     ---       #578
      ---         BLOCKEND  ---      ---       LVL=0

      ---         MODULE    ---      ---       zf_device_tsl1401
      00010000H   PUBLIC    XDATA    BYTE      tsl1401_finish_flag
      00010001H   PUBLIC    XDATA    ---       tsl1401_data
      000000D0H   SFRSYM    DATA     BYTE      PSW
      0000009DH   SFRSYM    DATA     BYTE      IRCBAND
      00000097H   SFRSYM    DATA     BYTE      AUXR2
      000000EFH   SFRSYM    DATA     BYTE      AUXINTIF
      000000FDH   SFRSYM    DATA     BYTE      S4CON
L251 LINKER/LOCATER V4.66.93.0                                                        05/05/2025  21:49:10  PAGE 107


      000000ACH   SFRSYM    DATA     BYTE      S3CON
      0000009AH   SFRSYM    DATA     BYTE      S2CON
      000000B7H   SFRSYM    DATA     BYTE      IPH
      000000CDH   SFRSYM    DATA     BYTE      SPSTAT
      000000DDH   SFRSYM    DATA     BYTE      T4T3M
      000000C1H   SFRSYM    DATA     BYTE      WDT_CONTR
      000000DFH   SFRSYM    DATA     BYTE      IP3
      000000F4H   SFRSYM    DATA     BYTE      USBCON
      000000B5H   SFRSYM    DATA     BYTE      IP2
      000000FFH   SFRSYM    DATA     BYTE      RSTCFG
      000000C7H   SFRSYM    DATA     BYTE      IAP_CONTR
      0000008EH   SFRSYM    DATA     BYTE      AUXR
      000000AFH   SFRSYM    DATA     BYTE      IE2
      00000088H   SFRSYM    DATA     BYTE      TCON
      00000089H   SFRSYM    DATA     BYTE      TMOD
      00000098H   SFRSYM    DATA     BYTE      SCON
      00000087H   SFRSYM    DATA     BYTE      PCON
      000000BCH   SFRSYM    DATA     BYTE      ADC_CONTR
      000000D1H   SFRSYM    DATA     BYTE      PSW1
      000000E7H   SFRSYM    DATA     BYTE      CMPCR2
      000000E6H   SFRSYM    DATA     BYTE      CMPCR1
      000000DEH   SFRSYM    DATA     BYTE      ADCCFG
      000000B8H   SFRSYM    DATA     BYTE      IP
      0000008FH   SFRSYM    DATA     BYTE      INTCLKO
      000000EEH   SFRSYM    DATA     BYTE      IP3H
      000000B6H   SFRSYM    DATA     BYTE      IP2H
      000000BFH   SFRSYM    DATA     BYTE      P_SW4
      000000A8H   SFRSYM    DATA     BYTE      IE
      000000BBH   SFRSYM    DATA     BYTE      P_SW3
      000000BAH   SFRSYM    DATA     BYTE      P_SW2
      000000A2H   SFRSYM    DATA     BYTE      P_SW1
      000000CEH   SFRSYM    DATA     BYTE      SPCTL
      000000F8H   SFRSYM    DATA     BYTE      P7
      000000E8H   SFRSYM    DATA     BYTE      P6
      000000C8H   SFRSYM    DATA     BYTE      P5
      000000C0H   SFRSYM    DATA     BYTE      P4
      000000ABH   SFRSYM    DATA     BYTE      WKTCH
      000000B0H   SFRSYM    DATA     BYTE      P3
      000000A0H   SFRSYM    DATA     BYTE      P2
      00000090H   SFRSYM    DATA     BYTE      P1
      00000080H   SFRSYM    DATA     BYTE      P0
      00010201H   SYMBOL    XDATA    BYTE      tsl1401_init_state
      000114C6H   SYMBOL    XDATA    BYTE      i
      00011420H   SYMBOL    XDATA    INT       uart_n
      00011422H   SYMBOL    XDATA    BYTE      index
      00011423H   SYMBOL    XDATA    BYTE      i

      ---         MODULE    ---      ---       zf_device_type
      00FFD0DEH   PUBLIC    CODE     ---       set_gps_type
      00FFD175H   PUBLIC    CODE     ---       set_wireless_type
      000112C6H   PUBLIC    XDATA    ---       tof_module_exti_handler
      000112C8H   PUBLIC    XDATA    INT       wireless_type
      000112CAH   PUBLIC    XDATA    INT       tof_type
      000112CCH   PUBLIC    XDATA    INT       gps_type
      000000D0H   SFRSYM    DATA     BYTE      PSW
      0000009DH   SFRSYM    DATA     BYTE      IRCBAND
      00000097H   SFRSYM    DATA     BYTE      AUXR2
      000000EFH   SFRSYM    DATA     BYTE      AUXINTIF
      000000FDH   SFRSYM    DATA     BYTE      S4CON
      000000ACH   SFRSYM    DATA     BYTE      S3CON
      0000009AH   SFRSYM    DATA     BYTE      S2CON
      000000B7H   SFRSYM    DATA     BYTE      IPH
      000000CDH   SFRSYM    DATA     BYTE      SPSTAT
      000000DDH   SFRSYM    DATA     BYTE      T4T3M
      000000C1H   SFRSYM    DATA     BYTE      WDT_CONTR
L251 LINKER/LOCATER V4.66.93.0                                                        05/05/2025  21:49:10  PAGE 108


      000000DFH   SFRSYM    DATA     BYTE      IP3
      000000F4H   SFRSYM    DATA     BYTE      USBCON
      000000B5H   SFRSYM    DATA     BYTE      IP2
      000000FFH   SFRSYM    DATA     BYTE      RSTCFG
      000000C7H   SFRSYM    DATA     BYTE      IAP_CONTR
      0000008EH   SFRSYM    DATA     BYTE      AUXR
      000000AFH   SFRSYM    DATA     BYTE      IE2
      00000088H   SFRSYM    DATA     BYTE      TCON
      00000089H   SFRSYM    DATA     BYTE      TMOD
      00000098H   SFRSYM    DATA     BYTE      SCON
      00000087H   SFRSYM    DATA     BYTE      PCON
      000000BCH   SFRSYM    DATA     BYTE      ADC_CONTR
      000000D1H   SFRSYM    DATA     BYTE      PSW1
      000000E7H   SFRSYM    DATA     BYTE      CMPCR2
      000000E6H   SFRSYM    DATA     BYTE      CMPCR1
      000000DEH   SFRSYM    DATA     BYTE      ADCCFG
      000000B8H   SFRSYM    DATA     BYTE      IP
      0000008FH   SFRSYM    DATA     BYTE      INTCLKO
      000000EEH   SFRSYM    DATA     BYTE      IP3H
      000000B6H   SFRSYM    DATA     BYTE      IP2H
      000000BFH   SFRSYM    DATA     BYTE      P_SW4
      000000A8H   SFRSYM    DATA     BYTE      IE
      000000BBH   SFRSYM    DATA     BYTE      P_SW3
      000000BAH   SFRSYM    DATA     BYTE      P_SW2
      000000A2H   SFRSYM    DATA     BYTE      P_SW1
      000000CEH   SFRSYM    DATA     BYTE      SPCTL
      000000F8H   SFRSYM    DATA     BYTE      P7
      000000E8H   SFRSYM    DATA     BYTE      P6
      000000C8H   SFRSYM    DATA     BYTE      P5
      000000C0H   SFRSYM    DATA     BYTE      P4
      000000ABH   SFRSYM    DATA     BYTE      WKTCH
      000000B0H   SFRSYM    DATA     BYTE      P3
      000000A0H   SFRSYM    DATA     BYTE      P2
      00000090H   SFRSYM    DATA     BYTE      P1
      00000080H   SFRSYM    DATA     BYTE      P0

      00FFD175H   BLOCK     CODE     ---       LVL=0
      000112CEH   SYMBOL    XDATA    INT       type_set
      000112D0H   SYMBOL    XDATA    INT       uartx
      000112D2H   SYMBOL    XDATA    ---       uart_callback
      00FFD175H   LINE      CODE     ---       #52
      00FFD18BH   LINE      CODE     ---       #54
      00FFD197H   LINE      CODE     ---       #56
      00FFD1A1H   LINE      CODE     ---       #58
      00FFD1B1H   LINE      CODE     ---       #59
      00FFD1B3H   LINE      CODE     ---       #60
      00FFD1BFH   LINE      CODE     ---       #62
      00FFD1CFH   LINE      CODE     ---       #63
      00FFD1D1H   LINE      CODE     ---       #64
      00FFD1DDH   LINE      CODE     ---       #66
      00FFD1EDH   LINE      CODE     ---       #67
      00FFD1EFH   LINE      CODE     ---       #68
      00FFD1FBH   LINE      CODE     ---       #70
      00FFD20BH   LINE      CODE     ---       #71
      ---         BLOCKEND  ---      ---       LVL=0
      00011369H   SYMBOL    XDATA    INT       type_set
      0001136BH   SYMBOL    XDATA    ---       exti_callback

      00FFD0DEH   BLOCK     CODE     ---       LVL=0
      000112D6H   SYMBOL    XDATA    INT       type_set
      000112D8H   SYMBOL    XDATA    INT       uartx
      000112DAH   SYMBOL    XDATA    ---       uart_callback
      00FFD0DEH   LINE      CODE     ---       #97
      00FFD0F4H   LINE      CODE     ---       #99
      00FFD100H   LINE      CODE     ---       #100
L251 LINKER/LOCATER V4.66.93.0                                                        05/05/2025  21:49:10  PAGE 109


      00FFD10AH   LINE      CODE     ---       #102
      00FFD11AH   LINE      CODE     ---       #103
      00FFD11CH   LINE      CODE     ---       #104
      00FFD128H   LINE      CODE     ---       #106
      00FFD138H   LINE      CODE     ---       #107
      00FFD13AH   LINE      CODE     ---       #108
      00FFD146H   LINE      CODE     ---       #110
      00FFD156H   LINE      CODE     ---       #111
      00FFD158H   LINE      CODE     ---       #112
      00FFD164H   LINE      CODE     ---       #114
      00FFD174H   LINE      CODE     ---       #115
      ---         BLOCKEND  ---      ---       LVL=0

      ---         MODULE    ---      ---       isr
      00FFDEB7H   PUBLIC    CODE     ---       TM11_IRQHandler
      00FFD3C1H   PUBLIC    CODE     ---       my_pit_init
      00FFCDD4H   PUBLIC    CODE     ---       DMA_UART1_IRQHandler
      00FFD44DH   PUBLIC    CODE     ---       DMA_UART2_IRQHandler
      00FFD4D6H   PUBLIC    CODE     ---       DMA_UART3_IRQHandler
      00FFD55FH   PUBLIC    CODE     ---       DMA_UART4_IRQHandler
      00FF0026H   PUBLIC    CODE     ---       pit_hanlder_gps
      00FF9D32H   PUBLIC    CODE     ---       pit_hanlder_imu
      00FFDF49H   PUBLIC    CODE     ---       TM0_IRQHandler
      00FFDF87H   PUBLIC    CODE     ---       TM1_IRQHandler
      00FFDFC5H   PUBLIC    CODE     ---       TM2_IRQHandler
      00FFE003H   PUBLIC    CODE     ---       TM3_IRQHandler
      00FFE041H   PUBLIC    CODE     ---       TM4_IRQHandler
      00FFC085H   PUBLIC    CODE     ---       pit_hanlder_angle
      00000020H.2 PUBLIC    BIT      BIT       pid_enable
      000000D0H   SFRSYM    DATA     BYTE      PSW
      0000009DH   SFRSYM    DATA     BYTE      IRCBAND
      00000097H   SFRSYM    DATA     BYTE      AUXR2
      000000EFH   SFRSYM    DATA     BYTE      AUXINTIF
      000000FDH   SFRSYM    DATA     BYTE      S4CON
      000000ACH   SFRSYM    DATA     BYTE      S3CON
      0000009AH   SFRSYM    DATA     BYTE      S2CON
      000000B7H   SFRSYM    DATA     BYTE      IPH
      000000CDH   SFRSYM    DATA     BYTE      SPSTAT
      000000DDH   SFRSYM    DATA     BYTE      T4T3M
      000000C1H   SFRSYM    DATA     BYTE      WDT_CONTR
      000000DFH   SFRSYM    DATA     BYTE      IP3
      000000F4H   SFRSYM    DATA     BYTE      USBCON
      000000B5H   SFRSYM    DATA     BYTE      IP2
      000000FFH   SFRSYM    DATA     BYTE      RSTCFG
      000000C7H   SFRSYM    DATA     BYTE      IAP_CONTR
      0000008EH   SFRSYM    DATA     BYTE      AUXR
      000000AFH   SFRSYM    DATA     BYTE      IE2
      00000088H   SFRSYM    DATA     BYTE      TCON
      00000089H   SFRSYM    DATA     BYTE      TMOD
      00000098H   SFRSYM    DATA     BYTE      SCON
      00000087H   SFRSYM    DATA     BYTE      PCON
      000000BCH   SFRSYM    DATA     BYTE      ADC_CONTR
      000000D1H   SFRSYM    DATA     BYTE      PSW1
      000000E7H   SFRSYM    DATA     BYTE      CMPCR2
      000000E6H   SFRSYM    DATA     BYTE      CMPCR1
      000000DEH   SFRSYM    DATA     BYTE      ADCCFG
      000000B8H   SFRSYM    DATA     BYTE      IP
      0000008FH   SFRSYM    DATA     BYTE      INTCLKO
      000000EEH   SFRSYM    DATA     BYTE      IP3H
      000000B6H   SFRSYM    DATA     BYTE      IP2H
      000000BFH   SFRSYM    DATA     BYTE      P_SW4
      000000A8H   SFRSYM    DATA     BYTE      IE
      000000BBH   SFRSYM    DATA     BYTE      P_SW3
      000000BAH   SFRSYM    DATA     BYTE      P_SW2
      000000A2H   SFRSYM    DATA     BYTE      P_SW1
L251 LINKER/LOCATER V4.66.93.0                                                        05/05/2025  21:49:10  PAGE 110


      000000CEH   SFRSYM    DATA     BYTE      SPCTL
      000000F8H   SFRSYM    DATA     BYTE      P7
      000000E8H   SFRSYM    DATA     BYTE      P6
      000000C8H   SFRSYM    DATA     BYTE      P5
      000000C0H   SFRSYM    DATA     BYTE      P4
      000000ABH   SFRSYM    DATA     BYTE      WKTCH
      000000B0H   SFRSYM    DATA     BYTE      P3
      000000A0H   SFRSYM    DATA     BYTE      P2
      00000090H   SFRSYM    DATA     BYTE      P1
      00000080H   SFRSYM    DATA     BYTE      P0

      00FFCDD4H   BLOCK     CODE     ---       LVL=0
      00FFCDE8H   BLOCK     CODE     NEAR LAB  LVL=1
      000114C7H   SYMBOL    XDATA    BYTE      dwon_count
      ---         BLOCKEND  ---      ---       LVL=1
      00FFCDD4H   LINE      CODE     ---       #37
      00FFCDE8H   LINE      CODE     ---       #38
      00FFCDE8H   LINE      CODE     ---       #40
      00FFCDF6H   LINE      CODE     ---       #42
      00FFCE06H   LINE      CODE     ---       #43
      00FFCE0BH   LINE      CODE     ---       #46
      00FFCE12H   LINE      CODE     ---       #48
      00FFCE21H   LINE      CODE     ---       #50
      00FFCE24H   LINE      CODE     ---       #51
      00FFCE26H   LINE      CODE     ---       #55
      00FFCE2BH   LINE      CODE     ---       #56
      00FFCE2BH   LINE      CODE     ---       #58
      00FFCE35H   LINE      CODE     ---       #60
      00FFCE41H   LINE      CODE     ---       #61
      00FFCE41H   LINE      CODE     ---       #64
      00FFCE4FH   LINE      CODE     ---       #66
      00FFCE5FH   LINE      CODE     ---       #67
      00FFCE64H   LINE      CODE     ---       #71
      ---         BLOCKEND  ---      ---       LVL=0

      00FFD44DH   BLOCK     CODE     ---       LVL=0
      00FFD44DH   LINE      CODE     ---       #76
      00FFD461H   LINE      CODE     ---       #79
      00FFD46FH   LINE      CODE     ---       #81
      00FFD47FH   LINE      CODE     ---       #82
      00FFD486H   LINE      CODE     ---       #84
      00FFD490H   LINE      CODE     ---       #86
      00FFD49CH   LINE      CODE     ---       #87
      00FFD49CH   LINE      CODE     ---       #90
      00FFD4AAH   LINE      CODE     ---       #92
      00FFD4BAH   LINE      CODE     ---       #93
      00FFD4C1H   LINE      CODE     ---       #98
      ---         BLOCKEND  ---      ---       LVL=0

      00FFD4D6H   BLOCK     CODE     ---       LVL=0
      00FFD4D6H   LINE      CODE     ---       #101
      00FFD4EAH   LINE      CODE     ---       #104
      00FFD4F8H   LINE      CODE     ---       #106
      00FFD508H   LINE      CODE     ---       #107
      00FFD50FH   LINE      CODE     ---       #109
      00FFD519H   LINE      CODE     ---       #112
      00FFD525H   LINE      CODE     ---       #114
      00FFD525H   LINE      CODE     ---       #117
      00FFD533H   LINE      CODE     ---       #119
      00FFD543H   LINE      CODE     ---       #120
      00FFD54AH   LINE      CODE     ---       #125
      ---         BLOCKEND  ---      ---       LVL=0

      00FFD55FH   BLOCK     CODE     ---       LVL=0
      00FFD55FH   LINE      CODE     ---       #128
L251 LINKER/LOCATER V4.66.93.0                                                        05/05/2025  21:49:10  PAGE 111


      00FFD573H   LINE      CODE     ---       #131
      00FFD581H   LINE      CODE     ---       #133
      00FFD591H   LINE      CODE     ---       #134
      00FFD598H   LINE      CODE     ---       #136
      00FFD5A2H   LINE      CODE     ---       #138
      00FFD5AEH   LINE      CODE     ---       #140
      00FFD5AEH   LINE      CODE     ---       #143
      00FFD5BCH   LINE      CODE     ---       #145
      00FFD5CCH   LINE      CODE     ---       #146
      00FFD5D3H   LINE      CODE     ---       #151
      ---         BLOCKEND  ---      ---       LVL=0

      00FFDF49H   BLOCK     CODE     ---       LVL=0
      00FFDF49H   LINE      CODE     ---       #155
      00FFDF5DH   LINE      CODE     ---       #157
      00FFDF60H   LINE      CODE     ---       #159
      00FFDF6AH   LINE      CODE     ---       #161
      00FFDF72H   LINE      CODE     ---       #162
      ---         BLOCKEND  ---      ---       LVL=0

      00FFDF87H   BLOCK     CODE     ---       LVL=0
      00FFDF87H   LINE      CODE     ---       #164
      00FFDF9BH   LINE      CODE     ---       #166
      00FFDF9EH   LINE      CODE     ---       #168
      00FFDFA8H   LINE      CODE     ---       #170
      00FFDFB0H   LINE      CODE     ---       #171
      ---         BLOCKEND  ---      ---       LVL=0

      00FFDFC5H   BLOCK     CODE     ---       LVL=0
      00FFDFC5H   LINE      CODE     ---       #173
      00FFDFD9H   LINE      CODE     ---       #175
      00FFDFDCH   LINE      CODE     ---       #177
      00FFDFE6H   LINE      CODE     ---       #179
      00FFDFEEH   LINE      CODE     ---       #180
      ---         BLOCKEND  ---      ---       LVL=0

      00FFE003H   BLOCK     CODE     ---       LVL=0
      00FFE003H   LINE      CODE     ---       #182
      00FFE017H   LINE      CODE     ---       #184
      00FFE01AH   LINE      CODE     ---       #186
      00FFE024H   LINE      CODE     ---       #188
      00FFE02CH   LINE      CODE     ---       #189
      ---         BLOCKEND  ---      ---       LVL=0

      00FFE041H   BLOCK     CODE     ---       LVL=0
      00FFE041H   LINE      CODE     ---       #192
      00FFE055H   LINE      CODE     ---       #194
      00FFE058H   LINE      CODE     ---       #196
      00FFE062H   LINE      CODE     ---       #198
      00FFE06AH   LINE      CODE     ---       #199
      ---         BLOCKEND  ---      ---       LVL=0

      00FFDEB7H   BLOCK     CODE     ---       LVL=0
      00FFDEB7H   LINE      CODE     ---       #202
      00FFDECBH   LINE      CODE     ---       #204
      00FFDEDBH   LINE      CODE     ---       #206
      00FFDEE5H   LINE      CODE     ---       #208
      00FFDEEDH   LINE      CODE     ---       #209
      ---         BLOCKEND  ---      ---       LVL=0

      00FF9D32H   BLOCK     CODE     ---       LVL=0
      00FF9D32H   LINE      CODE     ---       #217
      00FF9D32H   LINE      CODE     ---       #221
      00FF9D35H   LINE      CODE     ---       #222
      00FF9D38H   LINE      CODE     ---       #225
L251 LINKER/LOCATER V4.66.93.0                                                        05/05/2025  21:49:10  PAGE 112


      00FF9D5DH   LINE      CODE     ---       #226
      00FF9D82H   LINE      CODE     ---       #227
      00FF9DA7H   LINE      CODE     ---       #230
      00FF9DCCH   LINE      CODE     ---       #231
      00FF9DF1H   LINE      CODE     ---       #232
      00FF9E16H   LINE      CODE     ---       #235
      00FF9E38H   LINE      CODE     ---       #236
      00FF9E73H   LINE      CODE     ---       #237
      00FF9E95H   LINE      CODE     ---       #240
      00FF9EB7H   LINE      CODE     ---       #241
      00FF9ED9H   LINE      CODE     ---       #242
      00FF9EFBH   LINE      CODE     ---       #245
      00FF9F0EH   LINE      CODE     ---       #250
      ---         BLOCKEND  ---      ---       LVL=0

      00FF0026H   BLOCK     CODE     ---       LVL=0
      00FF0026H   LINE      CODE     ---       #256
      00FF0026H   LINE      CODE     ---       #259
      00FF002CH   LINE      CODE     ---       #261
      00FF0031H   LINE      CODE     ---       #262
      00FF003CH   LINE      CODE     ---       #263
      00FF003EH   LINE      CODE     ---       #264
      00FF0040H   LINE      CODE     ---       #265
      ---         BLOCKEND  ---      ---       LVL=0

      00FFC085H   BLOCK     CODE     ---       LVL=0
      00010E62H   SYMBOL    XDATA    DWORD     angle_duty
      00010E66H   SYMBOL    XDATA    FLOAT     angle_u
      00010E6AH   SYMBOL    XDATA    FLOAT     velocity_u
      00FFC085H   LINE      CODE     ---       #272
      00FFC085H   LINE      CODE     ---       #273
      00FFC085H   LINE      CODE     ---       #275
      00FFC091H   LINE      CODE     ---       #276
      00FFC09DH   LINE      CODE     ---       #277
      00FFC0A0H   LINE      CODE     ---       #280
      00FFC0B5H   LINE      CODE     ---       #283
      00FFC0B5H   LINE      CODE     ---       #285
      00FFC0CDH   LINE      CODE     ---       #286
      00FFC0DEH   LINE      CODE     ---       #288
      00FFC0F6H   LINE      CODE     ---       #289
      00FFC107H   LINE      CODE     ---       #291
      00FFC139H   LINE      CODE     ---       #292
      00FFC14AH   LINE      CODE     ---       #294
      00FFC17CH   LINE      CODE     ---       #295
      00FFC18DH   LINE      CODE     ---       #297
      ---         BLOCKEND  ---      ---       LVL=0

      00FFD3C1H   BLOCK     CODE     ---       LVL=0
      00FFD3C1H   LINE      CODE     ---       #298
      00FFD3C1H   LINE      CODE     ---       #301
      00FFD3CBH   LINE      CODE     ---       #302
      00FFD3EEH   LINE      CODE     ---       #304
      00FFD3F8H   LINE      CODE     ---       #305
      00FFD41DH   LINE      CODE     ---       #307
      00FFD427H   LINE      CODE     ---       #308
      00FFD44CH   LINE      CODE     ---       #309
      ---         BLOCKEND  ---      ---       LVL=0

      ---         MODULE    ---      ---       main
      00FF4AA8H   PUBLIC    CODE     ---       main
      000000D0H   SFRSYM    DATA     BYTE      PSW
      0000009DH   SFRSYM    DATA     BYTE      IRCBAND
      00000097H   SFRSYM    DATA     BYTE      AUXR2
      000000EFH   SFRSYM    DATA     BYTE      AUXINTIF
      000000FDH   SFRSYM    DATA     BYTE      S4CON
L251 LINKER/LOCATER V4.66.93.0                                                        05/05/2025  21:49:10  PAGE 113


      000000ACH   SFRSYM    DATA     BYTE      S3CON
      0000009AH   SFRSYM    DATA     BYTE      S2CON
      000000B7H   SFRSYM    DATA     BYTE      IPH
      000000CDH   SFRSYM    DATA     BYTE      SPSTAT
      000000DDH   SFRSYM    DATA     BYTE      T4T3M
      000000C1H   SFRSYM    DATA     BYTE      WDT_CONTR
      000000DFH   SFRSYM    DATA     BYTE      IP3
      000000F4H   SFRSYM    DATA     BYTE      USBCON
      000000B5H   SFRSYM    DATA     BYTE      IP2
      000000FFH   SFRSYM    DATA     BYTE      RSTCFG
      000000C7H   SFRSYM    DATA     BYTE      IAP_CONTR
      0000008EH   SFRSYM    DATA     BYTE      AUXR
      000000AFH   SFRSYM    DATA     BYTE      IE2
      00000088H   SFRSYM    DATA     BYTE      TCON
      00000089H   SFRSYM    DATA     BYTE      TMOD
      00000098H   SFRSYM    DATA     BYTE      SCON
      00000087H   SFRSYM    DATA     BYTE      PCON
      000000BCH   SFRSYM    DATA     BYTE      ADC_CONTR
      000000D1H   SFRSYM    DATA     BYTE      PSW1
      000000E7H   SFRSYM    DATA     BYTE      CMPCR2
      000000E6H   SFRSYM    DATA     BYTE      CMPCR1
      000000DEH   SFRSYM    DATA     BYTE      ADCCFG
      000000B8H   SFRSYM    DATA     BYTE      IP
      0000008FH   SFRSYM    DATA     BYTE      INTCLKO
      000000EEH   SFRSYM    DATA     BYTE      IP3H
      000000B6H   SFRSYM    DATA     BYTE      IP2H
      000000BFH   SFRSYM    DATA     BYTE      P_SW4
      000000A8H   SFRSYM    DATA     BYTE      IE
      000000BBH   SFRSYM    DATA     BYTE      P_SW3
      000000BAH   SFRSYM    DATA     BYTE      P_SW2
      000000A2H   SFRSYM    DATA     BYTE      P_SW1
      000000CEH   SFRSYM    DATA     BYTE      SPCTL
      000000F8H   SFRSYM    DATA     BYTE      P7
      000000E8H   SFRSYM    DATA     BYTE      P6
      000000C8H   SFRSYM    DATA     BYTE      P5
      000000C0H   SFRSYM    DATA     BYTE      P4
      000000ABH   SFRSYM    DATA     BYTE      WKTCH
      000000B0H   SFRSYM    DATA     BYTE      P3
      000000A0H   SFRSYM    DATA     BYTE      P2
      00000090H   SFRSYM    DATA     BYTE      P1
      00000080H   SFRSYM    DATA     BYTE      P0

      00FF4AA8H   BLOCK     CODE     ---       LVL=0
      000108E8H   SYMBOL    XDATA    ---       command
      000108EAH   SYMBOL    XDATA    ---       str_buffer
      0001091CH   SYMBOL    XDATA    CHAR      write_index
      0001091DH   SYMBOL    XDATA    CHAR      read_index
      0001091EH   SYMBOL    XDATA    DOUBLE    distance
      00FF4AA8H   LINE      CODE     ---       #37
      00FF4AA8H   LINE      CODE     ---       #38
      00FF4AA8H   LINE      CODE     ---       #43
      00FF4AADH   LINE      CODE     ---       #44
      00FF4AB2H   LINE      CODE     ---       #46
      00FF4ACEH   LINE      CODE     ---       #49
      00FF4AE0H   LINE      CODE     ---       #51
      00FF4AE3H   LINE      CODE     ---       #54
      00FF4AE3H   LINE      CODE     ---       #57
      00FF4AE6H   LINE      CODE     ---       #59
      00FF4AF1H   LINE      CODE     ---       #79
      00FF4BDCH   LINE      CODE     ---       #81
      00FF4C26H   LINE      CODE     ---       #82
      00FF4C47H   LINE      CODE     ---       #83
      00FF4C64H   LINE      CODE     ---       #84
      00FF4C81H   LINE      CODE     ---       #85
      00FF4C9EH   LINE      CODE     ---       #86
L251 LINKER/LOCATER V4.66.93.0                                                        05/05/2025  21:49:10  PAGE 114


      00FF4CBBH   LINE      CODE     ---       #87
      00FF4CE5H   LINE      CODE     ---       #88
      00FF4D06H   LINE      CODE     ---       #89
      00FF4D2DH   LINE      CODE     ---       #90
      00FF4D4EH   LINE      CODE     ---       #91
      00FF4D79H   LINE      CODE     ---       #92
      00FF4D9AH   LINE      CODE     ---       #93
      00FF4E02H   LINE      CODE     ---       #94
      00FF4E09H   LINE      CODE     ---       #95
      00FF4E27H   LINE      CODE     ---       #96
      00FF4E27H   LINE      CODE     ---       #97
      00FF4E27H   LINE      CODE     ---       #99
      00FF4E2CH   LINE      CODE     ---       #100
      00FF4E31H   LINE      CODE     ---       #101
      00FF4E37H   LINE      CODE     ---       #103
      00FF4E40H   LINE      CODE     ---       #106
      00FF4ED3H   LINE      CODE     ---       #107
      00FF4F0AH   LINE      CODE     ---       #108
      00FF4F15H   LINE      CODE     ---       #109
      00FF4F37H   LINE      CODE     ---       #112
      00FF4F39H   LINE      CODE     ---       #113
      00FF4FC7H   LINE      CODE     ---       #114
      00FF5028H   LINE      CODE     ---       #115
      00FF504BH   LINE      CODE     ---       #116
      00FF5065H   LINE      CODE     ---       #117
      00FF5081H   LINE      CODE     ---       #118
      00FF5084H   LINE      CODE     ---       #123
      00FF5117H   LINE      CODE     ---       #125
      00FF5136H   LINE      CODE     ---       #127
      00FF5178H   LINE      CODE     ---       #128
      00FF51A2H   LINE      CODE     ---       #129
      00FF51A2H   LINE      CODE     ---       #131
      00FF51A2H   LINE      CODE     ---       #132
      00FF51CFH   LINE      CODE     ---       #133
      00FF51FEH   LINE      CODE     ---       #144
      00FF522DH   LINE      CODE     ---       #145
      00FF5230H   LINE      CODE     ---       #146
      ---         BLOCKEND  ---      ---       LVL=0

      ---         MODULE    ---      ---       pid
      00FFBAD9H   PUBLIC    CODE     ---       Angle_Pid_fun
      00FF00C6H   PUBLIC    CODE     ---       My_Pid_Init
      00FFD9BCH   PUBLIC    CODE     ---       constrain_float
      00FF9085H   PUBLIC    CODE     ---       PidLocCtrl
      00FFDE65H   PUBLIC    CODE     ---       constrain_uint32
      00FFB729H   PUBLIC    CODE     ---       Pid_Param_Init
      000104DAH   PUBLIC    XDATA    FLOAT     angle_KI
      000104DEH   PUBLIC    XDATA    FLOAT     velocity_error
      000104E2H   PUBLIC    XDATA    FLOAT     velocity_IMAX
      000104E6H   PUBLIC    XDATA    FLOAT     angle_KP
      000104EAH   PUBLIC    XDATA    ---       velocity_pid
      0001051EH   PUBLIC    XDATA    FLOAT     angle_error
      00010522H   PUBLIC    XDATA    FLOAT     angle_IMAX
      00010526H   PUBLIC    XDATA    ---       angle_pid
      0001055AH   PUBLIC    XDATA    FLOAT     velocity_OUTMAX
      0001055EH   PUBLIC    XDATA    FLOAT     angle_OUTMAX
      00010562H   PUBLIC    XDATA    FLOAT     velocity_target
      00010566H   PUBLIC    XDATA    FLOAT     velocity_KD
      0001056AH   PUBLIC    XDATA    FLOAT     velocity_KI
      0001056EH   PUBLIC    XDATA    FLOAT     velocity_KP
      00010572H   PUBLIC    XDATA    FLOAT     angle_target
      00010576H   PUBLIC    XDATA    FLOAT     angle_KD
      00010BB2H   PUBLIC    XDATA    BYTE      ?Pid_Param_Init?BYTE
      00010E6EH   PUBLIC    XDATA    BYTE      ?PidLocCtrl?BYTE
      00010E7AH   PUBLIC    XDATA    BYTE      ?PidIncCtrl?BYTE
L251 LINKER/LOCATER V4.66.93.0                                                        05/05/2025  21:49:10  PAGE 115


      00010E86H   PUBLIC    XDATA    BYTE      ?constrain_float?BYTE
      000000D0H   SFRSYM    DATA     BYTE      PSW
      0000009DH   SFRSYM    DATA     BYTE      IRCBAND
      00000097H   SFRSYM    DATA     BYTE      AUXR2
      000000EFH   SFRSYM    DATA     BYTE      AUXINTIF
      000000FDH   SFRSYM    DATA     BYTE      S4CON
      000000ACH   SFRSYM    DATA     BYTE      S3CON
      0000009AH   SFRSYM    DATA     BYTE      S2CON
      000000B7H   SFRSYM    DATA     BYTE      IPH
      000000CDH   SFRSYM    DATA     BYTE      SPSTAT
      000000DDH   SFRSYM    DATA     BYTE      T4T3M
      000000C1H   SFRSYM    DATA     BYTE      WDT_CONTR
      000000DFH   SFRSYM    DATA     BYTE      IP3
      000000F4H   SFRSYM    DATA     BYTE      USBCON
      000000B5H   SFRSYM    DATA     BYTE      IP2
      000000FFH   SFRSYM    DATA     BYTE      RSTCFG
      000000C7H   SFRSYM    DATA     BYTE      IAP_CONTR
      0000008EH   SFRSYM    DATA     BYTE      AUXR
      000000AFH   SFRSYM    DATA     BYTE      IE2
      00000088H   SFRSYM    DATA     BYTE      TCON
      00000089H   SFRSYM    DATA     BYTE      TMOD
      00000098H   SFRSYM    DATA     BYTE      SCON
      00000087H   SFRSYM    DATA     BYTE      PCON
      000000BCH   SFRSYM    DATA     BYTE      ADC_CONTR
      000000D1H   SFRSYM    DATA     BYTE      PSW1
      000000E7H   SFRSYM    DATA     BYTE      CMPCR2
      000000E6H   SFRSYM    DATA     BYTE      CMPCR1
      000000DEH   SFRSYM    DATA     BYTE      ADCCFG
      000000B8H   SFRSYM    DATA     BYTE      IP
      0000008FH   SFRSYM    DATA     BYTE      INTCLKO
      000000EEH   SFRSYM    DATA     BYTE      IP3H
      000000B6H   SFRSYM    DATA     BYTE      IP2H
      000000BFH   SFRSYM    DATA     BYTE      P_SW4
      000000A8H   SFRSYM    DATA     BYTE      IE
      000000BBH   SFRSYM    DATA     BYTE      P_SW3
      000000BAH   SFRSYM    DATA     BYTE      P_SW2
      000000A2H   SFRSYM    DATA     BYTE      P_SW1
      000000CEH   SFRSYM    DATA     BYTE      SPCTL
      000000F8H   SFRSYM    DATA     BYTE      P7
      000000E8H   SFRSYM    DATA     BYTE      P6
      000000C8H   SFRSYM    DATA     BYTE      P5
      000000C0H   SFRSYM    DATA     BYTE      P4
      000000ABH   SFRSYM    DATA     BYTE      WKTCH
      000000B0H   SFRSYM    DATA     BYTE      P3
      000000A0H   SFRSYM    DATA     BYTE      P2
      00000090H   SFRSYM    DATA     BYTE      P1
      00000080H   SFRSYM    DATA     BYTE      P0

      00FFBAD9H   BLOCK     CODE     ---       LVL=0
      00011424H   SYMBOL    XDATA    FLOAT     dt
      00FFBAD9H   LINE      CODE     ---       #18
      00FFBAE3H   LINE      CODE     ---       #20
      00FFBAE9H   LINE      CODE     ---       #22
      00FFBB77H   LINE      CODE     ---       #23
      00FFBB9AH   LINE      CODE     ---       #24
      00FFBBB4H   LINE      CODE     ---       #25
      00FFBBB4H   LINE      CODE     ---       #26
      00FFBBD5H   LINE      CODE     ---       #28
      00FFBBFEH   LINE      CODE     ---       #30
      00FFBC08H   LINE      CODE     ---       #31
      ---         BLOCKEND  ---      ---       LVL=0
      00011428H   SYMBOL    XDATA    FLOAT     dt

      00FF00C6H   BLOCK     CODE     ---       LVL=0
      00FF00C6H   LINE      CODE     ---       #48
L251 LINKER/LOCATER V4.66.93.0                                                        05/05/2025  21:49:10  PAGE 116


      00FF00C6H   LINE      CODE     ---       #50
      00FF012BH   LINE      CODE     ---       #51
      00FF0190H   LINE      CODE     ---       #52
      ---         BLOCKEND  ---      ---       LVL=0

      00FFB729H   BLOCK     CODE     ---       LVL=0
      00010BB2H   SYMBOL    XDATA    ---       pid
      00010BB6H   SYMBOL    XDATA    FLOAT     kp
      00010BBAH   SYMBOL    XDATA    FLOAT     ki
      00010BBEH   SYMBOL    XDATA    FLOAT     kd
      00010BC2H   SYMBOL    XDATA    FLOAT     imax
      00010BC6H   SYMBOL    XDATA    FLOAT     outmax
      00FFB729H   LINE      CODE     ---       #61
      00FFB73DH   LINE      CODE     ---       #63
      00FFB758H   LINE      CODE     ---       #64
      00FFB774H   LINE      CODE     ---       #65
      00FFB790H   LINE      CODE     ---       #66
      00FFB7ACH   LINE      CODE     ---       #67
      00FFB7C0H   LINE      CODE     ---       #68
      00FFB7D4H   LINE      CODE     ---       #69
      00FFB7E8H   LINE      CODE     ---       #70
      00FFB7FCH   LINE      CODE     ---       #71
      00FFB818H   LINE      CODE     ---       #72
      00FFB82CH   LINE      CODE     ---       #73
      00FFB840H   LINE      CODE     ---       #74
      00FFB854H   LINE      CODE     ---       #75
      00FFB868H   LINE      CODE     ---       #76
      ---         BLOCKEND  ---      ---       LVL=0

      00FF9085H   BLOCK     CODE     ---       LVL=0
      00010E6EH   SYMBOL    XDATA    ---       pid
      00010E72H   SYMBOL    XDATA    FLOAT     error
      00010E76H   SYMBOL    XDATA    FLOAT     t
      00FF9085H   LINE      CODE     ---       #84
      00FF9099H   LINE      CODE     ---       #87
      00FF90C2H   LINE      CODE     ---       #90
      00FF9120H   LINE      CODE     ---       #93
      00FF9150H   LINE      CODE     ---       #94
      00FF9196H   LINE      CODE     ---       #95
      00FF91EDH   LINE      CODE     ---       #97
      00FF9209H   LINE      CODE     ---       #99
      00FF9257H   LINE      CODE     ---       #101
      00FF92B5H   LINE      CODE     ---       #103
      00FF92C7H   LINE      CODE     ---       #104
      ---         BLOCKEND  ---      ---       LVL=0
      00010E7AH   SYMBOL    XDATA    ---       pid
      00010E7EH   SYMBOL    XDATA    FLOAT     error
      00010E82H   SYMBOL    XDATA    FLOAT     t

      00FFD9BCH   BLOCK     CODE     ---       LVL=0
      00010E86H   SYMBOL    XDATA    FLOAT     amt
      00010E8AH   SYMBOL    XDATA    FLOAT     low
      00010E8EH   SYMBOL    XDATA    FLOAT     high
      00FFD9BCH   LINE      CODE     ---       #135
      00FFD9D0H   LINE      CODE     ---       #137
      00FFDA24H   LINE      CODE     ---       #138
      ---         BLOCKEND  ---      ---       LVL=0
      0001136FH   SYMBOL    XDATA    INT       amt
      00011371H   SYMBOL    XDATA    INT       low
      00011373H   SYMBOL    XDATA    INT       high

      00FFDE65H   BLOCK     CODE     ---       LVL=0
      0001142CH   SYMBOL    XDATA    FLOAT     amt
      00FFDE65H   LINE      CODE     ---       #157
      00FFDE6FH   LINE      CODE     ---       #159
L251 LINKER/LOCATER V4.66.93.0                                                        05/05/2025  21:49:10  PAGE 117


      00FFDEB6H   LINE      CODE     ---       #160
      ---         BLOCKEND  ---      ---       LVL=0

      ---         MODULE    ---      ---       ips114
      00FFBE57H   PUBLIC    CODE     ---       IPS114_Show_Unit
      00FF9737H   PUBLIC    CODE     ---       IPS114_Show_Info
      000000D0H   SFRSYM    DATA     BYTE      PSW
      0000009DH   SFRSYM    DATA     BYTE      IRCBAND
      00000097H   SFRSYM    DATA     BYTE      AUXR2
      000000EFH   SFRSYM    DATA     BYTE      AUXINTIF
      000000FDH   SFRSYM    DATA     BYTE      S4CON
      000000ACH   SFRSYM    DATA     BYTE      S3CON
      0000009AH   SFRSYM    DATA     BYTE      S2CON
      000000B7H   SFRSYM    DATA     BYTE      IPH
      000000CDH   SFRSYM    DATA     BYTE      SPSTAT
      000000DDH   SFRSYM    DATA     BYTE      T4T3M
      000000C1H   SFRSYM    DATA     BYTE      WDT_CONTR
      000000DFH   SFRSYM    DATA     BYTE      IP3
      000000F4H   SFRSYM    DATA     BYTE      USBCON
      000000B5H   SFRSYM    DATA     BYTE      IP2
      000000FFH   SFRSYM    DATA     BYTE      RSTCFG
      000000C7H   SFRSYM    DATA     BYTE      IAP_CONTR
      0000008EH   SFRSYM    DATA     BYTE      AUXR
      000000AFH   SFRSYM    DATA     BYTE      IE2
      00000088H   SFRSYM    DATA     BYTE      TCON
      00000089H   SFRSYM    DATA     BYTE      TMOD
      00000098H   SFRSYM    DATA     BYTE      SCON
      00000087H   SFRSYM    DATA     BYTE      PCON
      000000BCH   SFRSYM    DATA     BYTE      ADC_CONTR
      000000D1H   SFRSYM    DATA     BYTE      PSW1
      000000E7H   SFRSYM    DATA     BYTE      CMPCR2
      000000E6H   SFRSYM    DATA     BYTE      CMPCR1
      000000DEH   SFRSYM    DATA     BYTE      ADCCFG
      000000B8H   SFRSYM    DATA     BYTE      IP
      0000008FH   SFRSYM    DATA     BYTE      INTCLKO
      000000EEH   SFRSYM    DATA     BYTE      IP3H
      000000B6H   SFRSYM    DATA     BYTE      IP2H
      000000BFH   SFRSYM    DATA     BYTE      P_SW4
      000000A8H   SFRSYM    DATA     BYTE      IE
      000000BBH   SFRSYM    DATA     BYTE      P_SW3
      000000BAH   SFRSYM    DATA     BYTE      P_SW2
      000000A2H   SFRSYM    DATA     BYTE      P_SW1
      000000CEH   SFRSYM    DATA     BYTE      SPCTL
      000000F8H   SFRSYM    DATA     BYTE      P7
      000000E8H   SFRSYM    DATA     BYTE      P6
      000000C8H   SFRSYM    DATA     BYTE      P5
      000000C0H   SFRSYM    DATA     BYTE      P4
      000000ABH   SFRSYM    DATA     BYTE      WKTCH
      000000B0H   SFRSYM    DATA     BYTE      P3
      000000A0H   SFRSYM    DATA     BYTE      P2
      00000090H   SFRSYM    DATA     BYTE      P1
      00000080H   SFRSYM    DATA     BYTE      P0

      00FFBE57H   BLOCK     CODE     ---       LVL=0
      00FFBE57H   LINE      CODE     ---       #8
      00FFBE57H   LINE      CODE     ---       #11
      00FFBE62H   LINE      CODE     ---       #12
      00FFBE71H   LINE      CODE     ---       #13
      00FFBE7EH   LINE      CODE     ---       #14
      00FFBE8BH   LINE      CODE     ---       #15
      00FFBE98H   LINE      CODE     ---       #18
      00FFBEA3H   LINE      CODE     ---       #19
      00FFBEB4H   LINE      CODE     ---       #20
      00FFBEC1H   LINE      CODE     ---       #21
      00FFBECEH   LINE      CODE     ---       #22
L251 LINKER/LOCATER V4.66.93.0                                                        05/05/2025  21:49:10  PAGE 118


      00FFBEDBH   LINE      CODE     ---       #25
      00FFBEE6H   LINE      CODE     ---       #26
      00FFBEF7H   LINE      CODE     ---       #27
      00FFBF0AH   LINE      CODE     ---       #28
      00FFBF1DH   LINE      CODE     ---       #30
      00FFBF2EH   LINE      CODE     ---       #31
      00FFBF41H   LINE      CODE     ---       #32
      00FFBF52H   LINE      CODE     ---       #33
      00FFBF65H   LINE      CODE     ---       #35
      00FFBF70H   LINE      CODE     ---       #36
      ---         BLOCKEND  ---      ---       LVL=0

      00FF9737H   BLOCK     CODE     ---       LVL=0
      000114C8H   SYMBOL    XDATA    BYTE      index
      00FF9737H   LINE      CODE     ---       #42
      00FF9737H   LINE      CODE     ---       #43
      00FF9737H   LINE      CODE     ---       #45
      00FF973CH   LINE      CODE     ---       #47
      00FF9769H   LINE      CODE     ---       #48
      00FF9796H   LINE      CODE     ---       #49
      00FF979EH   LINE      CODE     ---       #51
      00FF97E4H   LINE      CODE     ---       #52
      00FF982AH   LINE      CODE     ---       #53
      00FF983CH   LINE      CODE     ---       #55
      00FF9842H   LINE      CODE     ---       #58
      00FF9851H   LINE      CODE     ---       #59
      00FF9860H   LINE      CODE     ---       #60
      00FF988FH   LINE      CODE     ---       #62
      00FF98C3H   LINE      CODE     ---       #63
      00FF98F7H   LINE      CODE     ---       #64
      00FF9926H   LINE      CODE     ---       #65
      00FF9955H   LINE      CODE     ---       #66
      ---         BLOCKEND  ---      ---       LVL=0

      ---         MODULE    ---      ---       imu
      000107B5H   PUBLIC    XDATA    FLOAT     pitch
      000107B9H   PUBLIC    XDATA    FLOAT     q0
      000107BDH   PUBLIC    XDATA    FLOAT     q1
      000107C1H   PUBLIC    XDATA    FLOAT     q2
      000107C5H   PUBLIC    XDATA    FLOAT     q3
      000107C9H   PUBLIC    XDATA    FLOAT     roll
      000107CDH   PUBLIC    XDATA    FLOAT     x_p
      000107D1H   PUBLIC    XDATA    FLOAT     y_p
      000107D5H   PUBLIC    XDATA    FLOAT     z_p
      000107D9H   PUBLIC    XDATA    FLOAT     x_v
      000107DDH   PUBLIC    XDATA    FLOAT     y_v
      000107E1H   PUBLIC    XDATA    FLOAT     z_v
      000107E5H   PUBLIC    XDATA    FLOAT     yaw
      000107E9H   PUBLIC    XDATA    ---       imu_acc
      000107F5H   PUBLIC    XDATA    FLOAT     integralFBx
      000107F9H   PUBLIC    XDATA    FLOAT     integralFBy
      000107FDH   PUBLIC    XDATA    FLOAT     integralFBz
      00010801H   PUBLIC    XDATA    ---       imu_gyro
      000000D0H   SFRSYM    DATA     BYTE      PSW
      0000009DH   SFRSYM    DATA     BYTE      IRCBAND
      00000097H   SFRSYM    DATA     BYTE      AUXR2
      000000EFH   SFRSYM    DATA     BYTE      AUXINTIF
      000000FDH   SFRSYM    DATA     BYTE      S4CON
      000000ACH   SFRSYM    DATA     BYTE      S3CON
      0000009AH   SFRSYM    DATA     BYTE      S2CON
      000000B7H   SFRSYM    DATA     BYTE      IPH
      000000CDH   SFRSYM    DATA     BYTE      SPSTAT
      000000DDH   SFRSYM    DATA     BYTE      T4T3M
      000000C1H   SFRSYM    DATA     BYTE      WDT_CONTR
      000000DFH   SFRSYM    DATA     BYTE      IP3
L251 LINKER/LOCATER V4.66.93.0                                                        05/05/2025  21:49:10  PAGE 119


      000000F4H   SFRSYM    DATA     BYTE      USBCON
      000000B5H   SFRSYM    DATA     BYTE      IP2
      000000FFH   SFRSYM    DATA     BYTE      RSTCFG
      000000C7H   SFRSYM    DATA     BYTE      IAP_CONTR
      0000008EH   SFRSYM    DATA     BYTE      AUXR
      000000AFH   SFRSYM    DATA     BYTE      IE2
      00000088H   SFRSYM    DATA     BYTE      TCON
      00000089H   SFRSYM    DATA     BYTE      TMOD
      00000098H   SFRSYM    DATA     BYTE      SCON
      00000087H   SFRSYM    DATA     BYTE      PCON
      000000BCH   SFRSYM    DATA     BYTE      ADC_CONTR
      000000D1H   SFRSYM    DATA     BYTE      PSW1
      000000E7H   SFRSYM    DATA     BYTE      CMPCR2
      000000E6H   SFRSYM    DATA     BYTE      CMPCR1
      000000DEH   SFRSYM    DATA     BYTE      ADCCFG
      000000B8H   SFRSYM    DATA     BYTE      IP
      0000008FH   SFRSYM    DATA     BYTE      INTCLKO
      000000EEH   SFRSYM    DATA     BYTE      IP3H
      000000B6H   SFRSYM    DATA     BYTE      IP2H
      000000BFH   SFRSYM    DATA     BYTE      P_SW4
      000000A8H   SFRSYM    DATA     BYTE      IE
      000000BBH   SFRSYM    DATA     BYTE      P_SW3
      000000BAH   SFRSYM    DATA     BYTE      P_SW2
      000000A2H   SFRSYM    DATA     BYTE      P_SW1
      000000CEH   SFRSYM    DATA     BYTE      SPCTL
      000000F8H   SFRSYM    DATA     BYTE      P7
      000000E8H   SFRSYM    DATA     BYTE      P6
      000000C8H   SFRSYM    DATA     BYTE      P5
      000000C0H   SFRSYM    DATA     BYTE      P4
      000000ABH   SFRSYM    DATA     BYTE      WKTCH
      000000B0H   SFRSYM    DATA     BYTE      P3
      000000A0H   SFRSYM    DATA     BYTE      P2
      00000090H   SFRSYM    DATA     BYTE      P1
      00000080H   SFRSYM    DATA     BYTE      P0

      ---         MODULE    ---      ---       gps
      00FFE325H   PUBLIC    CODE     ---       ReadPoint
      00FFE347H   PUBLIC    CODE     ---       WritePoint
      000109FAH   PUBLIC    XDATA    ---       target_point
      00010A0AH   PUBLIC    XDATA    ---       origin_point
      00010A1AH   PUBLIC    XDATA    ---       pObject
      00010A1EH   PUBLIC    XDATA    ---       PID_param_index
      00010A21H   PUBLIC    XDATA    ---       Object_one_index
      00000020H.0 PUBLIC    BIT      BIT       gps_date_ready
      00000020H.1 PUBLIC    BIT      BIT       init_yaw_lock
      000000D0H   SFRSYM    DATA     BYTE      PSW
      0000009DH   SFRSYM    DATA     BYTE      IRCBAND
      00000097H   SFRSYM    DATA     BYTE      AUXR2
      000000EFH   SFRSYM    DATA     BYTE      AUXINTIF
      000000FDH   SFRSYM    DATA     BYTE      S4CON
      000000ACH   SFRSYM    DATA     BYTE      S3CON
      0000009AH   SFRSYM    DATA     BYTE      S2CON
      000000B7H   SFRSYM    DATA     BYTE      IPH
      000000CDH   SFRSYM    DATA     BYTE      SPSTAT
      000000DDH   SFRSYM    DATA     BYTE      T4T3M
      000000C1H   SFRSYM    DATA     BYTE      WDT_CONTR
      000000DFH   SFRSYM    DATA     BYTE      IP3
      000000F4H   SFRSYM    DATA     BYTE      USBCON
      000000B5H   SFRSYM    DATA     BYTE      IP2
      000000FFH   SFRSYM    DATA     BYTE      RSTCFG
      000000C7H   SFRSYM    DATA     BYTE      IAP_CONTR
      0000008EH   SFRSYM    DATA     BYTE      AUXR
      000000AFH   SFRSYM    DATA     BYTE      IE2
      00000088H   SFRSYM    DATA     BYTE      TCON
      00000089H   SFRSYM    DATA     BYTE      TMOD
L251 LINKER/LOCATER V4.66.93.0                                                        05/05/2025  21:49:10  PAGE 120


      00000098H   SFRSYM    DATA     BYTE      SCON
      00000087H   SFRSYM    DATA     BYTE      PCON
      000000BCH   SFRSYM    DATA     BYTE      ADC_CONTR
      000000D1H   SFRSYM    DATA     BYTE      PSW1
      000000E7H   SFRSYM    DATA     BYTE      CMPCR2
      000000E6H   SFRSYM    DATA     BYTE      CMPCR1
      000000DEH   SFRSYM    DATA     BYTE      ADCCFG
      000000B8H   SFRSYM    DATA     BYTE      IP
      0000008FH   SFRSYM    DATA     BYTE      INTCLKO
      000000EEH   SFRSYM    DATA     BYTE      IP3H
      000000B6H   SFRSYM    DATA     BYTE      IP2H
      000000BFH   SFRSYM    DATA     BYTE      P_SW4
      000000A8H   SFRSYM    DATA     BYTE      IE
      000000BBH   SFRSYM    DATA     BYTE      P_SW3
      000000BAH   SFRSYM    DATA     BYTE      P_SW2
      000000A2H   SFRSYM    DATA     BYTE      P_SW1
      000000CEH   SFRSYM    DATA     BYTE      SPCTL
      000000F8H   SFRSYM    DATA     BYTE      P7
      000000E8H   SFRSYM    DATA     BYTE      P6
      000000C8H   SFRSYM    DATA     BYTE      P5
      000000C0H   SFRSYM    DATA     BYTE      P4
      000000ABH   SFRSYM    DATA     BYTE      WKTCH
      000000B0H   SFRSYM    DATA     BYTE      P3
      000000A0H   SFRSYM    DATA     BYTE      P2
      00000090H   SFRSYM    DATA     BYTE      P1
      00000080H   SFRSYM    DATA     BYTE      P0

      00FFE347H   BLOCK     CODE     ---       LVL=0
      000114C9H   SYMBOL    XDATA    BYTE      offset
      00FFE347H   LINE      CODE     ---       #29
      00FFE34BH   LINE      CODE     ---       #32
      00FFE368H   LINE      CODE     ---       #33
      ---         BLOCKEND  ---      ---       LVL=0

      00FFE325H   BLOCK     CODE     ---       LVL=0
      000114CAH   SYMBOL    XDATA    BYTE      offset
      00FFE325H   LINE      CODE     ---       #36
      00FFE329H   LINE      CODE     ---       #39
      00FFE346H   LINE      CODE     ---       #40
      ---         BLOCKEND  ---      ---       LVL=0

      ---         MODULE    ---      ---       bluetooth
      00FFDCBAH   PUBLIC    CODE     ---       blue_tooth_read
      000108A7H   PUBLIC    XDATA    BYTE      data_len
      000108A8H   PUBLIC    XDATA    ---       data_buffer
      000000D0H   SFRSYM    DATA     BYTE      PSW
      0000009DH   SFRSYM    DATA     BYTE      IRCBAND
      00000097H   SFRSYM    DATA     BYTE      AUXR2
      000000EFH   SFRSYM    DATA     BYTE      AUXINTIF
      000000FDH   SFRSYM    DATA     BYTE      S4CON
      000000ACH   SFRSYM    DATA     BYTE      S3CON
      0000009AH   SFRSYM    DATA     BYTE      S2CON
      000000B7H   SFRSYM    DATA     BYTE      IPH
      000000CDH   SFRSYM    DATA     BYTE      SPSTAT
      000000DDH   SFRSYM    DATA     BYTE      T4T3M
      000000C1H   SFRSYM    DATA     BYTE      WDT_CONTR
      000000DFH   SFRSYM    DATA     BYTE      IP3
      000000F4H   SFRSYM    DATA     BYTE      USBCON
      000000B5H   SFRSYM    DATA     BYTE      IP2
      000000FFH   SFRSYM    DATA     BYTE      RSTCFG
      000000C7H   SFRSYM    DATA     BYTE      IAP_CONTR
      0000008EH   SFRSYM    DATA     BYTE      AUXR
      000000AFH   SFRSYM    DATA     BYTE      IE2
      00000088H   SFRSYM    DATA     BYTE      TCON
      00000089H   SFRSYM    DATA     BYTE      TMOD
L251 LINKER/LOCATER V4.66.93.0                                                        05/05/2025  21:49:10  PAGE 121


      00000098H   SFRSYM    DATA     BYTE      SCON
      00000087H   SFRSYM    DATA     BYTE      PCON
      000000BCH   SFRSYM    DATA     BYTE      ADC_CONTR
      000000D1H   SFRSYM    DATA     BYTE      PSW1
      000000E7H   SFRSYM    DATA     BYTE      CMPCR2
      000000E6H   SFRSYM    DATA     BYTE      CMPCR1
      000000DEH   SFRSYM    DATA     BYTE      ADCCFG
      000000B8H   SFRSYM    DATA     BYTE      IP
      0000008FH   SFRSYM    DATA     BYTE      INTCLKO
      000000EEH   SFRSYM    DATA     BYTE      IP3H
      000000B6H   SFRSYM    DATA     BYTE      IP2H
      000000BFH   SFRSYM    DATA     BYTE      P_SW4
      000000A8H   SFRSYM    DATA     BYTE      IE
      000000BBH   SFRSYM    DATA     BYTE      P_SW3
      000000BAH   SFRSYM    DATA     BYTE      P_SW2
      000000A2H   SFRSYM    DATA     BYTE      P_SW1
      000000CEH   SFRSYM    DATA     BYTE      SPCTL
      000000F8H   SFRSYM    DATA     BYTE      P7
      000000E8H   SFRSYM    DATA     BYTE      P6
      000000C8H   SFRSYM    DATA     BYTE      P5
      000000C0H   SFRSYM    DATA     BYTE      P4
      000000ABH   SFRSYM    DATA     BYTE      WKTCH
      000000B0H   SFRSYM    DATA     BYTE      P3
      000000A0H   SFRSYM    DATA     BYTE      P2
      00000090H   SFRSYM    DATA     BYTE      P1
      00000080H   SFRSYM    DATA     BYTE      P0

      00FFDCBAH   BLOCK     CODE     ---       LVL=0
      00011430H   SYMBOL    XDATA    ---       buffer
      00FFDCBAH   LINE      CODE     ---       #24
      00FFDCC4H   LINE      CODE     ---       #26
      00FFDCD7H   LINE      CODE     ---       #28
      00FFDCE2H   LINE      CODE     ---       #29
      00FFDCE9H   LINE      CODE     ---       #30
      00FFDCF4H   LINE      CODE     ---       #31
      00FFDD11H   LINE      CODE     ---       #32
      ---         BLOCKEND  ---      ---       LVL=0

      ---         MODULE    ---      ---       init
      00FFDD12H   PUBLIC    CODE     ---       init
      000000D0H   SFRSYM    DATA     BYTE      PSW
      0000009DH   SFRSYM    DATA     BYTE      IRCBAND
      00000097H   SFRSYM    DATA     BYTE      AUXR2
      000000EFH   SFRSYM    DATA     BYTE      AUXINTIF
      000000FDH   SFRSYM    DATA     BYTE      S4CON
      000000ACH   SFRSYM    DATA     BYTE      S3CON
      0000009AH   SFRSYM    DATA     BYTE      S2CON
      000000B7H   SFRSYM    DATA     BYTE      IPH
      000000CDH   SFRSYM    DATA     BYTE      SPSTAT
      000000DDH   SFRSYM    DATA     BYTE      T4T3M
      000000C1H   SFRSYM    DATA     BYTE      WDT_CONTR
      000000DFH   SFRSYM    DATA     BYTE      IP3
      000000F4H   SFRSYM    DATA     BYTE      USBCON
      000000B5H   SFRSYM    DATA     BYTE      IP2
      000000FFH   SFRSYM    DATA     BYTE      RSTCFG
      000000C7H   SFRSYM    DATA     BYTE      IAP_CONTR
      0000008EH   SFRSYM    DATA     BYTE      AUXR
      000000AFH   SFRSYM    DATA     BYTE      IE2
      00000088H   SFRSYM    DATA     BYTE      TCON
      00000089H   SFRSYM    DATA     BYTE      TMOD
      00000098H   SFRSYM    DATA     BYTE      SCON
      00000087H   SFRSYM    DATA     BYTE      PCON
      000000BCH   SFRSYM    DATA     BYTE      ADC_CONTR
      000000D1H   SFRSYM    DATA     BYTE      PSW1
      000000E7H   SFRSYM    DATA     BYTE      CMPCR2
L251 LINKER/LOCATER V4.66.93.0                                                        05/05/2025  21:49:10  PAGE 122


      000000E6H   SFRSYM    DATA     BYTE      CMPCR1
      000000DEH   SFRSYM    DATA     BYTE      ADCCFG
      000000B8H   SFRSYM    DATA     BYTE      IP
      0000008FH   SFRSYM    DATA     BYTE      INTCLKO
      000000EEH   SFRSYM    DATA     BYTE      IP3H
      000000B6H   SFRSYM    DATA     BYTE      IP2H
      000000BFH   SFRSYM    DATA     BYTE      P_SW4
      000000A8H   SFRSYM    DATA     BYTE      IE
      000000BBH   SFRSYM    DATA     BYTE      P_SW3
      000000BAH   SFRSYM    DATA     BYTE      P_SW2
      000000A2H   SFRSYM    DATA     BYTE      P_SW1
      000000CEH   SFRSYM    DATA     BYTE      SPCTL
      000000F8H   SFRSYM    DATA     BYTE      P7
      000000E8H   SFRSYM    DATA     BYTE      P6
      000000C8H   SFRSYM    DATA     BYTE      P5
      000000C0H   SFRSYM    DATA     BYTE      P4
      000000ABH   SFRSYM    DATA     BYTE      WKTCH
      000000B0H   SFRSYM    DATA     BYTE      P3
      000000A0H   SFRSYM    DATA     BYTE      P2
      00000090H   SFRSYM    DATA     BYTE      P1
      00000080H   SFRSYM    DATA     BYTE      P0

      00FFDD12H   BLOCK     CODE     ---       LVL=0
      00FFDD12H   LINE      CODE     ---       #3
      00FFDD12H   LINE      CODE     ---       #5
      00FFDD1DH   LINE      CODE     ---       #6
      00FFDD20H   LINE      CODE     ---       #9
      00FFDD23H   LINE      CODE     ---       #10
      00FFDD26H   LINE      CODE     ---       #14
      00FFDD29H   LINE      CODE     ---       #18
      00FFDD2CH   LINE      CODE     ---       #21
      00FFDD31H   LINE      CODE     ---       #24
      00FFDD33H   LINE      CODE     ---       #27
      00FFDD44H   LINE      CODE     ---       #31
      00FFDD49H   LINE      CODE     ---       #34
      00FFDD50H   LINE      CODE     ---       #35
      00FFDD53H   LINE      CODE     ---       #41
      00FFDD56H   LINE      CODE     ---       #44
      00FFDD59H   LINE      CODE     ---       #47
      00FFDD5CH   LINE      CODE     ---       #50
      00FFDD67H   LINE      CODE     ---       #51
      ---         BLOCKEND  ---      ---       LVL=0

      ---         MODULE    ---      ---       pwm
      00FFDBA6H   PUBLIC    CODE     ---       my_pwm_init
      00010CB7H   PUBLIC    XDATA    INT       duty_up_right
      00010CB9H   PUBLIC    XDATA    INT       duty_up_left
      00010CBBH   PUBLIC    XDATA    INT       duty_forward_right
      00010CBDH   PUBLIC    XDATA    INT       duty_forward_left
      00010CBFH   PUBLIC    XDATA    ---       duty
      000000D0H   SFRSYM    DATA     BYTE      PSW
      0000009DH   SFRSYM    DATA     BYTE      IRCBAND
      00000097H   SFRSYM    DATA     BYTE      AUXR2
      000000EFH   SFRSYM    DATA     BYTE      AUXINTIF
      000000FDH   SFRSYM    DATA     BYTE      S4CON
      000000ACH   SFRSYM    DATA     BYTE      S3CON
      0000009AH   SFRSYM    DATA     BYTE      S2CON
      000000B7H   SFRSYM    DATA     BYTE      IPH
      000000CDH   SFRSYM    DATA     BYTE      SPSTAT
      000000DDH   SFRSYM    DATA     BYTE      T4T3M
      000000C1H   SFRSYM    DATA     BYTE      WDT_CONTR
      000000DFH   SFRSYM    DATA     BYTE      IP3
      000000F4H   SFRSYM    DATA     BYTE      USBCON
      000000B5H   SFRSYM    DATA     BYTE      IP2
      000000FFH   SFRSYM    DATA     BYTE      RSTCFG
L251 LINKER/LOCATER V4.66.93.0                                                        05/05/2025  21:49:10  PAGE 123


      000000C7H   SFRSYM    DATA     BYTE      IAP_CONTR
      0000008EH   SFRSYM    DATA     BYTE      AUXR
      000000AFH   SFRSYM    DATA     BYTE      IE2
      00000088H   SFRSYM    DATA     BYTE      TCON
      00000089H   SFRSYM    DATA     BYTE      TMOD
      00000098H   SFRSYM    DATA     BYTE      SCON
      00000087H   SFRSYM    DATA     BYTE      PCON
      000000BCH   SFRSYM    DATA     BYTE      ADC_CONTR
      000000D1H   SFRSYM    DATA     BYTE      PSW1
      000000E7H   SFRSYM    DATA     BYTE      CMPCR2
      000000E6H   SFRSYM    DATA     BYTE      CMPCR1
      000000DEH   SFRSYM    DATA     BYTE      ADCCFG
      000000B8H   SFRSYM    DATA     BYTE      IP
      0000008FH   SFRSYM    DATA     BYTE      INTCLKO
      000000EEH   SFRSYM    DATA     BYTE      IP3H
      000000B6H   SFRSYM    DATA     BYTE      IP2H
      000000BFH   SFRSYM    DATA     BYTE      P_SW4
      000000A8H   SFRSYM    DATA     BYTE      IE
      000000BBH   SFRSYM    DATA     BYTE      P_SW3
      000000BAH   SFRSYM    DATA     BYTE      P_SW2
      000000A2H   SFRSYM    DATA     BYTE      P_SW1
      000000CEH   SFRSYM    DATA     BYTE      SPCTL
      000000F8H   SFRSYM    DATA     BYTE      P7
      000000E8H   SFRSYM    DATA     BYTE      P6
      000000C8H   SFRSYM    DATA     BYTE      P5
      000000C0H   SFRSYM    DATA     BYTE      P4
      000000ABH   SFRSYM    DATA     BYTE      WKTCH
      000000B0H   SFRSYM    DATA     BYTE      P3
      000000A0H   SFRSYM    DATA     BYTE      P2
      00000090H   SFRSYM    DATA     BYTE      P1
      00000080H   SFRSYM    DATA     BYTE      P0

      00FFDBA6H   BLOCK     CODE     ---       LVL=0
      00FFDBA6H   LINE      CODE     ---       #9
      00FFDBA6H   LINE      CODE     ---       #11
      00FFDBBDH   LINE      CODE     ---       #12
      00FFDBD4H   LINE      CODE     ---       #13
      00FFDBEBH   LINE      CODE     ---       #14
      00FFDC02H   LINE      CODE     ---       #26
      ---         BLOCKEND  ---      ---       LVL=0

      ---         MODULE    ---      ---       filter
      00FFCF17H   PUBLIC    CODE     ---       FOCF
      00FFB1E0H   PUBLIC    CODE     ---       my_atan2
      00FF5E89H   PUBLIC    CODE     ---       GetEuler
      00010E92H   PUBLIC    XDATA    BYTE      ?FOCF?BYTE
      00010BCAH   PUBLIC    XDATA    BYTE      ?my_atan2?BYTE
      000000D0H   SFRSYM    DATA     BYTE      PSW
      0000009DH   SFRSYM    DATA     BYTE      IRCBAND
      00000097H   SFRSYM    DATA     BYTE      AUXR2
      000000EFH   SFRSYM    DATA     BYTE      AUXINTIF
      000000FDH   SFRSYM    DATA     BYTE      S4CON
      000000ACH   SFRSYM    DATA     BYTE      S3CON
      0000009AH   SFRSYM    DATA     BYTE      S2CON
      000000B7H   SFRSYM    DATA     BYTE      IPH
      000000CDH   SFRSYM    DATA     BYTE      SPSTAT
      000000DDH   SFRSYM    DATA     BYTE      T4T3M
      000000C1H   SFRSYM    DATA     BYTE      WDT_CONTR
      000000DFH   SFRSYM    DATA     BYTE      IP3
      000000F4H   SFRSYM    DATA     BYTE      USBCON
      000000B5H   SFRSYM    DATA     BYTE      IP2
      000000FFH   SFRSYM    DATA     BYTE      RSTCFG
      000000C7H   SFRSYM    DATA     BYTE      IAP_CONTR
      0000008EH   SFRSYM    DATA     BYTE      AUXR
      000000AFH   SFRSYM    DATA     BYTE      IE2
L251 LINKER/LOCATER V4.66.93.0                                                        05/05/2025  21:49:10  PAGE 124


      00000088H   SFRSYM    DATA     BYTE      TCON
      00000089H   SFRSYM    DATA     BYTE      TMOD
      00000098H   SFRSYM    DATA     BYTE      SCON
      00000087H   SFRSYM    DATA     BYTE      PCON
      000000BCH   SFRSYM    DATA     BYTE      ADC_CONTR
      000000D1H   SFRSYM    DATA     BYTE      PSW1
      000000E7H   SFRSYM    DATA     BYTE      CMPCR2
      000000E6H   SFRSYM    DATA     BYTE      CMPCR1
      000000DEH   SFRSYM    DATA     BYTE      ADCCFG
      000000B8H   SFRSYM    DATA     BYTE      IP
      0000008FH   SFRSYM    DATA     BYTE      INTCLKO
      000000EEH   SFRSYM    DATA     BYTE      IP3H
      000000B6H   SFRSYM    DATA     BYTE      IP2H
      000000BFH   SFRSYM    DATA     BYTE      P_SW4
      000000A8H   SFRSYM    DATA     BYTE      IE
      000000BBH   SFRSYM    DATA     BYTE      P_SW3
      000000BAH   SFRSYM    DATA     BYTE      P_SW2
      000000A2H   SFRSYM    DATA     BYTE      P_SW1
      000000CEH   SFRSYM    DATA     BYTE      SPCTL
      000000F8H   SFRSYM    DATA     BYTE      P7
      000000E8H   SFRSYM    DATA     BYTE      P6
      000000C8H   SFRSYM    DATA     BYTE      P5
      000000C0H   SFRSYM    DATA     BYTE      P4
      000000ABH   SFRSYM    DATA     BYTE      WKTCH
      000000B0H   SFRSYM    DATA     BYTE      P3
      000000A0H   SFRSYM    DATA     BYTE      P2
      00000090H   SFRSYM    DATA     BYTE      P1
      00000080H   SFRSYM    DATA     BYTE      P0

      00FFCF17H   BLOCK     CODE     ---       LVL=0
      00010E92H   SYMBOL    XDATA    ---       pData
      00010E96H   SYMBOL    XDATA    ---       pPreData
      00010E9AH   SYMBOL    XDATA    FLOAT     alpha
      00FFCF17H   LINE      CODE     ---       #7
      00FFCF2BH   LINE      CODE     ---       #9
      00FFCF5CH   LINE      CODE     ---       #10
      00FFCFAFH   LINE      CODE     ---       #11
      ---         BLOCKEND  ---      ---       LVL=0

      00FFB1E0H   BLOCK     CODE     ---       LVL=0
      00010BCAH   SYMBOL    XDATA    DOUBLE    y
      00010BD2H   SYMBOL    XDATA    DOUBLE    x
      00FFB273H   BLOCK     CODE     NEAR LAB  LVL=1
      00010BDAH   SYMBOL    XDATA    DOUBLE    theta
      ---         BLOCKEND  ---      ---       LVL=1
      00FFB1E0H   LINE      CODE     ---       #17
      00FFB1F2H   LINE      CODE     ---       #19
      00FFB210H   LINE      CODE     ---       #20
      00FFB22BH   LINE      CODE     ---       #21
      00FFB23EH   LINE      CODE     ---       #22
      00FFB259H   LINE      CODE     ---       #23
      00FFB26CH   LINE      CODE     ---       #24
      00FFB26CH   LINE      CODE     ---       #25
      00FFB273H   LINE      CODE     ---       #26
      00FFB273H   LINE      CODE     ---       #27
      00FFB273H   LINE      CODE     ---       #28
      00FFB273H   LINE      CODE     ---       #30
      00FFB2AFH   LINE      CODE     ---       #33
      00FFB2CAH   LINE      CODE     ---       #34
      00FFB2DEH   LINE      CODE     ---       #36
      00FFB2DEH   LINE      CODE     ---       #37
      00FFB2F9H   LINE      CODE     ---       #38
      00FFB320H   LINE      CODE     ---       #39
      00FFB320H   LINE      CODE     ---       #40
      00FFB345H   LINE      CODE     ---       #41
L251 LINKER/LOCATER V4.66.93.0                                                        05/05/2025  21:49:10  PAGE 125


      00FFB345H   LINE      CODE     ---       #42
      00FFB345H   LINE      CODE     ---       #43
      00FFB345H   LINE      CODE     ---       #44
      ---         BLOCKEND  ---      ---       LVL=0

      00FF5E89H   BLOCK     CODE     ---       LVL=0
      00010BE2H   SYMBOL    XDATA    ---       gyro
      00010BE6H   SYMBOL    XDATA    FLOAT     dt
      00FF5E9DH   BLOCK     CODE     NEAR LAB  LVL=1
      00010BEAH   SYMBOL    XDATA    FLOAT     norm
      00010BEEH   SYMBOL    XDATA    FLOAT     gx
      00010BF2H   SYMBOL    XDATA    FLOAT     gy
      00010BF6H   SYMBOL    XDATA    FLOAT     gz
      ---         BLOCKEND  ---      ---       LVL=1
      00FF5E89H   LINE      CODE     ---       #50
      00FF5E9DH   LINE      CODE     ---       #51
      00FF5E9DH   LINE      CODE     ---       #55
      00FF5EC3H   LINE      CODE     ---       #56
      00FF5EEAH   LINE      CODE     ---       #57
      00FF5F11H   LINE      CODE     ---       #60
      00FF5F95H   LINE      CODE     ---       #61
      00FF6014H   LINE      CODE     ---       #62
      00FF6091H   LINE      CODE     ---       #63
      00FF6110H   LINE      CODE     ---       #66
      00FF6194H   LINE      CODE     ---       #67
      00FF61A5H   LINE      CODE     ---       #68
      00FF61C3H   LINE      CODE     ---       #69
      00FF61E1H   LINE      CODE     ---       #70
      00FF61FFH   LINE      CODE     ---       #71
      00FF621DH   LINE      CODE     ---       #74
      00FF62DDH   LINE      CODE     ---       #75
      00FF633FH   LINE      CODE     ---       #76
      00FF63FFH   LINE      CODE     ---       #77
      ---         BLOCKEND  ---      ---       LVL=0

      ---         MODULE    ---      ---       StateMachine
      00FF01CEH   PUBLIC    CODE     ---       StateUpdate
      00011434H   PUBLIC    XDATA    INT       State
      00011436H   PUBLIC    XDATA    INT       preState
      00FFEA14H   PUBLIC    HCONST   ---       Event_Emergency
      00FFEA20H   PUBLIC    HCONST   ---       Event_Finish
      00FFEA2CH   PUBLIC    HCONST   ---       Event_Restart

      00FF01CEH   BLOCK     CODE     ---       LVL=0
      00011438H   SYMBOL    XDATA    ---       Event
      00FF01CEH   LINE      CODE     ---       #25
      00FF01D8H   LINE      CODE     ---       #27
      00FF01E4H   LINE      CODE     ---       #29
      00FF0201H   LINE      CODE     ---       #31
      00FF0219H   LINE      CODE     ---       #32
      ---         BLOCKEND  ---      ---       LVL=0

      ---         MODULE    ---      ---       qspi
      00FFB346H   PUBLIC    CODE     ---       QSPI_READ_INSTR_SDATA
      00FFCC7DH   PUBLIC    CODE     ---       QSPI_WRITE_INSTR
      00FF9B48H   PUBLIC    CODE     ---       QSPI_READ_INSTR_SADDR24_DUMMY_QDATA
      00FFA0BCH   PUBLIC    CODE     ---       QSPI_WRITE_INSTR_SADDR24_QDATA
      00FFBD32H   PUBLIC    CODE     ---       QSPI_WRITE_INSTR_SADDR8
      00FFC66DH   PUBLIC    CODE     ---       QSPI_Init
      00FFB9A2H   PUBLIC    CODE     ---       QSPI_WRITE_INSTR_SADDR24
      00FFBC09H   PUBLIC    CODE     ---       QSPI_WRITE_INSTR_SADDR16
      00010FA2H   PUBLIC    XDATA    BYTE      ?QSPI_READ_INSTR_SADDR24_SDATA?BYTE
      00010E9EH   PUBLIC    XDATA    BYTE      ?QSPI_READ_INSTR_SADDR24_DUMMY_SDATA?BYTE
      00010FADH   PUBLIC    XDATA    BYTE      ?QSPI_DMA_READ_INSTR_SADDR24_SDATA?BYTE
      00010EAAH   PUBLIC    XDATA    BYTE      ?QSPI_DMA_READ_INSTR_SADDR24_DUMMY_SDATA?BYTE
L251 LINKER/LOCATER V4.66.93.0                                                        05/05/2025  21:49:10  PAGE 126


      00010FB8H   PUBLIC    XDATA    BYTE      ?QSPI_READ_INSTR_SADDR32_SDATA?BYTE
      00010EB6H   PUBLIC    XDATA    BYTE      ?QSPI_READ_INSTR_SADDR32_DUMMY_SDATA?BYTE
      00010FC3H   PUBLIC    XDATA    BYTE      ?QSPI_DMA_READ_INSTR_SADDR32_SDATA?BYTE
      00010EC2H   PUBLIC    XDATA    BYTE      ?QSPI_DMA_READ_INSTR_SADDR32_DUMMY_SDATA?BYTE
      00010ECEH   PUBLIC    XDATA    BYTE      ?QSPI_READ_INSTR_DADDR24_DALT8_DDATA?BYTE
      00010EDAH   PUBLIC    XDATA    BYTE      ?QSPI_DMA_READ_INSTR_DADDR24_DALT8_DDATA?BYTE
      00010EE6H   PUBLIC    XDATA    BYTE      ?QSPI_READ_INSTR_DADDR32_DALT8_DDATA?BYTE
      00010EF2H   PUBLIC    XDATA    BYTE      ?QSPI_DMA_READ_INSTR_DADDR32_DALT8_DDATA?BYTE
      00010EFEH   PUBLIC    XDATA    BYTE      ?QSPI_READ_INSTR_SADDR24_DUMMY_DDATA?BYTE
      00010F0AH   PUBLIC    XDATA    BYTE      ?QSPI_DMA_READ_INSTR_SADDR24_DUMMY_DDATA?BYTE
      00010F16H   PUBLIC    XDATA    BYTE      ?QSPI_READ_INSTR_SADDR24_DUMMY_QDATA?BYTE
      00010F22H   PUBLIC    XDATA    BYTE      ?QSPI_DMA_READ_INSTR_SADDR24_DUMMY_QDATA?BYTE
      00010F2EH   PUBLIC    XDATA    BYTE      ?QSPI_READ_INSTR_SADDR32_DUMMY_DDATA?BYTE
      00010F3AH   PUBLIC    XDATA    BYTE      ?QSPI_DMA_READ_INSTR_SADDR32_DUMMY_DDATA?BYTE
      00010F46H   PUBLIC    XDATA    BYTE      ?QSPI_READ_INSTR_SADDR32_DUMMY_QDATA?BYTE
      00010F52H   PUBLIC    XDATA    BYTE      ?QSPI_DMA_READ_INSTR_SADDR32_DUMMY_QDATA?BYTE
      00010D78H   PUBLIC    XDATA    BYTE      ?QSPI_READ_INSTR_QADDR24_QALT8_DUMMY_QDATA?BYTE
      00010D85H   PUBLIC    XDATA    BYTE      ?QSPI_DMA_READ_INSTR_QADDR24_QALT8_DUMMY_QDATA?BYTE
      00010D92H   PUBLIC    XDATA    BYTE      ?QSPI_READ_INSTR_QADDR32_QALT8_DUMMY_QDATA?BYTE
      00010D9FH   PUBLIC    XDATA    BYTE      ?QSPI_DMA_READ_INSTR_QADDR32_QALT8_DUMMY_QDATA?BYTE
      00010FCEH   PUBLIC    XDATA    BYTE      ?QSPI_WRITE_INSTR_SADDR24_SDATA?BYTE
      00010FD9H   PUBLIC    XDATA    BYTE      ?QSPI_DMA_WRITE_INSTR_SADDR24_SDATA?BYTE
      00010FE4H   PUBLIC    XDATA    BYTE      ?QSPI_WRITE_INSTR_SADDR24_QDATA?BYTE
      00010FEFH   PUBLIC    XDATA    BYTE      ?QSPI_DMA_WRITE_INSTR_SADDR24_QDATA?BYTE
      00010FFAH   PUBLIC    XDATA    BYTE      ?QSPI_WRITE_INSTR_SADDR32_SDATA?BYTE
      00011005H   PUBLIC    XDATA    BYTE      ?QSPI_DMA_WRITE_INSTR_SADDR32_SDATA?BYTE
      00011010H   PUBLIC    XDATA    BYTE      ?QSPI_WRITE_INSTR_SADDR32_QDATA?BYTE
      0001101BH   PUBLIC    XDATA    BYTE      ?QSPI_DMA_WRITE_INSTR_SADDR32_QDATA?BYTE
      00010F5EH   PUBLIC    XDATA    BYTE      ?QSPI_READ_QINSTR_QADDR24_DUMMY_QDATA?BYTE
      00010F6AH   PUBLIC    XDATA    BYTE      ?QSPI_DMA_READ_QINSTR_QADDR24_DUMMY_QDATA?BYTE
      00010DACH   PUBLIC    XDATA    BYTE      ?QSPI_READ_QINSTR_QADDR24_QALT8_DUMMY_QDATA?BYTE
      00010DB9H   PUBLIC    XDATA    BYTE      ?QSPI_DMA_READ_QINSTR_QADDR24_QALT8_DUMMY_QDATA?BYTE
      00011026H   PUBLIC    XDATA    BYTE      ?QSPI_READ_QINSTR_QADDR24_QDATA?BYTE
      000000D0H   SFRSYM    DATA     BYTE      PSW
      0000009DH   SFRSYM    DATA     BYTE      IRCBAND
      00000097H   SFRSYM    DATA     BYTE      AUXR2
      000000EFH   SFRSYM    DATA     BYTE      AUXINTIF
      000000FDH   SFRSYM    DATA     BYTE      S4CON
      000000ACH   SFRSYM    DATA     BYTE      S3CON
      0000009AH   SFRSYM    DATA     BYTE      S2CON
      000000B7H   SFRSYM    DATA     BYTE      IPH
      000000CDH   SFRSYM    DATA     BYTE      SPSTAT
      00000090H.7 SFRSYM    DATA     BIT       SCK
      000000DDH   SFRSYM    DATA     BYTE      T4T3M
      000000C1H   SFRSYM    DATA     BYTE      WDT_CONTR
      00000090H.3 SFRSYM    DATA     BIT       WP_IO2
      000000DFH   SFRSYM    DATA     BYTE      IP3
      000000F4H   SFRSYM    DATA     BYTE      USBCON
      000000B5H   SFRSYM    DATA     BYTE      IP2
      000000FFH   SFRSYM    DATA     BYTE      RSTCFG
      000000E0H   SFRSYM    DATA     BYTE      ACC
      000000C7H   SFRSYM    DATA     BYTE      IAP_CONTR
      0000008EH   SFRSYM    DATA     BYTE      AUXR
      000000AFH   SFRSYM    DATA     BYTE      IE2
      00000088H   SFRSYM    DATA     BYTE      TCON
      00000089H   SFRSYM    DATA     BYTE      TMOD
      00000098H   SFRSYM    DATA     BYTE      SCON
      00000087H   SFRSYM    DATA     BYTE      PCON
      000000BCH   SFRSYM    DATA     BYTE      ADC_CONTR
      000000D1H   SFRSYM    DATA     BYTE      PSW1
      000000E7H   SFRSYM    DATA     BYTE      CMPCR2
      000000E6H   SFRSYM    DATA     BYTE      CMPCR1
      000000DEH   SFRSYM    DATA     BYTE      ADCCFG
      000000B8H   SFRSYM    DATA     BYTE      IP
      0000008FH   SFRSYM    DATA     BYTE      INTCLKO
L251 LINKER/LOCATER V4.66.93.0                                                        05/05/2025  21:49:10  PAGE 127


      00000090H.4 SFRSYM    DATA     BIT       CS
      000000EEH   SFRSYM    DATA     BYTE      IP3H
      000000B6H   SFRSYM    DATA     BYTE      IP2H
      00000090H.6 SFRSYM    DATA     BIT       SDO_IO1
      000000BFH   SFRSYM    DATA     BYTE      P_SW4
      000000A8H   SFRSYM    DATA     BYTE      IE
      000000BBH   SFRSYM    DATA     BYTE      P_SW3
      000000BAH   SFRSYM    DATA     BYTE      P_SW2
      000000A2H   SFRSYM    DATA     BYTE      P_SW1
      00000090H.5 SFRSYM    DATA     BIT       SDI_IO0
      000000CEH   SFRSYM    DATA     BYTE      SPCTL
      000000F8H   SFRSYM    DATA     BYTE      P7
      000000E8H   SFRSYM    DATA     BYTE      P6
      000000C8H   SFRSYM    DATA     BYTE      P5
      00000090H.2 SFRSYM    DATA     BIT       HLD_IO3
      000000C0H   SFRSYM    DATA     BYTE      P4
      000000ABH   SFRSYM    DATA     BYTE      WKTCH
      000000B0H   SFRSYM    DATA     BYTE      P3
      000000A0H   SFRSYM    DATA     BYTE      P2
      00000090H   SFRSYM    DATA     BYTE      P1
      00000080H   SFRSYM    DATA     BYTE      P0
      00000091H   SFRSYM    DATA     BYTE      P1M1
      00000092H   SFRSYM    DATA     BYTE      P1M0

      00FFC66DH   BLOCK     CODE     ---       LVL=0
      00FFC66DH   LINE      CODE     ---       #24
      00FFC66DH   LINE      CODE     ---       #38
      00FFC670H   LINE      CODE     ---       #39
      00FFC673H   LINE      CODE     ---       #40
      00FFC683H   LINE      CODE     ---       #41
      00FFC693H   LINE      CODE     ---       #42
      00FFC6A3H   LINE      CODE     ---       #43
      00FFC6A6H   LINE      CODE     ---       #46
      00FFC6A8H   LINE      CODE     ---       #47
      00FFC6AAH   LINE      CODE     ---       #48
      00FFC6ACH   LINE      CODE     ---       #49
      00FFC6AEH   LINE      CODE     ---       #50
      00FFC6B0H   LINE      CODE     ---       #51
      00FFC6B2H   LINE      CODE     ---       #53
      00FFC6C0H   LINE      CODE     ---       #55
      00FFC6CCH   LINE      CODE     ---       #56
      00FFC6D8H   LINE      CODE     ---       #57
      00FFC6E5H   LINE      CODE     ---       #58
      00FFC6F1H   LINE      CODE     ---       #59
      00FFC6FEH   LINE      CODE     ---       #60
      00FFC718H   LINE      CODE     ---       #61
      00FFC728H   LINE      CODE     ---       #62
      00FFC735H   LINE      CODE     ---       #63
      00FFC745H   LINE      CODE     ---       #65
      00FFC755H   LINE      CODE     ---       #66
      ---         BLOCKEND  ---      ---       LVL=0

      00FFCC7DH   BLOCK     CODE     ---       LVL=0
      000114CBH   SYMBOL    XDATA    BYTE      cmd
      00FFCC7DH   LINE      CODE     ---       #68
      00FFCC81H   LINE      CODE     ---       #70
      00FFCC8FH   LINE      CODE     ---       #72
      00FFCC9FH   LINE      CODE     ---       #73
      00FFCCB7H   LINE      CODE     ---       #74
      00FFCCD1H   LINE      CODE     ---       #75
      00FFCCE1H   LINE      CODE     ---       #76
      00FFCCF1H   LINE      CODE     ---       #77
      00FFCD01H   LINE      CODE     ---       #78
      00FFCD10H   LINE      CODE     ---       #80
      00FFCD1EH   LINE      CODE     ---       #81
L251 LINKER/LOCATER V4.66.93.0                                                        05/05/2025  21:49:10  PAGE 128


      00FFCD2BH   LINE      CODE     ---       #82
      ---         BLOCKEND  ---      ---       LVL=0

      00FFB346H   BLOCK     CODE     ---       LVL=0
      000112FBH   SYMBOL    XDATA    BYTE      cmd
      000112FCH   SYMBOL    XDATA    ---       pdat
      00011300H   SYMBOL    XDATA    WORD      datalen
      00FFB346H   LINE      CODE     ---       #84
      00FFB35AH   LINE      CODE     ---       #86
      00FFB368H   LINE      CODE     ---       #88
      00FFB382H   LINE      CODE     ---       #89
      00FFB3ACH   LINE      CODE     ---       #90
      00FFB3C4H   LINE      CODE     ---       #91
      00FFB3DEH   LINE      CODE     ---       #92
      00FFB3EEH   LINE      CODE     ---       #93
      00FFB3FEH   LINE      CODE     ---       #94
      00FFB418H   LINE      CODE     ---       #95
      00FFB427H   LINE      CODE     ---       #97
      00FFB435H   LINE      CODE     ---       #98
      00FFB442H   LINE      CODE     ---       #100
      00FFB444H   LINE      CODE     ---       #102
      00FFB45FH   LINE      CODE     ---       #103
      00FFB472H   LINE      CODE     ---       #104
      00FFB47DH   LINE      CODE     ---       #105
      00FFB487H   LINE      CODE     ---       #107
      00FFB489H   LINE      CODE     ---       #108
      00FFB4A5H   LINE      CODE     ---       #109
      ---         BLOCKEND  ---      ---       LVL=0

      00FFBD32H   BLOCK     CODE     ---       LVL=0
      000114B0H   SYMBOL    XDATA    BYTE      cmd
      000114B1H   SYMBOL    XDATA    BYTE      addr
      00FFBD32H   LINE      CODE     ---       #111
      00FFBD3CH   LINE      CODE     ---       #113
      00FFBD4AH   LINE      CODE     ---       #115
      00FFBD5AH   LINE      CODE     ---       #116
      00FFBD72H   LINE      CODE     ---       #117
      00FFBD8AH   LINE      CODE     ---       #118
      00FFBDA4H   LINE      CODE     ---       #119
      00FFBDBEH   LINE      CODE     ---       #120
      00FFBDCEH   LINE      CODE     ---       #121
      00FFBDDEH   LINE      CODE     ---       #122
      00FFBDEDH   LINE      CODE     ---       #123
      00FFBE3BH   LINE      CODE     ---       #125
      00FFBE49H   LINE      CODE     ---       #126
      00FFBE56H   LINE      CODE     ---       #127
      ---         BLOCKEND  ---      ---       LVL=0

      00FFBC09H   BLOCK     CODE     ---       LVL=0
      0001149DH   SYMBOL    XDATA    BYTE      cmd
      0001149EH   SYMBOL    XDATA    WORD      addr
      00FFBC09H   LINE      CODE     ---       #129
      00FFBC13H   LINE      CODE     ---       #131
      00FFBC21H   LINE      CODE     ---       #133
      00FFBC31H   LINE      CODE     ---       #134
      00FFBC4BH   LINE      CODE     ---       #135
      00FFBC63H   LINE      CODE     ---       #136
      00FFBC7DH   LINE      CODE     ---       #137
      00FFBC97H   LINE      CODE     ---       #138
      00FFBCA7H   LINE      CODE     ---       #139
      00FFBCB7H   LINE      CODE     ---       #140
      00FFBCC6H   LINE      CODE     ---       #141
      00FFBD16H   LINE      CODE     ---       #143
      00FFBD24H   LINE      CODE     ---       #144
      00FFBD31H   LINE      CODE     ---       #145
L251 LINKER/LOCATER V4.66.93.0                                                        05/05/2025  21:49:10  PAGE 129


      ---         BLOCKEND  ---      ---       LVL=0

      00FFB9A2H   BLOCK     CODE     ---       LVL=0
      000113A4H   SYMBOL    XDATA    BYTE      cmd
      000113A5H   SYMBOL    XDATA    DWORD     addr
      00FFB9A2H   LINE      CODE     ---       #147
      00FFB9B0H   LINE      CODE     ---       #149
      00FFB9BEH   LINE      CODE     ---       #151
      00FFB9CEH   LINE      CODE     ---       #152
      00FFB9E8H   LINE      CODE     ---       #153
      00FFBA00H   LINE      CODE     ---       #154
      00FFBA1AH   LINE      CODE     ---       #155
      00FFBA34H   LINE      CODE     ---       #156
      00FFBA44H   LINE      CODE     ---       #157
      00FFBA54H   LINE      CODE     ---       #158
      00FFBA63H   LINE      CODE     ---       #159
      00FFBABDH   LINE      CODE     ---       #161
      00FFBACBH   LINE      CODE     ---       #162
      00FFBAD8H   LINE      CODE     ---       #163
      ---         BLOCKEND  ---      ---       LVL=0
      000113A9H   SYMBOL    XDATA    BYTE      cmd
      000113AAH   SYMBOL    XDATA    DWORD     addr
      000113AEH   SYMBOL    XDATA    BYTE      cmd
      000113AFH   SYMBOL    XDATA    DWORD     addr
      00010FA2H   SYMBOL    XDATA    BYTE      cmd
      00010FA3H   SYMBOL    XDATA    DWORD     addr
      00010FA7H   SYMBOL    XDATA    ---       pdat
      00010FABH   SYMBOL    XDATA    WORD      datalen
      00010E9EH   SYMBOL    XDATA    BYTE      cmd
      00010E9FH   SYMBOL    XDATA    DWORD     addr
      00010EA3H   SYMBOL    XDATA    BYTE      dcyc
      00010EA4H   SYMBOL    XDATA    ---       pdat
      00010EA8H   SYMBOL    XDATA    WORD      datalen
      00010FADH   SYMBOL    XDATA    BYTE      cmd
      00010FAEH   SYMBOL    XDATA    DWORD     addr
      00010FB2H   SYMBOL    XDATA    ---       pdat
      00010FB6H   SYMBOL    XDATA    WORD      datalen
      00010EAAH   SYMBOL    XDATA    BYTE      cmd
      00010EABH   SYMBOL    XDATA    DWORD     addr
      00010EAFH   SYMBOL    XDATA    BYTE      dcyc
      00010EB0H   SYMBOL    XDATA    ---       pdat
      00010EB4H   SYMBOL    XDATA    WORD      datalen
      00010FB8H   SYMBOL    XDATA    BYTE      cmd
      00010FB9H   SYMBOL    XDATA    DWORD     addr
      00010FBDH   SYMBOL    XDATA    ---       pdat
      00010FC1H   SYMBOL    XDATA    WORD      datalen
      00010EB6H   SYMBOL    XDATA    BYTE      cmd
      00010EB7H   SYMBOL    XDATA    DWORD     addr
      00010EBBH   SYMBOL    XDATA    BYTE      dcyc
      00010EBCH   SYMBOL    XDATA    ---       pdat
      00010EC0H   SYMBOL    XDATA    WORD      datalen
      00010FC3H   SYMBOL    XDATA    BYTE      cmd
      00010FC4H   SYMBOL    XDATA    DWORD     addr
      00010FC8H   SYMBOL    XDATA    ---       pdat
      00010FCCH   SYMBOL    XDATA    WORD      datalen
      00010EC2H   SYMBOL    XDATA    BYTE      cmd
      00010EC3H   SYMBOL    XDATA    DWORD     addr
      00010EC7H   SYMBOL    XDATA    BYTE      dcyc
      00010EC8H   SYMBOL    XDATA    ---       pdat
      00010ECCH   SYMBOL    XDATA    WORD      datalen
      00010ECEH   SYMBOL    XDATA    BYTE      cmd
      00010ECFH   SYMBOL    XDATA    DWORD     addr
      00010ED3H   SYMBOL    XDATA    BYTE      alt
      00010ED4H   SYMBOL    XDATA    ---       pdat
      00010ED8H   SYMBOL    XDATA    WORD      datalen
L251 LINKER/LOCATER V4.66.93.0                                                        05/05/2025  21:49:10  PAGE 130


      00010EDAH   SYMBOL    XDATA    BYTE      cmd
      00010EDBH   SYMBOL    XDATA    DWORD     addr
      00010EDFH   SYMBOL    XDATA    BYTE      alt
      00010EE0H   SYMBOL    XDATA    ---       pdat
      00010EE4H   SYMBOL    XDATA    WORD      datalen
      00010EE6H   SYMBOL    XDATA    BYTE      cmd
      00010EE7H   SYMBOL    XDATA    DWORD     addr
      00010EEBH   SYMBOL    XDATA    BYTE      alt
      00010EECH   SYMBOL    XDATA    ---       pdat
      00010EF0H   SYMBOL    XDATA    WORD      datalen
      00010EF2H   SYMBOL    XDATA    BYTE      cmd
      00010EF3H   SYMBOL    XDATA    DWORD     addr
      00010EF7H   SYMBOL    XDATA    BYTE      alt
      00010EF8H   SYMBOL    XDATA    ---       pdat
      00010EFCH   SYMBOL    XDATA    WORD      datalen
      00010EFEH   SYMBOL    XDATA    BYTE      cmd
      00010EFFH   SYMBOL    XDATA    DWORD     addr
      00010F03H   SYMBOL    XDATA    BYTE      dcyc
      00010F04H   SYMBOL    XDATA    ---       pdat
      00010F08H   SYMBOL    XDATA    WORD      datalen
      00010F0AH   SYMBOL    XDATA    BYTE      cmd
      00010F0BH   SYMBOL    XDATA    DWORD     addr
      00010F0FH   SYMBOL    XDATA    BYTE      dcyc
      00010F10H   SYMBOL    XDATA    ---       pdat
      00010F14H   SYMBOL    XDATA    WORD      datalen

      00FF9B48H   BLOCK     CODE     ---       LVL=0
      00010F16H   SYMBOL    XDATA    BYTE      cmd
      00010F17H   SYMBOL    XDATA    DWORD     addr
      00010F1BH   SYMBOL    XDATA    BYTE      dcyc
      00010F1CH   SYMBOL    XDATA    ---       pdat
      00010F20H   SYMBOL    XDATA    WORD      datalen
      00FF9B48H   LINE      CODE     ---       #474
      00FF9B62H   LINE      CODE     ---       #476
      00FF9B70H   LINE      CODE     ---       #478
      00FF9B8AH   LINE      CODE     ---       #479
      00FF9BB4H   LINE      CODE     ---       #480
      00FF9BCEH   LINE      CODE     ---       #481
      00FF9BF6H   LINE      CODE     ---       #482
      00FF9C10H   LINE      CODE     ---       #483
      00FF9C2AH   LINE      CODE     ---       #484
      00FF9C3AH   LINE      CODE     ---       #485
      00FF9C4AH   LINE      CODE     ---       #486
      00FF9C59H   LINE      CODE     ---       #487
      00FF9CB3H   LINE      CODE     ---       #489
      00FF9CC1H   LINE      CODE     ---       #490
      00FF9CCEH   LINE      CODE     ---       #492
      00FF9CD0H   LINE      CODE     ---       #494
      00FF9CEBH   LINE      CODE     ---       #495
      00FF9CFEH   LINE      CODE     ---       #496
      00FF9D09H   LINE      CODE     ---       #497
      00FF9D13H   LINE      CODE     ---       #499
      00FF9D15H   LINE      CODE     ---       #500
      00FF9D31H   LINE      CODE     ---       #501
      ---         BLOCKEND  ---      ---       LVL=0
      00010F22H   SYMBOL    XDATA    BYTE      cmd
      00010F23H   SYMBOL    XDATA    DWORD     addr
      00010F27H   SYMBOL    XDATA    BYTE      dcyc
      00010F28H   SYMBOL    XDATA    ---       pdat
      00010F2CH   SYMBOL    XDATA    WORD      datalen
      00010F2EH   SYMBOL    XDATA    BYTE      cmd
      00010F2FH   SYMBOL    XDATA    DWORD     addr
      00010F33H   SYMBOL    XDATA    BYTE      dcyc
      00010F34H   SYMBOL    XDATA    ---       pdat
      00010F38H   SYMBOL    XDATA    WORD      datalen
L251 LINKER/LOCATER V4.66.93.0                                                        05/05/2025  21:49:10  PAGE 131


      00010F3AH   SYMBOL    XDATA    BYTE      cmd
      00010F3BH   SYMBOL    XDATA    DWORD     addr
      00010F3FH   SYMBOL    XDATA    BYTE      dcyc
      00010F40H   SYMBOL    XDATA    ---       pdat
      00010F44H   SYMBOL    XDATA    WORD      datalen
      00010F46H   SYMBOL    XDATA    BYTE      cmd
      00010F47H   SYMBOL    XDATA    DWORD     addr
      00010F4BH   SYMBOL    XDATA    BYTE      dcyc
      00010F4CH   SYMBOL    XDATA    ---       pdat
      00010F50H   SYMBOL    XDATA    WORD      datalen
      00010F52H   SYMBOL    XDATA    BYTE      cmd
      00010F53H   SYMBOL    XDATA    DWORD     addr
      00010F57H   SYMBOL    XDATA    BYTE      dcyc
      00010F58H   SYMBOL    XDATA    ---       pdat
      00010F5CH   SYMBOL    XDATA    WORD      datalen
      00010D78H   SYMBOL    XDATA    BYTE      cmd
      00010D79H   SYMBOL    XDATA    DWORD     addr
      00010D7DH   SYMBOL    XDATA    BYTE      alt
      00010D7EH   SYMBOL    XDATA    BYTE      dcyc
      00010D7FH   SYMBOL    XDATA    ---       pdat
      00010D83H   SYMBOL    XDATA    WORD      datalen
      00010D85H   SYMBOL    XDATA    BYTE      cmd
      00010D86H   SYMBOL    XDATA    DWORD     addr
      00010D8AH   SYMBOL    XDATA    BYTE      alt
      00010D8BH   SYMBOL    XDATA    BYTE      dcyc
      00010D8CH   SYMBOL    XDATA    ---       pdat
      00010D90H   SYMBOL    XDATA    WORD      datalen
      00010D92H   SYMBOL    XDATA    BYTE      cmd
      00010D93H   SYMBOL    XDATA    DWORD     addr
      00010D97H   SYMBOL    XDATA    BYTE      alt
      00010D98H   SYMBOL    XDATA    BYTE      dcyc
      00010D99H   SYMBOL    XDATA    ---       pdat
      00010D9DH   SYMBOL    XDATA    WORD      datalen
      00010D9FH   SYMBOL    XDATA    BYTE      cmd
      00010DA0H   SYMBOL    XDATA    DWORD     addr
      00010DA4H   SYMBOL    XDATA    BYTE      alt
      00010DA5H   SYMBOL    XDATA    BYTE      dcyc
      00010DA6H   SYMBOL    XDATA    ---       pdat
      00010DAAH   SYMBOL    XDATA    WORD      datalen
      00010FCEH   SYMBOL    XDATA    BYTE      cmd
      00010FCFH   SYMBOL    XDATA    DWORD     addr
      00010FD3H   SYMBOL    XDATA    ---       pdat
      00010FD7H   SYMBOL    XDATA    WORD      datalen
      00010FD9H   SYMBOL    XDATA    BYTE      cmd
      00010FDAH   SYMBOL    XDATA    DWORD     addr
      00010FDEH   SYMBOL    XDATA    ---       pdat
      00010FE2H   SYMBOL    XDATA    WORD      datalen

      00FFA0BCH   BLOCK     CODE     ---       LVL=0
      00010FE4H   SYMBOL    XDATA    BYTE      cmd
      00010FE5H   SYMBOL    XDATA    DWORD     addr
      00010FE9H   SYMBOL    XDATA    ---       pdat
      00010FEDH   SYMBOL    XDATA    WORD      datalen
      00FFA0BCH   LINE      CODE     ---       #772
      00FFA0D4H   LINE      CODE     ---       #774
      00FFA0E2H   LINE      CODE     ---       #776
      00FFA0F2H   LINE      CODE     ---       #777
      00FFA11CH   LINE      CODE     ---       #778
      00FFA136H   LINE      CODE     ---       #779
      00FFA14EH   LINE      CODE     ---       #780
      00FFA168H   LINE      CODE     ---       #781
      00FFA182H   LINE      CODE     ---       #782
      00FFA192H   LINE      CODE     ---       #783
      00FFA1A2H   LINE      CODE     ---       #784
      00FFA1B1H   LINE      CODE     ---       #785
L251 LINKER/LOCATER V4.66.93.0                                                        05/05/2025  21:49:10  PAGE 132


      00FFA20BH   LINE      CODE     ---       #787
      00FFA20DH   LINE      CODE     ---       #789
      00FFA225H   LINE      CODE     ---       #790
      00FFA238H   LINE      CODE     ---       #791
      00FFA243H   LINE      CODE     ---       #792
      00FFA24DH   LINE      CODE     ---       #794
      00FFA25BH   LINE      CODE     ---       #795
      00FFA268H   LINE      CODE     ---       #796
      ---         BLOCKEND  ---      ---       LVL=0
      00010FEFH   SYMBOL    XDATA    BYTE      cmd
      00010FF0H   SYMBOL    XDATA    DWORD     addr
      00010FF4H   SYMBOL    XDATA    ---       pdat
      00010FF8H   SYMBOL    XDATA    WORD      datalen
      00010FFAH   SYMBOL    XDATA    BYTE      cmd
      00010FFBH   SYMBOL    XDATA    DWORD     addr
      00010FFFH   SYMBOL    XDATA    ---       pdat
      00011003H   SYMBOL    XDATA    WORD      datalen
      00011005H   SYMBOL    XDATA    BYTE      cmd
      00011006H   SYMBOL    XDATA    DWORD     addr
      0001100AH   SYMBOL    XDATA    ---       pdat
      0001100EH   SYMBOL    XDATA    WORD      datalen
      00011010H   SYMBOL    XDATA    BYTE      cmd
      00011011H   SYMBOL    XDATA    DWORD     addr
      00011015H   SYMBOL    XDATA    ---       pdat
      00011019H   SYMBOL    XDATA    WORD      datalen
      0001101BH   SYMBOL    XDATA    BYTE      cmd
      0001101CH   SYMBOL    XDATA    DWORD     addr
      00011020H   SYMBOL    XDATA    ---       pdat
      00011024H   SYMBOL    XDATA    WORD      datalen
      000114CCH   SYMBOL    XDATA    BYTE      cmd
      00011302H   SYMBOL    XDATA    BYTE      cmd
      00011303H   SYMBOL    XDATA    ---       pdat
      00011307H   SYMBOL    XDATA    WORD      datalen
      000114B2H   SYMBOL    XDATA    BYTE      cmd
      000114B3H   SYMBOL    XDATA    BYTE      addr
      00010F5EH   SYMBOL    XDATA    BYTE      cmd
      00010F5FH   SYMBOL    XDATA    DWORD     addr
      00010F63H   SYMBOL    XDATA    BYTE      dcyc
      00010F64H   SYMBOL    XDATA    ---       pdat
      00010F68H   SYMBOL    XDATA    WORD      datalen
      00010F6AH   SYMBOL    XDATA    BYTE      cmd
      00010F6BH   SYMBOL    XDATA    DWORD     addr
      00010F6FH   SYMBOL    XDATA    BYTE      dcyc
      00010F70H   SYMBOL    XDATA    ---       pdat
      00010F74H   SYMBOL    XDATA    WORD      datalen
      00010DACH   SYMBOL    XDATA    BYTE      cmd
      00010DADH   SYMBOL    XDATA    DWORD     addr
      00010DB1H   SYMBOL    XDATA    BYTE      alt
      00010DB2H   SYMBOL    XDATA    BYTE      dcyc
      00010DB3H   SYMBOL    XDATA    ---       pdat
      00010DB7H   SYMBOL    XDATA    WORD      datalen
      00010DB9H   SYMBOL    XDATA    BYTE      cmd
      00010DBAH   SYMBOL    XDATA    DWORD     addr
      00010DBEH   SYMBOL    XDATA    BYTE      alt
      00010DBFH   SYMBOL    XDATA    BYTE      dcyc
      00010DC0H   SYMBOL    XDATA    ---       pdat
      00010DC4H   SYMBOL    XDATA    WORD      datalen
      000113B3H   SYMBOL    XDATA    BYTE      cmd
      000113B4H   SYMBOL    XDATA    DWORD     addr
      00011026H   SYMBOL    XDATA    BYTE      cmd
      00011027H   SYMBOL    XDATA    DWORD     addr
      0001102BH   SYMBOL    XDATA    ---       pdat
      0001102FH   SYMBOL    XDATA    WORD      datalen
      000113B8H   SYMBOL    XDATA    BYTE      cmd
      000113B9H   SYMBOL    XDATA    BYTE      mask
L251 LINKER/LOCATER V4.66.93.0                                                        05/05/2025  21:49:10  PAGE 133


      000113BAH   SYMBOL    XDATA    BYTE      match
      000113BBH   SYMBOL    XDATA    WORD      clks
      000113BDH   SYMBOL    XDATA    BYTE      cmd
      000113BEH   SYMBOL    XDATA    BYTE      mask
      000113BFH   SYMBOL    XDATA    BYTE      match
      000113C0H   SYMBOL    XDATA    WORD      clks
      00011375H   SYMBOL    XDATA    ---       pdat
      00011379H   SYMBOL    XDATA    WORD      datalen
      0001137BH   SYMBOL    XDATA    ---       pdat
      0001137FH   SYMBOL    XDATA    WORD      datalen

      ---         MODULE    ---      ---       w25qxx
      00FFE3D7H   PUBLIC    CODE     ---       W25Q_ReadSR1_05
      00FF000EH   PUBLIC    CODE     ---       W25Q_WriteEnableVSR_50
      00FFE3EDH   PUBLIC    CODE     ---       W25Q_ReadSR2_35
      00FF0014H   PUBLIC    CODE     ---       W25Q_WriteEnable_06
      00FFC295H   PUBLIC    CODE     ---       W25Q_PageProgram_32
      00FFE3C0H   PUBLIC    CODE     ---       W25Q_WriteSR2_31
      00FFE2B3H   PUBLIC    CODE     ---       W25Q_Erase4K_20
      00FF0003H   PUBLIC    CODE     ---       W25Q_WaitBusy
      00FFE12EH   PUBLIC    CODE     ---       W25Q_Enable_QE
      00FFE28BH   PUBLIC    CODE     ---       W25Q_ReadJEDECID_9F
      00FFE415H   PUBLIC    CODE     ---       W25Q_WriteSR12_01
      00FFCA64H   PUBLIC    CODE     ---       W25Q_FastRead_6B
      00011031H   PUBLIC    XDATA    BYTE      ?W25Q_ReadData_03?BYTE
      0001116AH   PUBLIC    XDATA    BYTE      ?W25Q_DMA_ReadData_03?BYTE
      0001103CH   PUBLIC    XDATA    BYTE      ?W25Q_ReadData_Addr32_13?BYTE
      00011174H   PUBLIC    XDATA    BYTE      ?W25Q_DMA_ReadData_Addr32_13?BYTE
      00011047H   PUBLIC    XDATA    BYTE      ?W25Q_FastRead_0B?BYTE
      0001117EH   PUBLIC    XDATA    BYTE      ?W25Q_DMA_FastRead_0B?BYTE
      00011052H   PUBLIC    XDATA    BYTE      ?W25Q_QPI_FastRead_0B?BYTE
      00011188H   PUBLIC    XDATA    BYTE      ?W25Q_QPI_DMA_FastRead_0B?BYTE
      0001105DH   PUBLIC    XDATA    BYTE      ?W25Q_FastRead_Addr32_0C?BYTE
      00011192H   PUBLIC    XDATA    BYTE      ?W25Q_DMA_FastRead_Addr32_0C?BYTE
      00011068H   PUBLIC    XDATA    BYTE      ?W25Q_FastRead_3B?BYTE
      0001119CH   PUBLIC    XDATA    BYTE      ?W25Q_DMA_FastRead_3B?BYTE
      00011073H   PUBLIC    XDATA    BYTE      ?W25Q_FastRead_Addr32_3C?BYTE
      000111A6H   PUBLIC    XDATA    BYTE      ?W25Q_DMA_FastRead_Addr32_3C?BYTE
      0001107EH   PUBLIC    XDATA    BYTE      ?W25Q_FastRead_6B?BYTE
      000111B0H   PUBLIC    XDATA    BYTE      ?W25Q_DMA_FastRead_6B?BYTE
      00011089H   PUBLIC    XDATA    BYTE      ?W25Q_FastRead_Addr32_6C?BYTE
      000111BAH   PUBLIC    XDATA    BYTE      ?W25Q_DMA_FastRead_Addr32_6C?BYTE
      00011094H   PUBLIC    XDATA    BYTE      ?W25Q_FastRead_BB?BYTE
      000111C4H   PUBLIC    XDATA    BYTE      ?W25Q_DMA_FastRead_BB?BYTE
      0001109FH   PUBLIC    XDATA    BYTE      ?W25Q_FastRead_Addr32_BC?BYTE
      000111CEH   PUBLIC    XDATA    BYTE      ?W25Q_DMA_FastRead_Addr32_BC?BYTE
      000110AAH   PUBLIC    XDATA    BYTE      ?W25Q_FastRead_EB?BYTE
      000111D8H   PUBLIC    XDATA    BYTE      ?W25Q_DMA_FastRead_EB?BYTE
      000110B5H   PUBLIC    XDATA    BYTE      ?W25Q_QPI_FastRead_EB?BYTE
      000111E2H   PUBLIC    XDATA    BYTE      ?W25Q_QPI_DMA_FastRead_EB?BYTE
      000110C0H   PUBLIC    XDATA    BYTE      ?W25Q_FastRead_Addr32_EC?BYTE
      000111ECH   PUBLIC    XDATA    BYTE      ?W25Q_DMA_FastRead_Addr32_EC?BYTE
      000110CBH   PUBLIC    XDATA    BYTE      ?W25Q_WordRead_E7?BYTE
      000111F6H   PUBLIC    XDATA    BYTE      ?W25Q_DMA_WordRead_E7?BYTE
      000110D6H   PUBLIC    XDATA    BYTE      ?W25Q_OctalWordRead_E3?BYTE
      00011200H   PUBLIC    XDATA    BYTE      ?W25Q_DMA_OctalWordRead_E3?BYTE
      000110E1H   PUBLIC    XDATA    BYTE      ?W25Q_PageProgram_02?BYTE
      0001120AH   PUBLIC    XDATA    BYTE      ?W25Q_DMA_PageProgram_02?BYTE
      000110ECH   PUBLIC    XDATA    BYTE      ?W25Q_PageProgram_Addr32_12?BYTE
      00011214H   PUBLIC    XDATA    BYTE      ?W25Q_DMA_PageProgram_Addr32_12?BYTE
      000110F7H   PUBLIC    XDATA    BYTE      ?W25Q_PageProgram_32?BYTE
      0001121EH   PUBLIC    XDATA    BYTE      ?W25Q_DMA_PageProgram_32?BYTE
      00011102H   PUBLIC    XDATA    BYTE      ?W25Q_PageProgram_Addr32_34?BYTE
      00011228H   PUBLIC    XDATA    BYTE      ?W25Q_DMA_PageProgram_Addr32_34?BYTE
      00000020H.3 PUBLIC    BIT      BIT       ?W25Q_Erase4K_20?BIT
L251 LINKER/LOCATER V4.66.93.0                                                        05/05/2025  21:49:10  PAGE 134


      00000020H.4 PUBLIC    BIT      BIT       ?W25Q_QPI_Erase4K_20?BIT
      00000020H.5 PUBLIC    BIT      BIT       ?W25Q_Erase4K_Addr32_21?BIT
      00000020H.6 PUBLIC    BIT      BIT       ?W25Q_Erase32K_52?BIT
      00000020H.7 PUBLIC    BIT      BIT       ?W25Q_QPI_Erase32K_52?BIT
      00000021H.0 PUBLIC    BIT      BIT       ?W25Q_Erase64K_D8?BIT
      00000021H.1 PUBLIC    BIT      BIT       ?W25Q_QPI_Erase64K_D8?BIT
      00000021H.2 PUBLIC    BIT      BIT       ?W25Q_Erase64K_Addr32_DC?BIT
      00000021H.3 PUBLIC    BIT      BIT       ?W25Q_EraseChip_C7?BIT
      00000021H.4 PUBLIC    BIT      BIT       ?W25Q_QPI_EraseChip_C7?BIT
      0001110DH   PUBLIC    XDATA    BYTE      ?W25Q_ProgramSecurityReg_42?BYTE
      00011118H   PUBLIC    XDATA    BYTE      ?W25Q_ReadSecurityReg_48?BYTE
      00011123H   PUBLIC    XDATA    BYTE      ?W25Q_QPI_BurstReadWithWrap_0C?BYTE
      000000D0H   SFRSYM    DATA     BYTE      PSW
      0000009DH   SFRSYM    DATA     BYTE      IRCBAND
      00000097H   SFRSYM    DATA     BYTE      AUXR2
      000000EFH   SFRSYM    DATA     BYTE      AUXINTIF
      000000FDH   SFRSYM    DATA     BYTE      S4CON
      000000ACH   SFRSYM    DATA     BYTE      S3CON
      0000009AH   SFRSYM    DATA     BYTE      S2CON
      000000B7H   SFRSYM    DATA     BYTE      IPH
      000000CDH   SFRSYM    DATA     BYTE      SPSTAT
      000000DDH   SFRSYM    DATA     BYTE      T4T3M
      000000C1H   SFRSYM    DATA     BYTE      WDT_CONTR
      000000DFH   SFRSYM    DATA     BYTE      IP3
      000000F4H   SFRSYM    DATA     BYTE      USBCON
      000000B5H   SFRSYM    DATA     BYTE      IP2
      000000FFH   SFRSYM    DATA     BYTE      RSTCFG
      000000C7H   SFRSYM    DATA     BYTE      IAP_CONTR
      0000008EH   SFRSYM    DATA     BYTE      AUXR
      000000AFH   SFRSYM    DATA     BYTE      IE2
      00000088H   SFRSYM    DATA     BYTE      TCON
      00000089H   SFRSYM    DATA     BYTE      TMOD
      00000098H   SFRSYM    DATA     BYTE      SCON
      00000087H   SFRSYM    DATA     BYTE      PCON
      000000BCH   SFRSYM    DATA     BYTE      ADC_CONTR
      000000D1H   SFRSYM    DATA     BYTE      PSW1
      000000E7H   SFRSYM    DATA     BYTE      CMPCR2
      000000E6H   SFRSYM    DATA     BYTE      CMPCR1
      000000DEH   SFRSYM    DATA     BYTE      ADCCFG
      000000B8H   SFRSYM    DATA     BYTE      IP
      0000008FH   SFRSYM    DATA     BYTE      INTCLKO
      000000EEH   SFRSYM    DATA     BYTE      IP3H
      000000B6H   SFRSYM    DATA     BYTE      IP2H
      000000BFH   SFRSYM    DATA     BYTE      P_SW4
      000000A8H   SFRSYM    DATA     BYTE      IE
      000000BBH   SFRSYM    DATA     BYTE      P_SW3
      000000BAH   SFRSYM    DATA     BYTE      P_SW2
      000000A2H   SFRSYM    DATA     BYTE      P_SW1
      000000CEH   SFRSYM    DATA     BYTE      SPCTL
      000000F8H   SFRSYM    DATA     BYTE      P7
      000000E8H   SFRSYM    DATA     BYTE      P6
      000000C8H   SFRSYM    DATA     BYTE      P5
      000000C0H   SFRSYM    DATA     BYTE      P4
      000000ABH   SFRSYM    DATA     BYTE      WKTCH
      000000B0H   SFRSYM    DATA     BYTE      P3
      000000A0H   SFRSYM    DATA     BYTE      P2
      00000090H   SFRSYM    DATA     BYTE      P1
      00000080H   SFRSYM    DATA     BYTE      P0

      00FF0014H   BLOCK     CODE     ---       LVL=0
      00FF0014H   LINE      CODE     ---       #7
      00FF0014H   LINE      CODE     ---       #9
      00FF0019H   LINE      CODE     ---       #10
      ---         BLOCKEND  ---      ---       LVL=0

L251 LINKER/LOCATER V4.66.93.0                                                        05/05/2025  21:49:10  PAGE 135


      00FF000EH   BLOCK     CODE     ---       LVL=0
      00FF000EH   LINE      CODE     ---       #17
      00FF000EH   LINE      CODE     ---       #19
      00FF0013H   LINE      CODE     ---       #20
      ---         BLOCKEND  ---      ---       LVL=0

      00FFE3D7H   BLOCK     CODE     ---       LVL=0
      000114CDH   SYMBOL    XDATA    BYTE      dat
      00FFE3D7H   LINE      CODE     ---       #37
      00FFE3D7H   LINE      CODE     ---       #38
      00FFE3D7H   LINE      CODE     ---       #41
      00FFE3E8H   LINE      CODE     ---       #43
      00FFE3ECH   LINE      CODE     ---       #44
      ---         BLOCKEND  ---      ---       LVL=0

      00FF0003H   BLOCK     CODE     ---       LVL=0
      00FF0003H   LINE      CODE     ---       #46
      00FF0003H   LINE      CODE     ---       #48
      00FF0009H   LINE      CODE     ---       #50
      00FF0009H   LINE      CODE     ---       #52
      ---         BLOCKEND  ---      ---       LVL=0
      000114CEH   SYMBOL    XDATA    BYTE      dat
      000114B4H   SYMBOL    XDATA    INT       n

      00FFE3EDH   BLOCK     CODE     ---       LVL=0
      000114CFH   SYMBOL    XDATA    BYTE      dat
      00FFE3EDH   LINE      CODE     ---       #68
      00FFE3EDH   LINE      CODE     ---       #69
      00FFE3EDH   LINE      CODE     ---       #72
      00FFE3FEH   LINE      CODE     ---       #74
      00FFE402H   LINE      CODE     ---       #75
      ---         BLOCKEND  ---      ---       LVL=0
      000114D0H   SYMBOL    XDATA    BYTE      dat
      000114D1H   SYMBOL    XDATA    BYTE      dat
      000114D2H   SYMBOL    XDATA    BYTE      dat
      000114D3H   SYMBOL    XDATA    BYTE      dat

      00FFE415H   BLOCK     CODE     ---       LVL=0
      000114B6H   SYMBOL    XDATA    WORD      dat
      00FFE415H   LINE      CODE     ---       #109
      00FFE41BH   LINE      CODE     ---       #111
      00FFE426H   LINE      CODE     ---       #112
      ---         BLOCKEND  ---      ---       LVL=0
      000114D4H   SYMBOL    XDATA    BYTE      dat

      00FFE3C0H   BLOCK     CODE     ---       LVL=0
      000114D5H   SYMBOL    XDATA    BYTE      dat
      00FFE3C0H   LINE      CODE     ---       #119
      00FFE3C4H   LINE      CODE     ---       #121
      00FFE3CFH   LINE      CODE     ---       #122
      00FFE3D6H   LINE      CODE     ---       #123
      ---         BLOCKEND  ---      ---       LVL=0
      000114D6H   SYMBOL    XDATA    BYTE      dat
      000114D7H   SYMBOL    XDATA    BYTE      dat
      000114D8H   SYMBOL    XDATA    BYTE      dat
      000114D9H   SYMBOL    XDATA    BYTE      dat
      000114DAH   SYMBOL    XDATA    BYTE      dat
      00011031H   SYMBOL    XDATA    DWORD     addr
      00011035H   SYMBOL    XDATA    ---       pdat
      00011039H   SYMBOL    XDATA    WORD      datalen
      0001103BH   SYMBOL    XDATA    BYTE      cnt
      0001116AH   SYMBOL    XDATA    DWORD     addr
      0001116EH   SYMBOL    XDATA    ---       pdat
      00011172H   SYMBOL    XDATA    WORD      datalen
      0001103CH   SYMBOL    XDATA    DWORD     addr
L251 LINKER/LOCATER V4.66.93.0                                                        05/05/2025  21:49:10  PAGE 136


      00011040H   SYMBOL    XDATA    ---       pdat
      00011044H   SYMBOL    XDATA    WORD      datalen
      00011046H   SYMBOL    XDATA    BYTE      cnt
      00011174H   SYMBOL    XDATA    DWORD     addr
      00011178H   SYMBOL    XDATA    ---       pdat
      0001117CH   SYMBOL    XDATA    WORD      datalen
      00011047H   SYMBOL    XDATA    DWORD     addr
      0001104BH   SYMBOL    XDATA    ---       pdat
      0001104FH   SYMBOL    XDATA    WORD      datalen
      00011051H   SYMBOL    XDATA    BYTE      cnt
      0001117EH   SYMBOL    XDATA    DWORD     addr
      00011182H   SYMBOL    XDATA    ---       pdat
      00011186H   SYMBOL    XDATA    WORD      datalen
      00011052H   SYMBOL    XDATA    DWORD     addr
      00011056H   SYMBOL    XDATA    ---       pdat
      0001105AH   SYMBOL    XDATA    WORD      datalen
      0001105CH   SYMBOL    XDATA    BYTE      cnt
      00011188H   SYMBOL    XDATA    DWORD     addr
      0001118CH   SYMBOL    XDATA    ---       pdat
      00011190H   SYMBOL    XDATA    WORD      datalen
      0001105DH   SYMBOL    XDATA    DWORD     addr
      00011061H   SYMBOL    XDATA    ---       pdat
      00011065H   SYMBOL    XDATA    WORD      datalen
      00011067H   SYMBOL    XDATA    BYTE      cnt
      00011192H   SYMBOL    XDATA    DWORD     addr
      00011196H   SYMBOL    XDATA    ---       pdat
      0001119AH   SYMBOL    XDATA    WORD      datalen
      00011068H   SYMBOL    XDATA    DWORD     addr
      0001106CH   SYMBOL    XDATA    ---       pdat
      00011070H   SYMBOL    XDATA    WORD      datalen
      00011072H   SYMBOL    XDATA    BYTE      cnt
      0001119CH   SYMBOL    XDATA    DWORD     addr
      000111A0H   SYMBOL    XDATA    ---       pdat
      000111A4H   SYMBOL    XDATA    WORD      datalen
      00011073H   SYMBOL    XDATA    DWORD     addr
      00011077H   SYMBOL    XDATA    ---       pdat
      0001107BH   SYMBOL    XDATA    WORD      datalen
      0001107DH   SYMBOL    XDATA    BYTE      cnt
      000111A6H   SYMBOL    XDATA    DWORD     addr
      000111AAH   SYMBOL    XDATA    ---       pdat
      000111AEH   SYMBOL    XDATA    WORD      datalen

      00FFCA64H   BLOCK     CODE     ---       LVL=0
      0001107EH   SYMBOL    XDATA    DWORD     addr
      00011082H   SYMBOL    XDATA    ---       pdat
      00011086H   SYMBOL    XDATA    WORD      datalen
      00FFCA78H   BLOCK     CODE     NEAR LAB  LVL=1
      00011088H   SYMBOL    XDATA    BYTE      cnt
      ---         BLOCKEND  ---      ---       LVL=1
      00FFCA64H   LINE      CODE     ---       #325
      00FFCA78H   LINE      CODE     ---       #326
      00FFCA78H   LINE      CODE     ---       #329
      00FFCA7BH   LINE      CODE     ---       #331
      00FFCA81H   LINE      CODE     ---       #332
      00FFCA8DH   LINE      CODE     ---       #333
      00FFCA97H   LINE      CODE     ---       #335
      00FFCAC5H   LINE      CODE     ---       #337
      00FFCAD6H   LINE      CODE     ---       #338
      00FFCAF1H   LINE      CODE     ---       #339
      00FFCB0AH   LINE      CODE     ---       #340
      00FFCB19H   LINE      CODE     ---       #341
      ---         BLOCKEND  ---      ---       LVL=0
      000111B0H   SYMBOL    XDATA    DWORD     addr
      000111B4H   SYMBOL    XDATA    ---       pdat
      000111B8H   SYMBOL    XDATA    WORD      datalen
L251 LINKER/LOCATER V4.66.93.0                                                        05/05/2025  21:49:10  PAGE 137


      00011089H   SYMBOL    XDATA    DWORD     addr
      0001108DH   SYMBOL    XDATA    ---       pdat
      00011091H   SYMBOL    XDATA    WORD      datalen
      00011093H   SYMBOL    XDATA    BYTE      cnt
      000111BAH   SYMBOL    XDATA    DWORD     addr
      000111BEH   SYMBOL    XDATA    ---       pdat
      000111C2H   SYMBOL    XDATA    WORD      datalen
      00011094H   SYMBOL    XDATA    DWORD     addr
      00011098H   SYMBOL    XDATA    ---       pdat
      0001109CH   SYMBOL    XDATA    WORD      datalen
      0001109EH   SYMBOL    XDATA    BYTE      cnt
      000111C4H   SYMBOL    XDATA    DWORD     addr
      000111C8H   SYMBOL    XDATA    ---       pdat
      000111CCH   SYMBOL    XDATA    WORD      datalen
      0001109FH   SYMBOL    XDATA    DWORD     addr
      000110A3H   SYMBOL    XDATA    ---       pdat
      000110A7H   SYMBOL    XDATA    WORD      datalen
      000110A9H   SYMBOL    XDATA    BYTE      cnt
      000111CEH   SYMBOL    XDATA    DWORD     addr
      000111D2H   SYMBOL    XDATA    ---       pdat
      000111D6H   SYMBOL    XDATA    WORD      datalen
      000110AAH   SYMBOL    XDATA    DWORD     addr
      000110AEH   SYMBOL    XDATA    ---       pdat
      000110B2H   SYMBOL    XDATA    WORD      datalen
      000110B4H   SYMBOL    XDATA    BYTE      cnt
      000111D8H   SYMBOL    XDATA    DWORD     addr
      000111DCH   SYMBOL    XDATA    ---       pdat
      000111E0H   SYMBOL    XDATA    WORD      datalen
      000110B5H   SYMBOL    XDATA    DWORD     addr
      000110B9H   SYMBOL    XDATA    ---       pdat
      000110BDH   SYMBOL    XDATA    WORD      datalen
      000110BFH   SYMBOL    XDATA    BYTE      cnt
      000111E2H   SYMBOL    XDATA    DWORD     addr
      000111E6H   SYMBOL    XDATA    ---       pdat
      000111EAH   SYMBOL    XDATA    WORD      datalen
      000110C0H   SYMBOL    XDATA    DWORD     addr
      000110C4H   SYMBOL    XDATA    ---       pdat
      000110C8H   SYMBOL    XDATA    WORD      datalen
      000110CAH   SYMBOL    XDATA    BYTE      cnt
      000111ECH   SYMBOL    XDATA    DWORD     addr
      000111F0H   SYMBOL    XDATA    ---       pdat
      000111F4H   SYMBOL    XDATA    WORD      datalen
      000110CBH   SYMBOL    XDATA    DWORD     addr
      000110CFH   SYMBOL    XDATA    ---       pdat
      000110D3H   SYMBOL    XDATA    WORD      datalen
      000110D5H   SYMBOL    XDATA    BYTE      cnt
      000111F6H   SYMBOL    XDATA    DWORD     addr
      000111FAH   SYMBOL    XDATA    ---       pdat
      000111FEH   SYMBOL    XDATA    WORD      datalen
      000110D6H   SYMBOL    XDATA    DWORD     addr
      000110DAH   SYMBOL    XDATA    ---       pdat
      000110DEH   SYMBOL    XDATA    WORD      datalen
      000110E0H   SYMBOL    XDATA    BYTE      cnt
      00011200H   SYMBOL    XDATA    DWORD     addr
      00011204H   SYMBOL    XDATA    ---       pdat
      00011208H   SYMBOL    XDATA    WORD      datalen
      000114DBH   SYMBOL    XDATA    BYTE      wrap
      000110E1H   SYMBOL    XDATA    DWORD     addr
      000110E5H   SYMBOL    XDATA    ---       pdat
      000110E9H   SYMBOL    XDATA    WORD      datalen
      000110EBH   SYMBOL    XDATA    BYTE      cnt
      0001120AH   SYMBOL    XDATA    DWORD     addr
      0001120EH   SYMBOL    XDATA    ---       pdat
      00011212H   SYMBOL    XDATA    WORD      datalen
      000110ECH   SYMBOL    XDATA    DWORD     addr
L251 LINKER/LOCATER V4.66.93.0                                                        05/05/2025  21:49:10  PAGE 138


      000110F0H   SYMBOL    XDATA    ---       pdat
      000110F4H   SYMBOL    XDATA    WORD      datalen
      000110F6H   SYMBOL    XDATA    BYTE      cnt
      00011214H   SYMBOL    XDATA    DWORD     addr
      00011218H   SYMBOL    XDATA    ---       pdat
      0001121CH   SYMBOL    XDATA    WORD      datalen

      00FFC295H   BLOCK     CODE     ---       LVL=0
      000110F7H   SYMBOL    XDATA    DWORD     addr
      000110FBH   SYMBOL    XDATA    ---       pdat
      000110FFH   SYMBOL    XDATA    WORD      datalen
      00FFC2A9H   BLOCK     CODE     NEAR LAB  LVL=1
      00011101H   SYMBOL    XDATA    BYTE      cnt
      ---         BLOCKEND  ---      ---       LVL=1
      00FFC295H   LINE      CODE     ---       #609
      00FFC2A9H   LINE      CODE     ---       #610
      00FFC2A9H   LINE      CODE     ---       #613
      00FFC2ACH   LINE      CODE     ---       #615
      00FFC2AFH   LINE      CODE     ---       #617
      00FFC2B5H   LINE      CODE     ---       #618
      00FFC2C1H   LINE      CODE     ---       #619
      00FFC2CBH   LINE      CODE     ---       #621
      00FFC2ECH   LINE      CODE     ---       #622
      00FFC305H   LINE      CODE     ---       #624
      00FFC32AH   LINE      CODE     ---       #626
      00FFC33BH   LINE      CODE     ---       #627
      00FFC356H   LINE      CODE     ---       #628
      00FFC36FH   LINE      CODE     ---       #630
      00FFC37BH   LINE      CODE     ---       #632
      00FFC382H   LINE      CODE     ---       #633
      00FFC385H   LINE      CODE     ---       #634
      00FFC394H   LINE      CODE     ---       #636
      00FFC39BH   LINE      CODE     ---       #637
      ---         BLOCKEND  ---      ---       LVL=0
      0001121EH   SYMBOL    XDATA    DWORD     addr
      00011222H   SYMBOL    XDATA    ---       pdat
      00011226H   SYMBOL    XDATA    WORD      datalen
      00011102H   SYMBOL    XDATA    DWORD     addr
      00011106H   SYMBOL    XDATA    ---       pdat
      0001110AH   SYMBOL    XDATA    WORD      datalen
      0001110CH   SYMBOL    XDATA    BYTE      cnt
      00011228H   SYMBOL    XDATA    DWORD     addr
      0001122CH   SYMBOL    XDATA    ---       pdat
      00011230H   SYMBOL    XDATA    WORD      datalen

      00FFE2B3H   BLOCK     CODE     ---       LVL=0
      0001143CH   SYMBOL    XDATA    DWORD     addr
      00000020H.3 SYMBOL    BIT      BIT       wait
      00FFE2B3H   LINE      CODE     ---       #682
      00FFE2BDH   LINE      CODE     ---       #684
      00FFE2C0H   LINE      CODE     ---       #685
      00FFE2CFH   LINE      CODE     ---       #686
      00FFE2D2H   LINE      CODE     ---       #687
      00FFE2D9H   LINE      CODE     ---       #688
      ---         BLOCKEND  ---      ---       LVL=0
      00011440H   SYMBOL    XDATA    DWORD     addr
      00000020H.4 SYMBOL    BIT      BIT       wait
      00011444H   SYMBOL    XDATA    DWORD     addr
      00000020H.5 SYMBOL    BIT      BIT       wait
      00011448H   SYMBOL    XDATA    DWORD     addr
      00000020H.6 SYMBOL    BIT      BIT       wait
      0001144CH   SYMBOL    XDATA    DWORD     addr
      00000020H.7 SYMBOL    BIT      BIT       wait
      00011450H   SYMBOL    XDATA    DWORD     addr
      00000021H.0 SYMBOL    BIT      BIT       wait
L251 LINKER/LOCATER V4.66.93.0                                                        05/05/2025  21:49:10  PAGE 139


      00011454H   SYMBOL    XDATA    DWORD     addr
      00000021H.1 SYMBOL    BIT      BIT       wait
      00011458H   SYMBOL    XDATA    DWORD     addr
      00000021H.2 SYMBOL    BIT      BIT       wait
      00000021H.3 SYMBOL    BIT      BIT       wait
      00000021H.4 SYMBOL    BIT      BIT       wait
      000114DCH   SYMBOL    XDATA    BYTE      dat
      000114DDH   SYMBOL    XDATA    BYTE      dat
      000114B8H   SYMBOL    XDATA    WORD      dat
      000114BAH   SYMBOL    XDATA    WORD      dat
      000114BCH   SYMBOL    XDATA    WORD      dat
      0001145CH   SYMBOL    XDATA    ---       pdat

      00FFE28BH   BLOCK     CODE     ---       LVL=0
      00011460H   SYMBOL    XDATA    DWORD     dat
      00FFE28BH   LINE      CODE     ---       #873
      00FFE28BH   LINE      CODE     ---       #874
      00FFE28BH   LINE      CODE     ---       #877
      00FFE297H   LINE      CODE     ---       #878
      00FFE2A8H   LINE      CODE     ---       #880
      00FFE2B2H   LINE      CODE     ---       #881
      ---         BLOCKEND  ---      ---       LVL=0
      00011464H   SYMBOL    XDATA    DWORD     dat
      000112DEH   SYMBOL    XDATA    BYTE      addr
      000112DFH   SYMBOL    XDATA    ---       pdat
      000112E3H   SYMBOL    XDATA    WORD      datalen
      000112E5H   SYMBOL    XDATA    BYTE      cnt
      00011468H   SYMBOL    XDATA    DWORD     addr
      0001110DH   SYMBOL    XDATA    DWORD     addr
      00011111H   SYMBOL    XDATA    ---       pdat
      00011115H   SYMBOL    XDATA    WORD      datalen
      00011117H   SYMBOL    XDATA    BYTE      cnt
      00011118H   SYMBOL    XDATA    DWORD     addr
      0001111CH   SYMBOL    XDATA    ---       pdat
      00011120H   SYMBOL    XDATA    WORD      datalen
      00011122H   SYMBOL    XDATA    BYTE      cnt
      000114DEH   SYMBOL    XDATA    BYTE      dat
      00011123H   SYMBOL    XDATA    DWORD     addr
      00011127H   SYMBOL    XDATA    ---       pdat
      0001112BH   SYMBOL    XDATA    WORD      datalen
      0001112DH   SYMBOL    XDATA    BYTE      cnt
      0001146CH   SYMBOL    XDATA    DWORD     addr
      00011470H   SYMBOL    XDATA    DWORD     addr
      00011474H   SYMBOL    XDATA    DWORD     addr
      00011478H   SYMBOL    XDATA    DWORD     addr
      000113C2H   SYMBOL    XDATA    DWORD     addr
      000113C6H   SYMBOL    XDATA    BYTE      dat
      000113C7H   SYMBOL    XDATA    DWORD     addr
      000113CBH   SYMBOL    XDATA    BYTE      dat

      00FFE12EH   BLOCK     CODE     ---       LVL=0
      00FFE12EH   LINE      CODE     ---       #1063
      00FFE12EH   LINE      CODE     ---       #1065
      00FFE145H   LINE      CODE     ---       #1067
      00FFE14BH   LINE      CODE     ---       #1069
      00FFE14EH   LINE      CODE     ---       #1070
      00FFE157H   LINE      CODE     ---       #1072
      00FFE15EH   LINE      CODE     ---       #1073
      00FFE160H   LINE      CODE     ---       #1076
      00FFE165H   LINE      CODE     ---       #1077
      00FFE165H   LINE      CODE     ---       #1078
      00FFE165H   LINE      CODE     ---       #1080
      ---         BLOCKEND  ---      ---       LVL=0

      ---         MODULE    ---      ---       ?C?DPADD
L251 LINKER/LOCATER V4.66.93.0                                                        05/05/2025  21:49:10  PAGE 140


      00FF2225H   PUBLIC    CODE     ---       ?C?DPADD
      00FF2221H   PUBLIC    CODE     ---       ?C?DPSUB

      ---         MODULE    ---      ---       ?C?DPMUL
      00FF2334H   PUBLIC    CODE     ---       ?C?DPMUL

      ---         MODULE    ---      ---       ?C?DPDIV
      00FF2444H   PUBLIC    CODE     ---       ?C?DPDIV

      ---         MODULE    ---      ---       ?C?DPCMP
      00FF24E5H   PUBLIC    CODE     ---       ?C?DPCMP
      00FF24E3H   PUBLIC    CODE     ---       ?C?DPCMP3

      ---         MODULE    ---      ---       ?C?DPNEG
      00FF2544H   PUBLIC    CODE     ---       ?C?DPNEG

      ---         MODULE    ---      ---       ?C?DCAST
      00FF255CH   PUBLIC    CODE     NEAR LAB  ?C?DCASTC
      00FF2557H   PUBLIC    CODE     NEAR LAB  ?C?DCASTI
      00FF2552H   PUBLIC    CODE     NEAR LAB  ?C?DCASTL

      ---         MODULE    ---      ---       ?C?CASTD
      00FF259FH   PUBLIC    CODE     NEAR LAB  ?C?CASTD

      ---         MODULE    ---      ---       ?C?DCASTF
      00FF25FFH   PUBLIC    CODE     NEAR LAB  ?C?DCASTF

      ---         MODULE    ---      ---       ?C?FCASTD
      00FF2641H   PUBLIC    CODE     NEAR LAB  ?C?FCASTD

      ---         MODULE    ---      ---       PRINTF
      00010A77H   PUBLIC    XDATA    ---       ?PRINTF?BYTE
      00FF2678H   PUBLIC    CODE     NEAR LAB  PRINTF

      ---         MODULE    ---      ---       SPRINTF
      00010A77H   PUBLIC    XDATA    ---       ?SPRINTF?BYTE
      00FF26A4H   PUBLIC    CODE     NEAR LAB  SPRINTF

      ---         MODULE    ---      ---       SQRT?_
      00FF26CAH   PUBLIC    CODE     ---       SQRT?_

      ---         MODULE    ---      ---       pow
      00FFA5BCH   PUBLIC    CODE     ---       pow?_

      ---         MODULE    ---      ---       SIN?_
      00FF2818H   PUBLIC    CODE     ---       COS?_
      00FF2839H   PUBLIC    CODE     ---       SIN?_
      00FF286EH   PUBLIC    CODE     ---       TAN?_

      ---         MODULE    ---      ---       ATAN?_
      00FF29B0H   PUBLIC    CODE     ---       ATAN?_

      ---         MODULE    ---      ---       ASIN?_
      00FF2ACBH   PUBLIC    CODE     ---       ASIN?_

      ---         MODULE    ---      ---       ?C?DPGETOPN
      00FF2AF5H   PUBLIC    CODE     ---       ?C?DPGETOPN2
      00FF2B40H   PUBLIC    CODE     ---       ?C?DPNANRESULT
      00FF2B4CH   PUBLIC    CODE     ---       ?C?DPOVERFLOW
      00FF2B18H   PUBLIC    CODE     ---       ?C?DPRESULT
      00FF2B31H   PUBLIC    CODE     ---       ?C?DPRESULT2
      00FF2B47H   PUBLIC    CODE     ---       ?C?DPUNDERFLOW

      ---         MODULE    ---      ---       _CHKDOUBLE_?_
      00FF2B5AH   PUBLIC    CODE     ---       _CHKDOUBLE_?_
L251 LINKER/LOCATER V4.66.93.0                                                        05/05/2025  21:49:10  PAGE 141



      ---         MODULE    ---      ---       ?C?PRNFMT
      00FF2BA5H   PUBLIC    CODE     ---       ?C?PRNFMT

      ---         MODULE    ---      ---       ?C?DPSERIES
      00FF2FD3H   PUBLIC    CODE     ---       ?C?DP2SERIES
      00FF2FDEH   PUBLIC    CODE     ---       ?C?DPSERIES

      ---         MODULE    ---      ---       EXP?_
      00FF30BAH   PUBLIC    CODE     ---       EXP?_

      ---         MODULE    ---      ---       LOG?_
      00FF31A3H   PUBLIC    CODE     NEAR LAB  LOG?_

      ---         MODULE    ---      ---       ?C?DPCONVERT
      00FF32BEH   PUBLIC    CODE     ---       ?C?DPCONVERT
      00FF33E5H   PUBLIC    CODE     ---       ?C?DPROUND

      ---         MODULE    ---      ---       ?C?DTNPWR
      00FF34C0H   PUBLIC    CODE     ---       ?C?DTNPWR

      ---         MODULE    ---      ---       ?C?FPGETOPN
      00FF3546H   PUBLIC    CODE     ---       ?C?FPGETOPN2
      00FF3583H   PUBLIC    CODE     ---       ?C?FPNANRESULT
      00FF358BH   PUBLIC    CODE     ---       ?C?FPOVERFLOW
      00FF355FH   PUBLIC    CODE     ---       ?C?FPRESULT
      00FF3575H   PUBLIC    CODE     ---       ?C?FPRESULT2
      00FF3588H   PUBLIC    CODE     ---       ?C?FPUNDERFLOW

      ---         MODULE    ---      ---       ?C?FPADD
      00FF359DH   PUBLIC    CODE     ---       ?C?FPADD
      00FF359AH   PUBLIC    CODE     ---       ?C?FPSUB

      ---         MODULE    ---      ---       ?C?FPMUL
      00FF3655H   PUBLIC    CODE     ---       ?C?FPMUL

      ---         MODULE    ---      ---       ?C?FPDIV
      00FF36F5H   PUBLIC    CODE     ---       ?C?FPDIV

      ---         MODULE    ---      ---       ?C?FPCMP
      00FF3778H   PUBLIC    CODE     ---       ?C?FPCMP
      00FF3776H   PUBLIC    CODE     ---       ?C?FPCMP3

      ---         MODULE    ---      ---       ?C?FPNEG
      00FF37BCH   PUBLIC    CODE     ---       ?C?FPNEG

      ---         MODULE    ---      ---       ?C?FCAST
      00FF37D4H   PUBLIC    CODE     NEAR LAB  ?C?FCASTC
      00FF37CFH   PUBLIC    CODE     NEAR LAB  ?C?FCASTI
      00FF37CAH   PUBLIC    CODE     NEAR LAB  ?C?FCASTL

      ---         MODULE    ---      ---       ?C?CASTF
      00FF3807H   PUBLIC    CODE     NEAR LAB  ?C?CASTF

      ---         MODULE    ---      ---       ?C?INITHDATA
      00FFDC86H   PUBLIC    CODE     ---       ?C?INITHDATA

      ---         MODULE    ---      ---       ?C?SCDIV
      00FF3844H   PUBLIC    CODE     ---       ?C?SCDIV

      ---         MODULE    ---      ---       ?C?SIDIV
      00FF3866H   PUBLIC    CODE     ---       ?C?SIDIV

      ---         MODULE    ---      ---       ?C?LIMUL
      00FF3898H   PUBLIC    CODE     ---       ?C?LIMUL
L251 LINKER/LOCATER V4.66.93.0                                                        05/05/2025  21:49:10  PAGE 142



      ---         MODULE    ---      ---       ?C?ULDIV
      00FF38A3H   PUBLIC    CODE     NEAR LAB  ?C?ULDIV
      00FF38A1H   PUBLIC    CODE     NEAR LAB  ?C?ULIDIV

      ---         MODULE    ---      ---       ?C?SLDIV
      00FF38F4H   PUBLIC    CODE     NEAR LAB  ?C?SLDIV

      ---         MODULE    ---      ---       ?C?BMOVEPP
      00FF392AH   PUBLIC    CODE     ---       ?C?BMOVEPP
      00FF3928H   PUBLIC    CODE     ---       ?C?BMOVEPP8

      ---         MODULE    ---      ---       STRNCMP
      00FFE166H   PUBLIC    CODE     ---       strncmp?_

      ---         MODULE    ---      ---       STRNCPY
      00FFE203H   PUBLIC    CODE     ---       strncpy?_

      ---         MODULE    ---      ---       STRLEN
      00FFE427H   PUBLIC    CODE     ---       strlen?_

      ---         MODULE    ---      ---       STRCHR
      00FFE389H   PUBLIC    CODE     ---       strchr?_

      ---         MODULE    ---      ---       memcpy
      00FFE300H   PUBLIC    CODE     ---       memcpy?_

      ---         MODULE    ---      ---       memset
      00FF00A6H   PUBLIC    CODE     ---       memset?_

      ---         MODULE    ---      ---       ?C?INITHDATA_END
      00FFE746H   PUBLIC    HCONST   WORD      ?C?INITHDATA_END

Program Size: data=9.5 edata+hdata=1792 xdata=5343 const=1613 code=58344
L251 RUN COMPLETE.  0 WARNING(S),  0 ERROR(S)
