L251 LINKER/LOCATER V4.66.93.0                                                          05/06/2025  18:54:37  PAGE 1


L251 LINKER/LOCATER V4.66.93.0, INVOKED BY:
D:\C251\C251\BIN\L251.EXE .\out_file\ai8051u_isr.obj, .\out_file\zf_common_clock.obj, .\out_file\zf_common_debug.obj, .\
>> out_file\zf_common_fifo.obj, .\out_file\zf_common_font.obj, .\out_file\zf_common_function.obj, .\out_file\zf_common_t
>> ypedef.obj, .\out_file\zf_common_interrupt.obj, .\out_file\START251.obj, .\out_file\zf_driver_adc.obj, .\out_file\zf_
>> driver_delay.obj, .\out_file\zf_driver_encoder.obj, .\out_file\zf_driver_exti.obj, .\out_file\zf_driver_gpio.obj, .\o
>> ut_file\zf_driver_pit.obj, .\out_file\zf_driver_pwm.obj, .\out_file\zf_driver_soft_iic.obj, .\out_file\zf_driver_spi.
>> obj, .\out_file\zf_driver_timer.obj, .\out_file\zf_driver_uart.obj, .\out_file\zf_device_config.obj, .\out_file\zf_de
>> vice_ips114.obj, .\out_file\zf_device_ble6a20.obj, .\out_file\zf_device_imu660ra.obj, .\out_file\zf_device_gps_tau120
>> 1.obj, .\out_file\zf_device_tsl1401.obj, .\out_file\zf_device_type.obj, .\out_file\isr.obj, .\out_file\main.obj, .\ou
>> t_file\pid.obj, .\out_file\ips114.obj, .\out_file\imu.obj, .\out_file\gps.obj, .\out_file\bluetooth.obj, .\out_file\i
>> nit.obj, .\out_file\pwm.obj, .\out_file\filter.obj, .\out_file\StateMachine.obj, .\out_file\qspi.obj, .\out_file\w25q
>> xx.obj TO .\out_file\SEEKFREE PRINT (.\out_file\SEEKFREE.map) CASE DISABLEWARNING (57, 16) REMOVEUNUSED CLASSES (EDAT
>> A (0X0-0X7FF), HDATA (0X0-0X7FF))


CPU MODE:     251 SOURCE MODE
INTR FRAME:   4 BYTES SAVED ON INTERRUPT
MEMORY MODEL: LARGE WITH DOUBLE PRECISION FLOATING POINT ARITHMETIC


INPUT MODULES INCLUDED:
  .\out_file\ai8051u_isr.obj (ai8051u_isr)
         COMMENT TYPE 0: A251 V4.69.13.0
  .\out_file\zf_common_clock.obj (zf_common_clock)
         COMMENT TYPE 0: C251 V5.60.0
  .\out_file\zf_common_debug.obj (zf_common_debug)
         COMMENT TYPE 0: C251 V5.60.0
  .\out_file\zf_common_fifo.obj (zf_common_fifo)
         COMMENT TYPE 0: C251 V5.60.0
  .\out_file\zf_common_font.obj (zf_common_font)
         COMMENT TYPE 0: C251 V5.60.0
  .\out_file\zf_common_function.obj (zf_common_function)
         COMMENT TYPE 0: C251 V5.60.0
  .\out_file\zf_common_typedef.obj (zf_common_typedef)
         COMMENT TYPE 0: C251 V5.60.0
  .\out_file\zf_common_interrupt.obj (zf_common_interrupt)
         COMMENT TYPE 0: C251 V5.60.0
  .\out_file\START251.obj (?C_START)
         COMMENT TYPE 0: A251 V4.69.13.0
  .\out_file\zf_driver_adc.obj (zf_driver_adc)
         COMMENT TYPE 0: C251 V5.60.0
  .\out_file\zf_driver_delay.obj (zf_driver_delay)
         COMMENT TYPE 0: C251 V5.60.0
  .\out_file\zf_driver_encoder.obj (zf_driver_encoder)
         COMMENT TYPE 0: C251 V5.60.0
  .\out_file\zf_driver_exti.obj (zf_driver_exti)
         COMMENT TYPE 0: C251 V5.60.0
  .\out_file\zf_driver_gpio.obj (zf_driver_gpio)
         COMMENT TYPE 0: C251 V5.60.0
  .\out_file\zf_driver_pit.obj (zf_driver_pit)
         COMMENT TYPE 0: C251 V5.60.0
  .\out_file\zf_driver_pwm.obj (zf_driver_pwm)
         COMMENT TYPE 0: C251 V5.60.0
  .\out_file\zf_driver_soft_iic.obj (zf_driver_soft_iic)
         COMMENT TYPE 0: C251 V5.60.0
  .\out_file\zf_driver_spi.obj (zf_driver_spi)
         COMMENT TYPE 0: C251 V5.60.0
  .\out_file\zf_driver_timer.obj (zf_driver_timer)
         COMMENT TYPE 0: C251 V5.60.0
  .\out_file\zf_driver_uart.obj (zf_driver_uart)
         COMMENT TYPE 0: C251 V5.60.0
  .\out_file\zf_device_config.obj (zf_device_config)
         COMMENT TYPE 0: C251 V5.60.0
  .\out_file\zf_device_ips114.obj (zf_device_ips114)
         COMMENT TYPE 0: C251 V5.60.0
  .\out_file\zf_device_ble6a20.obj (zf_device_ble6a20)
L251 LINKER/LOCATER V4.66.93.0                                                        05/06/2025  18:54:37  PAGE 2


         COMMENT TYPE 0: C251 V5.60.0
  .\out_file\zf_device_imu660ra.obj (zf_device_imu660ra)
         COMMENT TYPE 0: C251 V5.60.0
  .\out_file\zf_device_gps_tau1201.obj (zf_device_gps_tau1201)
         COMMENT TYPE 0: C251 V5.60.0
  .\out_file\zf_device_tsl1401.obj (zf_device_tsl1401)
         COMMENT TYPE 0: C251 V5.60.0
  .\out_file\zf_device_type.obj (zf_device_type)
         COMMENT TYPE 0: C251 V5.60.0
  .\out_file\isr.obj (isr)
         COMMENT TYPE 0: C251 V5.60.0
  .\out_file\main.obj (main)
         COMMENT TYPE 0: C251 V5.60.0
  .\out_file\pid.obj (pid)
         COMMENT TYPE 0: C251 V5.60.0
  .\out_file\ips114.obj (ips114)
         COMMENT TYPE 0: C251 V5.60.0
  .\out_file\imu.obj (imu)
         COMMENT TYPE 0: C251 V5.60.0
  .\out_file\gps.obj (gps)
         COMMENT TYPE 0: C251 V5.60.0
  .\out_file\bluetooth.obj (bluetooth)
         COMMENT TYPE 0: C251 V5.60.0
  .\out_file\init.obj (init)
         COMMENT TYPE 0: C251 V5.60.0
  .\out_file\pwm.obj (pwm)
         COMMENT TYPE 0: C251 V5.60.0
  .\out_file\filter.obj (filter)
         COMMENT TYPE 0: C251 V5.60.0
  .\out_file\StateMachine.obj (StateMachine)
         COMMENT TYPE 0: C251 V5.60.0
  .\out_file\qspi.obj (qspi)
         COMMENT TYPE 0: C251 V5.60.0
  .\out_file\w25qxx.obj (w25qxx)
         COMMENT TYPE 0: C251 V5.60.0
  D:\C251\C251\LIB\C2SDPL.LIB (?C?DPADD)
         COMMENT TYPE 0: A251 V4.69.6.0
  D:\C251\C251\LIB\C2SDPL.LIB (?C?DPMUL)
         COMMENT TYPE 0: A251 V4.69.6.0
  D:\C251\C251\LIB\C2SDPL.LIB (?C?DPDIV)
         COMMENT TYPE 0: A251 V4.69.6.0
  D:\C251\C251\LIB\C2SDPL.LIB (?C?DPCMP)
         COMMENT TYPE 0: A251 V4.69.6.0
  D:\C251\C251\LIB\C2SDPL.LIB (?C?DPNEG)
         COMMENT TYPE 0: A251 V4.69.6.0
  D:\C251\C251\LIB\C2SDPL.LIB (?C?DCAST)
         COMMENT TYPE 0: A251 V4.69.6.0
  D:\C251\C251\LIB\C2SDPL.LIB (?C?CASTD)
         COMMENT TYPE 0: A251 V4.69.6.0
  D:\C251\C251\LIB\C2SDPL.LIB (?C?DCASTF)
         COMMENT TYPE 0: A251 V4.69.6.0
  D:\C251\C251\LIB\C2SDPL.LIB (?C?FCASTD)
         COMMENT TYPE 0: A251 V4.69.6.0
  D:\C251\C251\LIB\C2SDPL.LIB (PRINTF)
         COMMENT TYPE 0: A251 V4.69.6.0
  D:\C251\C251\LIB\C2SDPL.LIB (SPRINTF)
         COMMENT TYPE 0: A251 V4.69.6.0
  D:\C251\C251\LIB\C2SDPL.LIB (SQRT?_)
         COMMENT TYPE 0: A251 V4.69.6.0
  D:\C251\C251\LIB\C2SDPL.LIB (pow)
         COMMENT TYPE 0: C251 V5.58.7
  D:\C251\C251\LIB\C2SDPL.LIB (SIN?_)
         COMMENT TYPE 0: A251 V4.69.6.0
  D:\C251\C251\LIB\C2SDPL.LIB (ATAN?_)
         COMMENT TYPE 0: A251 V4.69.6.0
L251 LINKER/LOCATER V4.66.93.0                                                        05/06/2025  18:54:37  PAGE 3


  D:\C251\C251\LIB\C2SDPL.LIB (ASIN?_)
         COMMENT TYPE 0: A251 V4.69.6.0
  D:\C251\C251\LIB\C2SDPL.LIB (?C?DPGETOPN)
         COMMENT TYPE 0: A251 V4.69.6.0
  D:\C251\C251\LIB\C2SDPL.LIB (_CHKDOUBLE_?_)
         COMMENT TYPE 0: A251 V4.69.6.0
  D:\C251\C251\LIB\C2SDPL.LIB (?C?PRNFMT)
         COMMENT TYPE 0: A251 V4.69.6.0
  D:\C251\C251\LIB\C2SDPL.LIB (?C?DPSERIES)
         COMMENT TYPE 0: A251 V4.69.6.0
  D:\C251\C251\LIB\C2SDPL.LIB (EXP?_)
         COMMENT TYPE 0: A251 V4.69.6.0
  D:\C251\C251\LIB\C2SDPL.LIB (LOG?_)
         COMMENT TYPE 0: A251 V4.69.6.0
  D:\C251\C251\LIB\C2SDPL.LIB (?C?DPCONVERT)
         COMMENT TYPE 0: A251 V4.69.6.0
  D:\C251\C251\LIB\C2SDPL.LIB (?C?DTNPWR)
         COMMENT TYPE 0: A251 V4.69.6.0
  D:\C251\C251\LIB\C2SFPL.LIB (?C?FPGETOPN)
         COMMENT TYPE 0: A251 V4.69.6.0
  D:\C251\C251\LIB\C2SFPL.LIB (?C?FPADD)
         COMMENT TYPE 0: A251 V4.69.6.0
  D:\C251\C251\LIB\C2SFPL.LIB (?C?FPMUL)
         COMMENT TYPE 0: A251 V4.69.6.0
  D:\C251\C251\LIB\C2SFPL.LIB (?C?FPDIV)
         COMMENT TYPE 0: A251 V4.69.6.0
  D:\C251\C251\LIB\C2SFPL.LIB (?C?FPCMP)
         COMMENT TYPE 0: A251 V4.69.6.0
  D:\C251\C251\LIB\C2SFPL.LIB (?C?FPNEG)
         COMMENT TYPE 0: A251 V4.69.6.0
  D:\C251\C251\LIB\C2SFPL.LIB (?C?FCAST)
         COMMENT TYPE 0: A251 V4.69.6.0
  D:\C251\C251\LIB\C2SFPL.LIB (?C?CASTF)
         COMMENT TYPE 0: A251 V4.69.6.0
  D:\C251\C251\LIB\C2SL.LIB (?C?INITHDATA)
         COMMENT TYPE 0: A251 V4.69.6.0
  D:\C251\C251\LIB\C2SL.LIB (?C?SCDIV)
         COMMENT TYPE 0: A251 V4.69.6.0
  D:\C251\C251\LIB\C2SL.LIB (?C?SIDIV)
         COMMENT TYPE 0: A251 V4.69.6.0
  D:\C251\C251\LIB\C2SL.LIB (?C?LIMUL)
         COMMENT TYPE 0: A251 V4.69.6.0
  D:\C251\C251\LIB\C2SL.LIB (?C?ULDIV)
         COMMENT TYPE 0: A251 V4.69.6.0
  D:\C251\C251\LIB\C2SL.LIB (?C?SLDIV)
         COMMENT TYPE 0: A251 V4.69.6.0
  D:\C251\C251\LIB\C2SL.LIB (?C?BMOVEPP)
         COMMENT TYPE 0: A251 V4.69.6.0
  D:\C251\C251\LIB\C2SL.LIB (STRNCMP)
         COMMENT TYPE 0: C251 V5.58.7
  D:\C251\C251\LIB\C2SL.LIB (STRNCPY)
         COMMENT TYPE 0: C251 V5.58.7
  D:\C251\C251\LIB\C2SL.LIB (STRLEN)
         COMMENT TYPE 0: C251 V5.58.7
  D:\C251\C251\LIB\C2SL.LIB (STRCHR)
         COMMENT TYPE 0: C251 V5.58.7
  D:\C251\C251\LIB\C2SL.LIB (memcpy)
         COMMENT TYPE 0: C251 V5.58.7
  D:\C251\C251\LIB\C2SL.LIB (memset)
         COMMENT TYPE 0: C251 V5.58.7
  D:\C251\C251\LIB\C2SL.LIB (?C?INITHDATA_END)
         COMMENT TYPE 0: A251 V4.69.6.0


ACTIVE MEMORY CLASSES OF MODULE:  .\out_file\SEEKFREE (ai8051u_isr)
L251 LINKER/LOCATER V4.66.93.0                                                        05/06/2025  18:54:37  PAGE 4



BASE        START       END         USED      MEMORY CLASS
==========================================================
000000H     000000H     0007FFH     000700H   EDATA
000000H     000000H     0007FFH               HDATA
FF0000H     FF0000H     FFFFFFH     00E95AH   CODE
010000H     010000H     01FFFFH     00152BH   XDATA
000000H     FF0000H     FFFFFFH     000671H   HCONST
000020H.0   000020H.0   00002FH.7   000001H.5 BIT
FF0000H     FF0000H     FFFFFFH     000004H   CONST
000000H     000000H     00007FH     000008H   DATA


MEMORY MAP OF MODULE:  .\out_file\SEEKFREE (ai8051u_isr)


START     STOP      LENGTH    ALIGN  RELOC    MEMORY CLASS   SEGMENT NAME
=========================================================================
000000H   000007H   000008H   ---    AT..     DATA           "REG BANK 0"
000008H.0 00001FH.7 000018H.0 ---    ---      **GAP**
000020H.0 000020H.1 000000H.2 BIT    UNIT     BIT            ?BI?GPS
000020H.2 000020H.2 000000H.1 BIT    UNIT     BIT            ?BI?ISR
000020H.3 000020H.3 000000H.1 BIT    UNIT     BIT            ?BI?W25Q_ERASE4K_20?W25QXX
000020H.4 000020H.4 000000H.1 BIT    UNIT     BIT            ?BI?W25Q_QPI_ERASE4K_20?W25QXX
000020H.5 000020H.5 000000H.1 BIT    UNIT     BIT            ?BI?W25Q_ERASE4K_ADDR32_21?W25QXX
000020H.6 000020H.6 000000H.1 BIT    UNIT     BIT            ?BI?W25Q_ERASE32K_52?W25QXX
000020H.7 000020H.7 000000H.1 BIT    UNIT     BIT            ?BI?W25Q_QPI_ERASE32K_52?W25QXX
000021H.0 000021H.0 000000H.1 BIT    UNIT     BIT            ?BI?W25Q_ERASE64K_D8?W25QXX
000021H.1 000021H.1 000000H.1 BIT    UNIT     BIT            ?BI?W25Q_QPI_ERASE64K_D8?W25QXX
000021H.2 000021H.2 000000H.1 BIT    UNIT     BIT            ?BI?W25Q_ERASE64K_ADDR32_DC?W25QXX
000021H.3 000021H.3 000000H.1 BIT    UNIT     BIT            ?BI?W25Q_ERASECHIP_C7?W25QXX
000021H.4 000021H.4 000000H.1 BIT    UNIT     BIT            ?BI?W25Q_QPI_ERASECHIP_C7?W25QXX
000021H.5 000021H   000000H.3 ---    ---      **GAP**
000022H   000721H   000700H   BYTE   UNIT     EDATA          ?STACK
000722H   00FFFFH   00F8DEH   ---    ---      **GAP**
010000H   010201H   000202H   BYTE   INSEG    XDATA          ?XD?ZF_DEVICE_TSL1401
010202H   0103D1H   0001D0H   BYTE   INSEG    XDATA          ?XD?ZF_DEVICE_GPS_TAU1201
0103D2H   0104D9H   000108H   BYTE   UNIT     XDATA          ?XD?UART_WRITE_STRING?ZF_DRIVER_UART
0104DAH   010579H   0000A0H   BYTE   INSEG    XDATA          ?XD?PID
01057AH   01060EH   000095H   BYTE   UNIT     XDATA          ?XD?GPS_INIT?ZF_DEVICE_GPS_TAU1201
01060FH   010698H   00008AH   BYTE   UNIT     XDATA          ?XD?BLE6A20_SEND_STRING?ZF_DEVICE_BLE6A20
010699H   0106FBH   000063H   BYTE   UNIT     XDATA          ?XD?ZF_SPRINTF?ZF_COMMON_FUNCTION
0106FCH   01075BH   000060H   BYTE   UNIT     XDATA          ?XD?GET_TWO_POINTS_DISTANCE?ZF_DEVICE_GPS_TAU1201
01075CH   0107B4H   000059H   BYTE   INSEG    XDATA          ?XD?ZF_COMMON_DEBUG
0107B5H   01080CH   000058H   BYTE   INSEG    XDATA          ?XD?IMU
01080DH   010863H   000057H   BYTE   INSEG    XDATA          ?XD?ZF_DEVICE_BLE6A20
010864H   0108A6H   000043H   BYTE   UNIT     XDATA          ?XD?GPS_GNRMC_PARSE?ZF_DEVICE_GPS_TAU1201
0108A7H   0108E7H   000041H   BYTE   INSEG    XDATA          ?XD?BLUETOOTH
0108E8H   010925H   00003EH   BYTE   UNIT     XDATA          ?XD?MAIN?MAIN
010926H   010961H   00003CH   BYTE   UNIT     XDATA          ?XD?FUNC_DOUBLE_TO_STR?ZF_COMMON_FUNCTION
010962H   01099DH   00003CH   BYTE   UNIT     XDATA          ?XD?EULERTOQUATERNION?FILTER
01099EH   0109D8H   00003BH   BYTE   INSEG    XDATA          ?XD?GPS
0109D9H   010A10H   000038H   BYTE   UNIT     XDATA          ?XD?GET_TWO_POINTS_AZIMUTH?ZF_DEVICE_GPS_TAU1201
010A11H   010A44H   000034H   BYTE   UNIT     XDATA          ?XD?IPS114_SHOW_FLOAT?ZF_DEVICE_IPS114
010A45H   010A70H   00002CH   BYTE   UNIT     XDATA          ?XD?IPS114_SHOW_INT32?ZF_DEVICE_IPS114
010A71H   010A9AH   00002AH   BYTE   UNIT     XDATA          ?XD?FUNC_FLOAT_TO_STR?ZF_COMMON_FUNCTION
010A9BH   010AC2H   000028H   BYTE   UNIT     XDATA          _XDATA_GROUP_
010AC3H   010AE7H   000025H   BYTE   UNIT     XDATA          ?XD?FUNC_HEX_TO_STR?ZF_COMMON_FUNCTION
010AE8H   010B07H   000020H   BYTE   UNIT     XDATA          ?XD?IPS114_SHOW_WAVE?ZF_DEVICE_IPS114
010B08H   010B27H   000020H   BYTE   INSEG    XDATA          ?XD?ZF_DEVICE_IMU660RA
010B28H   010B45H   00001EH   BYTE   INSEG    XDATA          ?XD?ZF_COMMON_TYPEDEF
010B46H   010B62H   00001DH   BYTE   UNIT     XDATA          ?XD?FUNC_INT_TO_STR?ZF_COMMON_FUNCTION
010B63H   010B7FH   00001DH   BYTE   UNIT     XDATA          ?XD?FUNC_STR_TO_DOUBLE?ZF_COMMON_FUNCTION
010B80H   010B9BH   00001CH   BYTE   UNIT     XDATA          ?XD?GET_DOUBLE_NUMBER?ZF_DEVICE_GPS_TAU1201
010B9CH   010BB4H   000019H   BYTE   UNIT     XDATA          ?XD?FUNC_UINT_TO_STR?ZF_COMMON_FUNCTION
L251 LINKER/LOCATER V4.66.93.0                                                        05/06/2025  18:54:37  PAGE 5


010BB5H   010BCDH   000019H   BYTE   UNIT     XDATA          ?XD?IPS114_SHOW_CHINESE?ZF_DEVICE_IPS114
010BCEH   010BE5H   000018H   BYTE   UNIT     XDATA          ?XD?FIFO_READ_BUFFER?ZF_COMMON_FIFO
010BE6H   010BFDH   000018H   BYTE   UNIT     XDATA          ?XD?GET_FLOAT_NUMBER?ZF_DEVICE_GPS_TAU1201
010BFEH   010C15H   000018H   BYTE   UNIT     XDATA          ?XD?PID_PARAM_INIT?PID
010C16H   010C2DH   000018H   BYTE   UNIT     XDATA          ?XD?MY_ATAN2?FILTER
010C2EH   010C45H   000018H   BYTE   UNIT     XDATA          ?XD?GETEULER?FILTER
010C46H   010C59H   000014H   BYTE   UNIT     XDATA          ?XD?NUMBER_CONVERSION_ASCII?ZF_COMMON_FUNCTION
010C5AH   010C6DH   000014H   BYTE   UNIT     XDATA          ?XD?PWM_SET_FREQ?ZF_DRIVER_PWM
010C6EH   010C81H   000014H   BYTE   UNIT     XDATA          ?XD?SOFT_IIC_TRANSFER_8BIT_ARRAY?ZF_DRIVER_SOFT_IIC
010C82H   010C95H   000014H   BYTE   UNIT     XDATA          ?XD?SOFT_IIC_TRANSFER_16BIT_ARRAY?ZF_DRIVER_SOFT_IIC
010C96H   010CA9H   000014H   BYTE   UNIT     XDATA          ?XD?SPI_INIT?ZF_DRIVER_SPI
010CAAH   010CBCH   000013H   BYTE   UNIT     XDATA          ?XD?IMU660RA_READ_REGISTERS?ZF_DEVICE_IMU660RA
010CBDH   010CCEH   000012H   BYTE   UNIT     XDATA          ?XD?FIFO_WRITE_BUFFER?ZF_COMMON_FIFO
010CCFH   010CE0H   000012H   BYTE   UNIT     XDATA          ?XD?PWM_INIT?ZF_DRIVER_PWM
010CE1H   010CF1H   000011H   BYTE   UNIT     XDATA          ?XD?FUNC_STR_TO_FLOAT?ZF_COMMON_FUNCTION
010CF2H   010D02H   000011H   BYTE   UNIT     XDATA          ?XD?GET_INT_NUMBER?ZF_DEVICE_GPS_TAU1201
010D03H   010D12H   000010H   BYTE   INSEG    XDATA          ?XD?PWM
010D13H   010D20H   00000EH   BYTE   UNIT     XDATA          ?XD?FIFO_INIT?ZF_COMMON_FIFO
010D21H   010D2EH   00000EH   BYTE   UNIT     XDATA          ?XD?FUNC_STR_TO_HEX?ZF_COMMON_FUNCTION
010D2FH   010D3CH   00000EH   BYTE   UNIT     XDATA          ?XD?PWM_SET_DUTY?ZF_DRIVER_PWM
010D3DH   010D4AH   00000EH   BYTE   UNIT     XDATA          ?XD?SOFT_IIC_WRITE_16BIT_REGISTERS?ZF_DRIVER_SOFT_IIC
010D4BH   010D58H   00000EH   BYTE   UNIT     XDATA          ?XD?SOFT_IIC_READ_16BIT_REGISTERS?ZF_DRIVER_SOFT_IIC
010D59H   010D66H   00000EH   BYTE   UNIT     XDATA          ?XD?SPI_TRANSFER_8BIT?ZF_DRIVER_SPI
010D67H   010D74H   00000EH   BYTE   UNIT     XDATA          ?XD?SPI_TRANSFER_16BIT?ZF_DRIVER_SPI
010D75H   010D82H   00000EH   BYTE   UNIT     XDATA          ?XD?GPS_GNGGA_PARSE?ZF_DEVICE_GPS_TAU1201
010D83H   010D8FH   00000DH   BYTE   UNIT     XDATA          ?XD?PRINTF_REVERSE_ORDER?ZF_COMMON_FUNCTION
010D90H   010D9CH   00000DH   BYTE   UNIT     XDATA          ?XD?SOFT_IIC_WRITE_8BIT_REGISTERS?ZF_DRIVER_SOFT_IIC
010D9DH   010DA9H   00000DH   BYTE   UNIT     XDATA          ?XD?SOFT_IIC_READ_8BIT_REGISTERS?ZF_DRIVER_SOFT_IIC
010DAAH   010DB6H   00000DH   BYTE   UNIT     XDATA          ?XD?SOFT_IIC_INIT?ZF_DRIVER_SOFT_IIC
010DB7H   010DC3H   00000DH   BYTE   UNIT     XDATA          ?XD?GET_PARAMETER_INDEX?ZF_DEVICE_GPS_TAU1201
010DC4H   010DD0H   00000DH   BYTE   UNIT     XDATA          ?XD?QSPI_READ_INSTR_QADDR24_QALT8_DUMMY_QDATA?QSPI
010DD1H   010DDDH   00000DH   BYTE   UNIT     XDATA          ?XD?QSPI_DMA_READ_INSTR_QADDR24_QALT8_DUMMY_QDATA?QSPI
010DDEH   010DEAH   00000DH   BYTE   UNIT     XDATA          ?XD?QSPI_READ_INSTR_QADDR32_QALT8_DUMMY_QDATA?QSPI
010DEBH   010DF7H   00000DH   BYTE   UNIT     XDATA          ?XD?QSPI_DMA_READ_INSTR_QADDR32_QALT8_DUMMY_QDATA?QSPI
010DF8H   010E04H   00000DH   BYTE   UNIT     XDATA          ?XD?QSPI_READ_QINSTR_QADDR24_QALT8_DUMMY_QDATA?QSPI
010E05H   010E11H   00000DH   BYTE   UNIT     XDATA          ?XD?QSPI_DMA_READ_QINSTR_QADDR24_QALT8_DUMMY_QDATA?QSPI
010E12H   010E1DH   00000CH   BYTE   UNIT     XDATA          ?XD?SOFT_IIC_WRITE_8BIT_ARRAY?ZF_DRIVER_SOFT_IIC
010E1EH   010E29H   00000CH   BYTE   UNIT     XDATA          ?XD?SOFT_IIC_WRITE_16BIT_ARRAY?ZF_DRIVER_SOFT_IIC
010E2AH   010E35H   00000CH   BYTE   UNIT     XDATA          ?XD?SOFT_IIC_READ_8BIT_ARRAY?ZF_DRIVER_SOFT_IIC
010E36H   010E41H   00000CH   BYTE   UNIT     XDATA          ?XD?SOFT_IIC_READ_16BIT_ARRAY?ZF_DRIVER_SOFT_IIC
010E42H   010E4DH   00000CH   BYTE   UNIT     XDATA          ?XD?SPI_WRITE_16BIT_REGISTERS?ZF_DRIVER_SPI
010E4EH   010E59H   00000CH   BYTE   UNIT     XDATA          ?XD?SPI_READ_16BIT_REGISTERS?ZF_DRIVER_SPI
010E5AH   010E65H   00000CH   BYTE   INSEG    XDATA          ?XD?ZF_DRIVER_TIMER
010E66H   010E71H   00000CH   BYTE   INSEG    XDATA          ?XD?ZF_DRIVER_UART
010E72H   010E7DH   00000CH   BYTE   UNIT     XDATA          ?XD?UART_INIT?ZF_DRIVER_UART
010E7EH   010E89H   00000CH   BYTE   UNIT     XDATA          ?XD?IPS114_SHOW_INT16?ZF_DEVICE_IPS114
010E8AH   010E95H   00000CH   BYTE   UNIT     XDATA          ?XD?IPS114_SHOW_UINT16?ZF_DEVICE_IPS114
010E96H   010EA1H   00000CH   BYTE   UNIT     XDATA          ?XD?BLE6A20_READ_BUFFER?ZF_DEVICE_BLE6A20
010EA2H   010EADH   00000CH   BYTE   UNIT     XDATA          ?XD?GPS_DATA_PARSE?ZF_DEVICE_GPS_TAU1201
010EAEH   010EB9H   00000CH   BYTE   UNIT     XDATA          ?XD?PIT_HANLDER_ANGLE?ISR
010EBAH   010EC5H   00000CH   BYTE   UNIT     XDATA          ?XD?PIDLOCCTRL?PID
010EC6H   010ED1H   00000CH   BYTE   UNIT     XDATA          ?XD?PIDINCCTRL?PID
010ED2H   010EDDH   00000CH   BYTE   UNIT     XDATA          ?XD?CONSTRAIN_FLOAT?PID
010EDEH   010EE9H   00000CH   BYTE   UNIT     XDATA          ?XD?FOCF?FILTER
010EEAH   010EF5H   00000CH   BYTE   UNIT     XDATA          ?XD?QSPI_READ_INSTR_SADDR24_DUMMY_SDATA?QSPI
010EF6H   010F01H   00000CH   BYTE   UNIT     XDATA          ?XD?QSPI_DMA_READ_INSTR_SADDR24_DUMMY_SDATA?QSPI
010F02H   010F0DH   00000CH   BYTE   UNIT     XDATA          ?XD?QSPI_READ_INSTR_SADDR32_DUMMY_SDATA?QSPI
010F0EH   010F19H   00000CH   BYTE   UNIT     XDATA          ?XD?QSPI_DMA_READ_INSTR_SADDR32_DUMMY_SDATA?QSPI
010F1AH   010F25H   00000CH   BYTE   UNIT     XDATA          ?XD?QSPI_READ_INSTR_DADDR24_DALT8_DDATA?QSPI
010F26H   010F31H   00000CH   BYTE   UNIT     XDATA          ?XD?QSPI_DMA_READ_INSTR_DADDR24_DALT8_DDATA?QSPI
010F32H   010F3DH   00000CH   BYTE   UNIT     XDATA          ?XD?QSPI_READ_INSTR_DADDR32_DALT8_DDATA?QSPI
010F3EH   010F49H   00000CH   BYTE   UNIT     XDATA          ?XD?QSPI_DMA_READ_INSTR_DADDR32_DALT8_DDATA?QSPI
010F4AH   010F55H   00000CH   BYTE   UNIT     XDATA          ?XD?QSPI_READ_INSTR_SADDR24_DUMMY_DDATA?QSPI
010F56H   010F61H   00000CH   BYTE   UNIT     XDATA          ?XD?QSPI_DMA_READ_INSTR_SADDR24_DUMMY_DDATA?QSPI
010F62H   010F6DH   00000CH   BYTE   UNIT     XDATA          ?XD?QSPI_READ_INSTR_SADDR24_DUMMY_QDATA?QSPI
L251 LINKER/LOCATER V4.66.93.0                                                        05/06/2025  18:54:37  PAGE 6


010F6EH   010F79H   00000CH   BYTE   UNIT     XDATA          ?XD?QSPI_DMA_READ_INSTR_SADDR24_DUMMY_QDATA?QSPI
010F7AH   010F85H   00000CH   BYTE   UNIT     XDATA          ?XD?QSPI_READ_INSTR_SADDR32_DUMMY_DDATA?QSPI
010F86H   010F91H   00000CH   BYTE   UNIT     XDATA          ?XD?QSPI_DMA_READ_INSTR_SADDR32_DUMMY_DDATA?QSPI
010F92H   010F9DH   00000CH   BYTE   UNIT     XDATA          ?XD?QSPI_READ_INSTR_SADDR32_DUMMY_QDATA?QSPI
010F9EH   010FA9H   00000CH   BYTE   UNIT     XDATA          ?XD?QSPI_DMA_READ_INSTR_SADDR32_DUMMY_QDATA?QSPI
010FAAH   010FB5H   00000CH   BYTE   UNIT     XDATA          ?XD?QSPI_READ_QINSTR_QADDR24_DUMMY_QDATA?QSPI
010FB6H   010FC1H   00000CH   BYTE   UNIT     XDATA          ?XD?QSPI_DMA_READ_QINSTR_QADDR24_DUMMY_QDATA?QSPI
010FC2H   010FCCH   00000BH   BYTE   UNIT     XDATA          ?XD?PIT_INIT?ZF_DRIVER_PIT
010FCDH   010FD7H   00000BH   BYTE   UNIT     XDATA          ?XD?SPI_WRITE_8BIT_REGISTERS?ZF_DRIVER_SPI
010FD8H   010FE2H   00000BH   BYTE   UNIT     XDATA          ?XD?SPI_READ_8BIT_REGISTERS?ZF_DRIVER_SPI
010FE3H   010FEDH   00000BH   BYTE   UNIT     XDATA          ?XD?GPS_UART_CALLBACK?ZF_DEVICE_GPS_TAU1201
010FEEH   010FF8H   00000BH   BYTE   UNIT     XDATA          ?XD?QSPI_READ_INSTR_SADDR24_SDATA?QSPI
010FF9H   011003H   00000BH   BYTE   UNIT     XDATA          ?XD?QSPI_DMA_READ_INSTR_SADDR24_SDATA?QSPI
011004H   01100EH   00000BH   BYTE   UNIT     XDATA          ?XD?QSPI_READ_INSTR_SADDR32_SDATA?QSPI
01100FH   011019H   00000BH   BYTE   UNIT     XDATA          ?XD?QSPI_DMA_READ_INSTR_SADDR32_SDATA?QSPI
01101AH   011024H   00000BH   BYTE   UNIT     XDATA          ?XD?QSPI_WRITE_INSTR_SADDR24_SDATA?QSPI
011025H   01102FH   00000BH   BYTE   UNIT     XDATA          ?XD?QSPI_DMA_WRITE_INSTR_SADDR24_SDATA?QSPI
011030H   01103AH   00000BH   BYTE   UNIT     XDATA          ?XD?QSPI_WRITE_INSTR_SADDR24_QDATA?QSPI
01103BH   011045H   00000BH   BYTE   UNIT     XDATA          ?XD?QSPI_DMA_WRITE_INSTR_SADDR24_QDATA?QSPI
011046H   011050H   00000BH   BYTE   UNIT     XDATA          ?XD?QSPI_WRITE_INSTR_SADDR32_SDATA?QSPI
011051H   01105BH   00000BH   BYTE   UNIT     XDATA          ?XD?QSPI_DMA_WRITE_INSTR_SADDR32_SDATA?QSPI
01105CH   011066H   00000BH   BYTE   UNIT     XDATA          ?XD?QSPI_WRITE_INSTR_SADDR32_QDATA?QSPI
011067H   011071H   00000BH   BYTE   UNIT     XDATA          ?XD?QSPI_DMA_WRITE_INSTR_SADDR32_QDATA?QSPI
011072H   01107CH   00000BH   BYTE   UNIT     XDATA          ?XD?QSPI_READ_QINSTR_QADDR24_QDATA?QSPI
01107DH   011087H   00000BH   BYTE   UNIT     XDATA          ?XD?W25Q_READDATA_03?W25QXX
011088H   011092H   00000BH   BYTE   UNIT     XDATA          ?XD?W25Q_READDATA_ADDR32_13?W25QXX
011093H   01109DH   00000BH   BYTE   UNIT     XDATA          ?XD?W25Q_FASTREAD_0B?W25QXX
01109EH   0110A8H   00000BH   BYTE   UNIT     XDATA          ?XD?W25Q_QPI_FASTREAD_0B?W25QXX
0110A9H   0110B3H   00000BH   BYTE   UNIT     XDATA          ?XD?W25Q_FASTREAD_ADDR32_0C?W25QXX
0110B4H   0110BEH   00000BH   BYTE   UNIT     XDATA          ?XD?W25Q_FASTREAD_3B?W25QXX
0110BFH   0110C9H   00000BH   BYTE   UNIT     XDATA          ?XD?W25Q_FASTREAD_ADDR32_3C?W25QXX
0110CAH   0110D4H   00000BH   BYTE   UNIT     XDATA          ?XD?W25Q_FASTREAD_6B?W25QXX
0110D5H   0110DFH   00000BH   BYTE   UNIT     XDATA          ?XD?W25Q_FASTREAD_ADDR32_6C?W25QXX
0110E0H   0110EAH   00000BH   BYTE   UNIT     XDATA          ?XD?W25Q_FASTREAD_BB?W25QXX
0110EBH   0110F5H   00000BH   BYTE   UNIT     XDATA          ?XD?W25Q_FASTREAD_ADDR32_BC?W25QXX
0110F6H   011100H   00000BH   BYTE   UNIT     XDATA          ?XD?W25Q_FASTREAD_EB?W25QXX
011101H   01110BH   00000BH   BYTE   UNIT     XDATA          ?XD?W25Q_QPI_FASTREAD_EB?W25QXX
01110CH   011116H   00000BH   BYTE   UNIT     XDATA          ?XD?W25Q_FASTREAD_ADDR32_EC?W25QXX
011117H   011121H   00000BH   BYTE   UNIT     XDATA          ?XD?W25Q_WORDREAD_E7?W25QXX
011122H   01112CH   00000BH   BYTE   UNIT     XDATA          ?XD?W25Q_OCTALWORDREAD_E3?W25QXX
01112DH   011137H   00000BH   BYTE   UNIT     XDATA          ?XD?W25Q_PAGEPROGRAM_02?W25QXX
011138H   011142H   00000BH   BYTE   UNIT     XDATA          ?XD?W25Q_PAGEPROGRAM_ADDR32_12?W25QXX
011143H   01114DH   00000BH   BYTE   UNIT     XDATA          ?XD?W25Q_PAGEPROGRAM_32?W25QXX
01114EH   011158H   00000BH   BYTE   UNIT     XDATA          ?XD?W25Q_PAGEPROGRAM_ADDR32_34?W25QXX
011159H   011163H   00000BH   BYTE   UNIT     XDATA          ?XD?W25Q_PROGRAMSECURITYREG_42?W25QXX
011164H   01116EH   00000BH   BYTE   UNIT     XDATA          ?XD?W25Q_READSECURITYREG_48?W25QXX
01116FH   011179H   00000BH   BYTE   UNIT     XDATA          ?XD?W25Q_QPI_BURSTREADWITHWRAP_0C?W25QXX
01117AH   011183H   00000AH   BYTE   UNIT     XDATA          ?XD?SPI_WRITE_8BIT_ARRAY?ZF_DRIVER_SPI
011184H   01118DH   00000AH   BYTE   UNIT     XDATA          ?XD?SPI_WRITE_16BIT_ARRAY?ZF_DRIVER_SPI
01118EH   011197H   00000AH   BYTE   UNIT     XDATA          ?XD?SPI_READ_8BIT_ARRAY?ZF_DRIVER_SPI
011198H   0111A1H   00000AH   BYTE   UNIT     XDATA          ?XD?SPI_READ_16BIT_ARRAY?ZF_DRIVER_SPI
0111A2H   0111ABH   00000AH   BYTE   UNIT     XDATA          ?XD?IPS114_SHOW_STRING?ZF_DEVICE_IPS114
0111ACH   0111B5H   00000AH   BYTE   UNIT     XDATA          ?XD?BLE6A20_SEND_BUFFER?ZF_DEVICE_BLE6A20
0111B6H   0111BFH   00000AH   BYTE   UNIT     XDATA          ?XD?W25Q_DMA_READDATA_03?W25QXX
0111C0H   0111C9H   00000AH   BYTE   UNIT     XDATA          ?XD?W25Q_DMA_READDATA_ADDR32_13?W25QXX
0111CAH   0111D3H   00000AH   BYTE   UNIT     XDATA          ?XD?W25Q_DMA_FASTREAD_0B?W25QXX
0111D4H   0111DDH   00000AH   BYTE   UNIT     XDATA          ?XD?W25Q_QPI_DMA_FASTREAD_0B?W25QXX
0111DEH   0111E7H   00000AH   BYTE   UNIT     XDATA          ?XD?W25Q_DMA_FASTREAD_ADDR32_0C?W25QXX
0111E8H   0111F1H   00000AH   BYTE   UNIT     XDATA          ?XD?W25Q_DMA_FASTREAD_3B?W25QXX
0111F2H   0111FBH   00000AH   BYTE   UNIT     XDATA          ?XD?W25Q_DMA_FASTREAD_ADDR32_3C?W25QXX
0111FCH   011205H   00000AH   BYTE   UNIT     XDATA          ?XD?W25Q_DMA_FASTREAD_6B?W25QXX
011206H   01120FH   00000AH   BYTE   UNIT     XDATA          ?XD?W25Q_DMA_FASTREAD_ADDR32_6C?W25QXX
011210H   011219H   00000AH   BYTE   UNIT     XDATA          ?XD?W25Q_DMA_FASTREAD_BB?W25QXX
01121AH   011223H   00000AH   BYTE   UNIT     XDATA          ?XD?W25Q_DMA_FASTREAD_ADDR32_BC?W25QXX
011224H   01122DH   00000AH   BYTE   UNIT     XDATA          ?XD?W25Q_DMA_FASTREAD_EB?W25QXX
L251 LINKER/LOCATER V4.66.93.0                                                        05/06/2025  18:54:37  PAGE 7


01122EH   011237H   00000AH   BYTE   UNIT     XDATA          ?XD?W25Q_QPI_DMA_FASTREAD_EB?W25QXX
011238H   011241H   00000AH   BYTE   UNIT     XDATA          ?XD?W25Q_DMA_FASTREAD_ADDR32_EC?W25QXX
011242H   01124BH   00000AH   BYTE   UNIT     XDATA          ?XD?W25Q_DMA_WORDREAD_E7?W25QXX
01124CH   011255H   00000AH   BYTE   UNIT     XDATA          ?XD?W25Q_DMA_OCTALWORDREAD_E3?W25QXX
011256H   01125FH   00000AH   BYTE   UNIT     XDATA          ?XD?W25Q_DMA_PAGEPROGRAM_02?W25QXX
011260H   011269H   00000AH   BYTE   UNIT     XDATA          ?XD?W25Q_DMA_PAGEPROGRAM_ADDR32_12?W25QXX
01126AH   011273H   00000AH   BYTE   UNIT     XDATA          ?XD?W25Q_DMA_PAGEPROGRAM_32?W25QXX
011274H   01127DH   00000AH   BYTE   UNIT     XDATA          ?XD?W25Q_DMA_PAGEPROGRAM_ADDR32_34?W25QXX
01127EH   011286H   000009H   BYTE   UNIT     XDATA          ?XD?FUNC_STR_TO_INT?ZF_COMMON_FUNCTION
011287H   01128FH   000009H   BYTE   UNIT     XDATA          ?XD?IPS114_SHOW_INT8?ZF_DEVICE_IPS114
011290H   011298H   000009H   BYTE   UNIT     XDATA          ?XD?IPS114_SHOW_UINT8?ZF_DEVICE_IPS114
011299H   0112A1H   000009H   BYTE   UNIT     XDATA          ?XD?IMU660RA_WRITE_REGISTERS?ZF_DEVICE_IMU660RA
0112A2H   0112A9H   000008H   BYTE   UNIT     XDATA          ?XD?DEBUG_SEND_BUFFER?ZF_COMMON_DEBUG
0112AAH   0112B1H   000008H   BYTE   UNIT     XDATA          ?XD?DEBUG_READ_BUFFER?ZF_COMMON_DEBUG
0112B2H   0112B9H   000008H   BYTE   UNIT     XDATA          ?XD?FIFO_HEAD_OFFSET?ZF_COMMON_FIFO
0112BAH   0112C1H   000008H   BYTE   UNIT     XDATA          ?XD?FIFO_END_OFFSET?ZF_COMMON_FIFO
0112C2H   0112C9H   000008H   BYTE   UNIT     XDATA          ?XD?FUNC_GET_GREATEST_COMMON_DIVISOR?ZF_COMMON_FUNCTION
0112CAH   0112D1H   000008H   BYTE   UNIT     XDATA          ?XD?FUNC_STR_TO_UINT?ZF_COMMON_FUNCTION
0112D2H   0112D9H   000008H   BYTE   UNIT     XDATA          ?XD?ADC_MEAN_FILTER_CONVERT?ZF_DRIVER_ADC
0112DAH   0112E1H   000008H   BYTE   UNIT     XDATA          ?XD?SOFT_IIC_DELAY?ZF_DRIVER_SOFT_IIC
0112E2H   0112E9H   000008H   BYTE   UNIT     XDATA          ?XD?SOFT_IIC_WRITE_16BIT_REGISTER?ZF_DRIVER_SOFT_IIC
0112EAH   0112F1H   000008H   BYTE   UNIT     XDATA          ?XD?SOFT_IIC_READ_16BIT_REGISTER?ZF_DRIVER_SOFT_IIC
0112F2H   0112F9H   000008H   BYTE   UNIT     XDATA          ?XD?UART_WRITE_BUFFER?ZF_DRIVER_UART
0112FAH   011301H   000008H   BYTE   INSEG    XDATA          ?XD?ZF_DEVICE_IPS114
011302H   011309H   000008H   BYTE   UNIT     XDATA          ?XD?IPS114_SET_REGION?ZF_DEVICE_IPS114
01130AH   011311H   000008H   BYTE   UNIT     XDATA          ?XD?IPS114_SHOW_CHAR?ZF_DEVICE_IPS114
011312H   011319H   000008H   BYTE   INSEG    XDATA          ?XD?ZF_DEVICE_TYPE
01131AH   011321H   000008H   BYTE   UNIT     XDATA          ?XD?SET_WIRELESS_TYPE?ZF_DEVICE_TYPE
011322H   011329H   000008H   BYTE   UNIT     XDATA          ?XD?SET_GPS_TYPE?ZF_DEVICE_TYPE
01132AH   011331H   000008H   BYTE   UNIT     XDATA          ?XD?W25Q_READSFDP_5A?W25QXX
011332H   011338H   000007H   BYTE   UNIT     XDATA          ?XD?GPIO_INIT?ZF_DRIVER_GPIO
011339H   01133FH   000007H   BYTE   UNIT     XDATA          ?XD?SOFT_IIC_READ_DATA?ZF_DRIVER_SOFT_IIC
011340H   011346H   000007H   BYTE   UNIT     XDATA          ?XD?UART_QUERY_BYTE?ZF_DRIVER_UART
011347H   01134DH   000007H   BYTE   UNIT     XDATA          ?XD?QSPI_READ_INSTR_SDATA?QSPI
01134EH   011354H   000007H   BYTE   UNIT     XDATA          ?XD?QSPI_READ_QINSTR_QDATA?QSPI
011355H   01135AH   000006H   BYTE   UNIT     XDATA          ?XD?FIFO_CLEAR?ZF_COMMON_FIFO
01135BH   011360H   000006H   BYTE   INSEG    XDATA          ?XD?ZF_DRIVER_ENCODER
011361H   011366H   000006H   BYTE   UNIT     XDATA          ?XD?ENCODER_DIR_INIT?ZF_DRIVER_ENCODER
011367H   01136CH   000006H   BYTE   UNIT     XDATA          ?XD?SOFT_IIC_SEND_DATA?ZF_DRIVER_SOFT_IIC
01136DH   011372H   000006H   BYTE   UNIT     XDATA          ?XD?SOFT_IIC_WRITE_16BIT?ZF_DRIVER_SOFT_IIC
011373H   011378H   000006H   BYTE   UNIT     XDATA          ?XD?SOFT_IIC_WRITE_8BIT_REGISTER?ZF_DRIVER_SOFT_IIC
011379H   01137EH   000006H   BYTE   UNIT     XDATA          ?XD?SOFT_IIC_READ_16BIT?ZF_DRIVER_SOFT_IIC
01137FH   011384H   000006H   BYTE   UNIT     XDATA          ?XD?SOFT_IIC_READ_8BIT_REGISTER?ZF_DRIVER_SOFT_IIC
011385H   01138AH   000006H   BYTE   UNIT     XDATA          ?XD?SOFT_IIC_SCCB_WRITE_REGISTER?ZF_DRIVER_SOFT_IIC
01138BH   011390H   000006H   BYTE   UNIT     XDATA          ?XD?SOFT_IIC_SCCB_READ_REGISTER?ZF_DRIVER_SOFT_IIC
011391H   011396H   000006H   BYTE   UNIT     XDATA          ?XD?SPI_WRITE_16BIT_REGISTER?ZF_DRIVER_SPI
011397H   01139CH   000006H   BYTE   UNIT     XDATA          ?XD?SPI_READ_16BIT_REGISTER?ZF_DRIVER_SPI
01139DH   0113A2H   000006H   BYTE   UNIT     XDATA          ?XD?IPS114_CLEAR?ZF_DEVICE_IPS114
0113A3H   0113A8H   000006H   BYTE   UNIT     XDATA          ?XD?IPS114_DRAW_POINT?ZF_DEVICE_IPS114
0113A9H   0113AEH   000006H   BYTE   UNIT     XDATA          ?XD?IMU660RA_GET_ACC?ZF_DEVICE_IMU660RA
0113AFH   0113B4H   000006H   BYTE   UNIT     XDATA          ?XD?IMU660RA_GET_GYRO?ZF_DEVICE_IMU660RA
0113B5H   0113BAH   000006H   BYTE   UNIT     XDATA          ?XD?SET_TOF_TYPE?ZF_DEVICE_TYPE
0113BBH   0113C0H   000006H   BYTE   UNIT     XDATA          ?XD?CONSTRAIN_SHORT?PID
0113C1H   0113C6H   000006H   BYTE   UNIT     XDATA          ?XD?QSPI_DMA_READ?QSPI
0113C7H   0113CCH   000006H   BYTE   UNIT     XDATA          ?XD?QSPI_DMA_WRITE?QSPI
0113CDH   0113D1H   000005H   BYTE   UNIT     XDATA          ?XD?SOFT_IIC_SEND_ACK?ZF_DRIVER_SOFT_IIC
0113D2H   0113D6H   000005H   BYTE   UNIT     XDATA          ?XD?SOFT_IIC_WAIT_ACK?ZF_DRIVER_SOFT_IIC
0113D7H   0113DBH   000005H   BYTE   UNIT     XDATA          ?XD?SOFT_IIC_WRITE_8BIT?ZF_DRIVER_SOFT_IIC
0113DCH   0113E0H   000005H   BYTE   UNIT     XDATA          ?XD?SOFT_IIC_READ_8BIT?ZF_DRIVER_SOFT_IIC
0113E1H   0113E5H   000005H   BYTE   UNIT     XDATA          ?XD?TIMER_FUNCITON_CHECK?ZF_DRIVER_TIMER
0113E6H   0113EAH   000005H   BYTE   UNIT     XDATA          ?XD?UART_FUNCITON_CHECK?ZF_DRIVER_UART
0113EBH   0113EFH   000005H   BYTE   UNIT     XDATA          ?XD?UTC_TO_BTC?ZF_DEVICE_GPS_TAU1201
0113F0H   0113F4H   000005H   BYTE   UNIT     XDATA          ?XD?QSPI_WRITE_INSTR_SADDR24?QSPI
0113F5H   0113F9H   000005H   BYTE   UNIT     XDATA          ?XD?QSPI_WRITE_INSTR_SADDR32?QSPI
0113FAH   0113FEH   000005H   BYTE   UNIT     XDATA          ?XD?QSPI_WRITE_INSTR_QADDR32?QSPI
L251 LINKER/LOCATER V4.66.93.0                                                        05/06/2025  18:54:37  PAGE 8


0113FFH   011403H   000005H   BYTE   UNIT     XDATA          ?XD?QSPI_WRITE_QINSTR_QADDR24?QSPI
011404H   011408H   000005H   BYTE   UNIT     XDATA          ?XD?QSPI_POLLING_READ_INSTR_SDATA?QSPI
011409H   01140DH   000005H   BYTE   UNIT     XDATA          ?XD?QSPI_POLLING_READ_QINSTR_QDATA?QSPI
01140EH   011412H   000005H   BYTE   UNIT     XDATA          ?XD?W25Q_READLOCKSECTOR_3D?W25QXX
011413H   011417H   000005H   BYTE   UNIT     XDATA          ?XD?W25Q_QPI_READLOCKSECTOR_3D?W25QXX
011418H   01141BH   000004H   BYTE   INSEG    XDATA          ?XD?ZF_COMMON_CLOCK
01141CH   01141FH   000004H   BYTE   UNIT     XDATA          ?XD?CLOCK_INIT?ZF_COMMON_CLOCK
011420H   011423H   000004H   BYTE   UNIT     XDATA          ?XD?FIFO_USED?ZF_COMMON_FIFO
011424H   011427H   000004H   BYTE   UNIT     XDATA          ?XD?FUNC_SOFT_DELAY?ZF_COMMON_FUNCTION
011428H   01142BH   000004H   BYTE   UNIT     XDATA          ?XD?ADC_CONVERT?ZF_DRIVER_ADC
01142CH   01142FH   000004H   BYTE   UNIT     XDATA          ?XD?ADC_INIT?ZF_DRIVER_ADC
011430H   011433H   000004H   BYTE   INSEG    XDATA          ?XD?ZF_DRIVER_DELAY
011434H   011437H   000004H   BYTE   UNIT     XDATA          ?XD?SYSTEM_DELAY_MS?ZF_DRIVER_DELAY
011438H   01143BH   000004H   BYTE   UNIT     XDATA          ?XD?SYSTEM_DELAY_US?ZF_DRIVER_DELAY
01143CH   01143FH   000004H   BYTE   UNIT     XDATA          ?XD?ENCODER_GET_COUNT?ZF_DRIVER_ENCODER
011440H   011443H   000004H   BYTE   UNIT     XDATA          ?XD?GPIO_SET_MODE?ZF_DRIVER_GPIO
011444H   011447H   000004H   BYTE   UNIT     XDATA          ?XD?GPIO_SET_LEVEL_SPEED?ZF_DRIVER_GPIO
011448H   01144BH   000004H   BYTE   UNIT     XDATA          ?XD?GPIO_SET_DIR?ZF_DRIVER_GPIO
01144CH   01144FH   000004H   BYTE   UNIT     XDATA          ?XD?SOFT_IIC_START?ZF_DRIVER_SOFT_IIC
011450H   011453H   000004H   BYTE   UNIT     XDATA          ?XD?SOFT_IIC_STOP?ZF_DRIVER_SOFT_IIC
011454H   011457H   000004H   BYTE   UNIT     XDATA          ?XD?SPI_READ_DAT?ZF_DRIVER_SPI
011458H   01145BH   000004H   BYTE   UNIT     XDATA          ?XD?SPI_WRITE_16BIT?ZF_DRIVER_SPI
01145CH   01145FH   000004H   BYTE   UNIT     XDATA          ?XD?SPI_WRITE_8BIT_REGISTER?ZF_DRIVER_SPI
011460H   011463H   000004H   BYTE   UNIT     XDATA          ?XD?SPI_READ_16BIT?ZF_DRIVER_SPI
011464H   011467H   000004H   BYTE   UNIT     XDATA          ?XD?IPS114_SET_COLOR?ZF_DEVICE_IPS114
011468H   01146BH   000004H   BYTE   UNIT     XDATA          ?XD?IMU660RA_SELF_CHECK?ZF_DEVICE_IMU660RA
01146CH   01146FH   000004H   BYTE   UNIT     XDATA          ?XD?TSL1401_SEND_DATA?ZF_DEVICE_TSL1401
011470H   011473H   000004H   BYTE   UNIT     XDATA          ?XD?ANGLE_PID_FUN?PID
011474H   011477H   000004H   BYTE   UNIT     XDATA          ?XD?VELOCITY_PID_FUN?PID
011478H   01147BH   000004H   BYTE   UNIT     XDATA          ?XD?CONSTRAIN_UINT32?PID
01147CH   01147FH   000004H   BYTE   UNIT     XDATA          ?XD?BLUE_TOOTH_READ?BLUETOOTH
011480H   011483H   000004H   BYTE   INSEG    XDATA          ?XD?STATEMACHINE
011484H   011487H   000004H   BYTE   UNIT     XDATA          ?XD?STATEUPDATE?STATEMACHINE
011488H   01148BH   000004H   BYTE   UNIT     XDATA          ?XD?W25Q_ERASE4K_20?W25QXX
01148CH   01148FH   000004H   BYTE   UNIT     XDATA          ?XD?W25Q_QPI_ERASE4K_20?W25QXX
011490H   011493H   000004H   BYTE   UNIT     XDATA          ?XD?W25Q_ERASE4K_ADDR32_21?W25QXX
011494H   011497H   000004H   BYTE   UNIT     XDATA          ?XD?W25Q_ERASE32K_52?W25QXX
011498H   01149BH   000004H   BYTE   UNIT     XDATA          ?XD?W25Q_QPI_ERASE32K_52?W25QXX
01149CH   01149FH   000004H   BYTE   UNIT     XDATA          ?XD?W25Q_ERASE64K_D8?W25QXX
0114A0H   0114A3H   000004H   BYTE   UNIT     XDATA          ?XD?W25Q_QPI_ERASE64K_D8?W25QXX
0114A4H   0114A7H   000004H   BYTE   UNIT     XDATA          ?XD?W25Q_ERASE64K_ADDR32_DC?W25QXX
0114A8H   0114ABH   000004H   BYTE   UNIT     XDATA          ?XD?W25Q_READUNIQUEID_4B?W25QXX
0114ACH   0114AFH   000004H   BYTE   UNIT     XDATA          ?XD?W25Q_READJEDECID_9F?W25QXX
0114B0H   0114B3H   000004H   BYTE   UNIT     XDATA          ?XD?W25Q_QPI_READJEDECID_9F?W25QXX
0114B4H   0114B7H   000004H   BYTE   UNIT     XDATA          ?XD?W25Q_ERASESECURITYREG_44?W25QXX
0114B8H   0114BBH   000004H   BYTE   UNIT     XDATA          ?XD?W25Q_LOCKSECTOR_36?W25QXX
0114BCH   0114BFH   000004H   BYTE   UNIT     XDATA          ?XD?W25Q_QPI_LOCKSECTOR_36?W25QXX
0114C0H   0114C3H   000004H   BYTE   UNIT     XDATA          ?XD?W25Q_UNLOCKSECTOR_39?W25QXX
0114C4H   0114C7H   000004H   BYTE   UNIT     XDATA          ?XD?W25Q_QPI_UNLOCKSECTOR_39?W25QXX
0114C8H   0114CAH   000003H   BYTE   UNIT     XDATA          ?XD?INTERRUPT_SET_PRIORITY?ZF_COMMON_INTERRUPT
0114CBH   0114CDH   000003H   BYTE   UNIT     XDATA          ?XD?GPIO_GET_LEVEL?ZF_DRIVER_GPIO
0114CEH   0114D0H   000003H   BYTE   UNIT     XDATA          ?XD?GPIO_SET_LEVEL?ZF_DRIVER_GPIO
0114D1H   0114D3H   000003H   BYTE   UNIT     XDATA          ?XD?SPI_WRITE_DAT?ZF_DRIVER_SPI
0114D4H   0114D6H   000003H   BYTE   UNIT     XDATA          ?XD?SPI_WRITE_8BIT?ZF_DRIVER_SPI
0114D7H   0114D9H   000003H   BYTE   UNIT     XDATA          ?XD?SPI_READ_8BIT_REGISTER?ZF_DRIVER_SPI
0114DAH   0114DCH   000003H   BYTE   UNIT     XDATA          ?XD?UART_WRITE_BYTE?ZF_DRIVER_UART
0114DDH   0114DFH   000003H   BYTE   UNIT     XDATA          ?XD?UART_RX_INTERRUPT?ZF_DRIVER_UART
0114E0H   0114E2H   000003H   BYTE   UNIT     XDATA          ?XD?UART_READ_BYTE?ZF_DRIVER_UART
0114E3H   0114E5H   000003H   BYTE   UNIT     XDATA          ?XD?BLE6A20_SEND_BYTE?ZF_DEVICE_BLE6A20
0114E6H   0114E8H   000003H   BYTE   UNIT     XDATA          ?XD?IMU660RA_READ_REGISTER?ZF_DEVICE_IMU660RA
0114E9H   0114EBH   000003H   BYTE   UNIT     XDATA          ?XD?QSPI_WRITE_INSTR_SADDR16?QSPI
0114ECH   0114EDH   000002H   BYTE   UNIT     XDATA          ?XD?ENCODER_CLEAR_COUNT?ZF_DRIVER_ENCODER
0114EEH   0114EFH   000002H   BYTE   UNIT     XDATA          ?XD?GPIO_TOGGLE_LEVEL?ZF_DRIVER_GPIO
0114F0H   0114F1H   000002H   BYTE   UNIT     XDATA          ?XD?GPIO_SET_IMPEDANCE?ZF_DRIVER_GPIO
0114F2H   0114F3H   000002H   BYTE   UNIT     XDATA          ?XD?SPI_READ_8BIT?ZF_DRIVER_SPI
L251 LINKER/LOCATER V4.66.93.0                                                        05/06/2025  18:54:37  PAGE 9


0114F4H   0114F5H   000002H   BYTE   UNIT     XDATA          ?XD?UART_RX_START_BUFF?ZF_DRIVER_UART
0114F6H   0114F7H   000002H   BYTE   UNIT     XDATA          ?XD?UART_DMA_INIT?ZF_DRIVER_UART
0114F8H   0114F9H   000002H   BYTE   UNIT     XDATA          ?XD?IPS114_SET_DIR?ZF_DEVICE_IPS114
0114FAH   0114FBH   000002H   BYTE   UNIT     XDATA          ?XD?IMU660RA_WRITE_REGISTER?ZF_DEVICE_IMU660RA
0114FCH   0114FDH   000002H   BYTE   UNIT     XDATA          ?XD?QSPI_WRITE_INSTR_SADDR8?QSPI
0114FEH   0114FFH   000002H   BYTE   UNIT     XDATA          ?XD?QSPI_WRITE_QINSTR_QADDR8?QSPI
011500H   011501H   000002H   BYTE   UNIT     XDATA          ?XD?W25Q_QPI_WAITBUSY?W25QXX
011502H   011503H   000002H   BYTE   UNIT     XDATA          ?XD?W25Q_WRITESR12_01?W25QXX
011504H   011505H   000002H   BYTE   UNIT     XDATA          ?XD?W25Q_READID_90?W25QXX
011506H   011507H   000002H   BYTE   UNIT     XDATA          ?XD?W25Q_READID_92?W25QXX
011508H   011509H   000002H   BYTE   UNIT     XDATA          ?XD?W25Q_READID_94?W25QXX
01150AH   01150AH   000001H   BYTE   UNIT     XDATA          ?XD?DEBUG_INTERRUPR_HANDLER?ZF_COMMON_DEBUG
01150BH   01150BH   000001H   BYTE   UNIT     XDATA          ?XD?PUTCHAR?ZF_COMMON_DEBUG
01150CH   01150CH   000001H   BYTE   UNIT     XDATA          ?XD?DEBUG_INIT?ZF_COMMON_DEBUG
01150DH   01150DH   000001H   BYTE   INSEG    XDATA          ?XD?ZF_DRIVER_ADC
01150EH   01150EH   000001H   BYTE   UNIT     XDATA          ?XD?IPS114_WRITE_INDEX?ZF_DEVICE_IPS114
01150FH   01150FH   000001H   BYTE   UNIT     XDATA          ?XD?BLE6A20_CALLBACK?ZF_DEVICE_BLE6A20
011510H   011510H   000001H   BYTE   UNIT     XDATA          ?XD?BLE6A20_INIT?ZF_DEVICE_BLE6A20
011511H   011511H   000001H   BYTE   UNIT     XDATA          ?XD?IMU660RA_INIT?ZF_DEVICE_IMU660RA
011512H   011512H   000001H   BYTE   UNIT     XDATA          ?XD?TSL1401_COLLECT_PIT_HANDLER?ZF_DEVICE_TSL1401
011513H   011513H   000001H   BYTE   INSEG    XDATA          ?XD?ISR
011514H   011514H   000001H   BYTE   UNIT     XDATA          ?XD?IPS114_SHOW_INFO?IPS114
011515H   011515H   000001H   BYTE   UNIT     XDATA          ?XD?WRITEPOINT?GPS
011516H   011516H   000001H   BYTE   UNIT     XDATA          ?XD?READPOINT?GPS
011517H   011517H   000001H   BYTE   UNIT     XDATA          ?XD?QSPI_WRITE_INSTR?QSPI
011518H   011518H   000001H   BYTE   UNIT     XDATA          ?XD?QSPI_WRITE_QINSTR?QSPI
011519H   011519H   000001H   BYTE   UNIT     XDATA          ?XD?W25Q_READSR1_05?W25QXX
01151AH   01151AH   000001H   BYTE   UNIT     XDATA          ?XD?W25Q_QPI_READSR1_05?W25QXX
01151BH   01151BH   000001H   BYTE   UNIT     XDATA          ?XD?W25Q_READSR2_35?W25QXX
01151CH   01151CH   000001H   BYTE   UNIT     XDATA          ?XD?W25Q_QPI_READSR2_35?W25QXX
01151DH   01151DH   000001H   BYTE   UNIT     XDATA          ?XD?W25Q_READSR3_15?W25QXX
01151EH   01151EH   000001H   BYTE   UNIT     XDATA          ?XD?W25Q_QPI_READSR3_15?W25QXX
01151FH   01151FH   000001H   BYTE   UNIT     XDATA          ?XD?W25Q_WRITESR1_01?W25QXX
011520H   011520H   000001H   BYTE   UNIT     XDATA          ?XD?W25Q_QPI_WRITESR1_01?W25QXX
011521H   011521H   000001H   BYTE   UNIT     XDATA          ?XD?W25Q_WRITESR2_31?W25QXX
011522H   011522H   000001H   BYTE   UNIT     XDATA          ?XD?W25Q_QPI_WRITESR2_31?W25QXX
011523H   011523H   000001H   BYTE   UNIT     XDATA          ?XD?W25Q_WRITESR3_11?W25QXX
011524H   011524H   000001H   BYTE   UNIT     XDATA          ?XD?W25Q_QPI_WRITESR3_11?W25QXX
011525H   011525H   000001H   BYTE   UNIT     XDATA          ?XD?W25Q_READEAR_C8?W25QXX
011526H   011526H   000001H   BYTE   UNIT     XDATA          ?XD?W25Q_WRITEEAR_C5?W25QXX
011527H   011527H   000001H   BYTE   UNIT     XDATA          ?XD?W25Q_SETBURSTWRAP_77?W25QXX
011528H   011528H   000001H   BYTE   UNIT     XDATA          ?XD?W25Q_READDEVICEID_AB?W25QXX
011529H   011529H   000001H   BYTE   UNIT     XDATA          ?XD?W25Q_QPI_READDEVICEID_AB?W25QXX
01152AH   01152AH   000001H   BYTE   UNIT     XDATA          ?XD?W25Q_QPI_SETREADPARAM_C0?W25QXX
01152BH   FEFFFFH   FDEAD5H   ---    ---      **GAP**
FF0000H   FF0002H   000003H   ---    OFFS..   CODE           ?CO?START251?4
FF0003H   FF0009H   000007H   BYTE   INSEG    CODE           ?PR?W25Q_WAITBUSY?W25QXX
FF000AH   FF000AH   000001H   ---    ---      **GAP**
FF000BH   FF000DH   000003H   ---    OFFS..   CODE           ?PR?IV?1
FF000EH   FF0013H   000006H   BYTE   INSEG    CODE           ?PR?W25Q_WRITEENABLEVSR_50?W25QXX
FF0014H   FF0019H   000006H   BYTE   INSEG    CODE           ?PR?W25Q_WRITEENABLE_06?W25QXX
FF001AH   FF001AH   000001H   ---    ---      **GAP**
FF001BH   FF001DH   000003H   ---    OFFS..   CODE           ?PR?IV?3
FF001EH   FF0020H   000003H   BYTE   INSEG    CODE           ?PR?INTERRUPT_GLOBAL_ENABLE?ZF_COMMON_INTERRUPT
FF0021H   FF0022H   000002H   ---    ---      **GAP**
FF0023H   FF0025H   000003H   ---    OFFS..   CODE           ?PR?IV?4
FF0026H   FF0040H   00001BH   BYTE   INSEG    CODE           ?PR?PIT_HANLDER_GPS?ISR
FF0041H   FF0042H   000002H   ---    ---      **GAP**
FF0043H   FF0045H   000003H   ---    OFFS..   CODE           ?PR?IV?8
FF0046H   FF005FH   00001AH   BYTE   INSEG    CODE           ?PR?IPS114_WRITE_INDEX?ZF_DEVICE_IPS114
FF0060H   FF0062H   000003H   ---    ---      **GAP**
FF0063H   FF0065H   000003H   ---    OFFS..   CODE           ?PR?IV?12
FF0066H   FF008AH   000025H   BYTE   INSEG    CODE           ?PR?IPS114_SET_COLOR?ZF_DEVICE_IPS114
FF008BH   FF008DH   000003H   ---    OFFS..   CODE           ?PR?IV?17
FF008EH   FF0091H   000004H   BYTE   UNIT     CONST          ?CO?PRINTF
L251 LINKER/LOCATER V4.66.93.0                                                        05/06/2025  18:54:37  PAGE 10


FF0092H   FF0092H   000001H   ---    ---      **GAP**
FF0093H   FF0095H   000003H   ---    OFFS..   CODE           ?PR?IV?18
FF0096H   FF009AH   000005H   ---    ---      **GAP**
FF009BH   FF009DH   000003H   ---    OFFS..   CODE           ?PR?IV?19
FF009EH   FF00A2H   000005H   ---    ---      **GAP**
FF00A3H   FF00A5H   000003H   ---    OFFS..   CODE           ?PR?IV?20
FF00A6H   FF00BFH   00001AH   BYTE   INSEG    CODE           ?PR?MEMSET?_?MEMSET
FF00C0H   FF00C2H   000003H   ---    ---      **GAP**
FF00C3H   FF00C5H   000003H   ---    OFFS..   CODE           ?PR?IV?24
FF00C6H   FF0190H   0000CBH   BYTE   INSEG    CODE           ?PR?MY_PID_INIT?PID
FF0191H   FF0196H   000006H   BYTE   UNIT     HCONST         ?HC?ZF_DEVICE_IPS114
FF0197H   FF019AH   000004H   ---    ---      **GAP**
FF019BH   FF019DH   000003H   ---    OFFS..   CODE           ?CO?ai8051u_isr?1
FF019EH   FF01AAH   00000DH   ---    ---      **GAP**
FF01ABH   FF01ADH   000003H   ---    OFFS..   CODE           ?CO?ai8051u_isr?2
FF01AEH   FF01BAH   00000DH   ---    ---      **GAP**
FF01BBH   FF01BDH   000003H   ---    OFFS..   CODE           ?CO?ai8051u_isr?3
FF01BEH   FF01CAH   00000DH   ---    ---      **GAP**
FF01CBH   FF01CDH   000003H   ---    OFFS..   CODE           ?CO?ai8051u_isr?4
FF01CEH   FF0219H   00004CH   BYTE   INSEG    CODE           ?PR?STATEUPDATE?STATEMACHINE
FF021AH   FF021AH   000001H   ---    ---      **GAP**
FF021BH   FF021DH   000003H   ---    OFFS..   CODE           ?CO?ai8051u_isr?5
FF021EH   FF221DH   002000H   BYTE   UNIT     CODE           ?CO?ZF_DEVICE_CONFIG
FF221EH   FF3950H   001733H   BYTE   UNIT     CODE           ?C?LIB_CODE
FF3951H   FF428FH   00093FH   BYTE   INSEG    CODE           ?PR?ZF_SPRINTF?ZF_COMMON_FUNCTION
FF4290H   FF4B77H   0008E8H   BYTE   INSEG    CODE           ?PR?MAIN?MAIN
FF4B78H   FF538FH   000818H   BYTE   UNIT     CODE           ?CO?ZF_COMMON_FONT
FF5390H   FF5A57H   0006C8H   BYTE   INSEG    CODE           ?PR?GPS_GNRMC_PARSE?ZF_DEVICE_GPS_TAU1201
FF5A58H   FF5FE7H   000590H   BYTE   INSEG    CODE           ?PR?PWM_INIT?ZF_DRIVER_PWM
FF5FE8H   FF655EH   000577H   BYTE   INSEG    CODE           ?PR?GETEULER?FILTER
FF655FH   FF6ABAH   00055CH   BYTE   INSEG    CODE           ?PR?GET_TWO_POINTS_AZIMUTH?ZF_DEVICE_GPS_TAU1201
FF6ABBH   FF6FF5H   00053BH   BYTE   INSEG    CODE           ?PR?FIFO_WRITE_BUFFER?ZF_COMMON_FIFO
FF6FF6H   FF7519H   000524H   BYTE   INSEG    CODE           ?PR?FIFO_READ_BUFFER?ZF_COMMON_FIFO
FF751AH   FF79DEH   0004C5H   BYTE   INSEG    CODE           ?PR?GPIO_SET_DIR?ZF_DRIVER_GPIO
FF79DFH   FF7E55H   000477H   BYTE   INSEG    CODE           ?PR?SPI_INIT?ZF_DRIVER_SPI
FF7E56H   FF81F5H   0003A0H   BYTE   INSEG    CODE           ?PR?EULERTOQUATERNION?FILTER
FF81F6H   FF8567H   000372H   BYTE   INSEG    CODE           ?PR?GET_TWO_POINTS_DISTANCE?ZF_DEVICE_GPS_TAU1201
FF8568H   FF885AH   0002F3H   BYTE   INSEG    CODE           ?PR?PIT_INIT?ZF_DRIVER_PIT
FF885BH   FF8B44H   0002EAH   BYTE   INSEG    CODE           ?PR?FUNC_STR_TO_DOUBLE?ZF_COMMON_FUNCTION
FF8B45H   FF8E0BH   0002C7H   BYTE   INSEG    CODE           ?PR?GPIO_SET_LEVEL_SPEED?ZF_DRIVER_GPIO
FF8E0CH   FF90A2H   000297H   BYTE   INSEG    CODE           ?PR?GPIO_SET_MODE?ZF_DRIVER_GPIO
FF90A3H   FF9332H   000290H   BYTE   INSEG    CODE           ?PR?GPS_INIT?ZF_DEVICE_GPS_TAU1201
FF9333H   FF9583H   000251H   BYTE   INSEG    CODE           ?PR?UART_INIT?ZF_DRIVER_UART
FF9584H   FF97C6H   000243H   BYTE   INSEG    CODE           ?PR?PIDLOCCTRL?PID
FF97C7H   FF99FEH   000238H   BYTE   INSEG    CODE           ?PR?IPS114_INIT?ZF_DEVICE_IPS114
FF99FFH   FF9C35H   000237H   BYTE   INSEG    CODE           ?PR?IMU660RA_INIT?ZF_DEVICE_IMU660RA
FF9C36H   FF9E54H   00021FH   BYTE   INSEG    CODE           ?PR?IPS114_SHOW_INFO?IPS114
FF9E55H   FFA046H   0001F2H   BYTE   INSEG    CODE           ?PR?GPS_DATA_PARSE?ZF_DEVICE_GPS_TAU1201
FFA047H   FFA230H   0001EAH   BYTE   INSEG    CODE           ?PR?QSPI_READ_INSTR_SADDR24_DUMMY_QDATA?QSPI
FFA231H   FFA40DH   0001DDH   BYTE   INSEG    CODE           ?PR?PIT_HANLDER_IMU?ISR
FFA40EH   FFA5BAH   0001ADH   BYTE   INSEG    CODE           ?PR?FUNC_STR_TO_HEX?ZF_COMMON_FUNCTION
FFA5BBH   FFA767H   0001ADH   BYTE   INSEG    CODE           ?PR?QSPI_WRITE_INSTR_SADDR24_QDATA?QSPI
FFA768H   FFA911H   0001AAH   BYTE   INSEG    CODE           ?PR?IPS114_SHOW_FLOAT?ZF_DEVICE_IPS114
FFA912H   FFAABAH   0001A9H   BYTE   INSEG    CODE           ?PR?GPIO_SET_LEVEL?ZF_DRIVER_GPIO
FFAABBH   FFAC55H   00019BH   BYTE   INSEG    CODE           ?PR?POW?_?POW
FFAC56H   FFADEEH   000199H   BYTE   INSEG    CODE           ?PR?UTC_TO_BTC?ZF_DEVICE_GPS_TAU1201
FFADEFH   FFAF76H   000188H   BYTE   INSEG    CODE           ?PR?PWM_SET_DUTY?ZF_DRIVER_PWM
FFAF77H   FFB0FBH   000185H   BYTE   INSEG    CODE           ?PR?UART_DMA_INIT?ZF_DRIVER_UART
FFB0FCH   FFB27FH   000184H   BYTE   INSEG    CODE           ?PR?GPS_UART_CALLBACK?ZF_DEVICE_GPS_TAU1201
FFB280H   FFB3FEH   00017FH   BYTE   INSEG    CODE           ?PR?NUMBER_CONVERSION_ASCII?ZF_COMMON_FUNCTION
FFB3FFH   FFB56FH   000171H   BYTE   INSEG    CODE           ?PR?GPIO_SET_IMPEDANCE?ZF_DRIVER_GPIO
FFB570H   FFB6DEH   00016FH   BYTE   INSEG    CODE           ?PR?IPS114_SET_REGION?ZF_DEVICE_IPS114
FFB6DFH   FFB844H   000166H   BYTE   INSEG    CODE           ?PR?MY_ATAN2?FILTER
FFB845H   FFB9A4H   000160H   BYTE   INSEG    CODE           ?PR?QSPI_READ_INSTR_SDATA?QSPI
FFB9A5H   FFBAE7H   000143H   BYTE   INSEG    CODE           ?PR?BLE6A20_SEND_STRING?ZF_DEVICE_BLE6A20
L251 LINKER/LOCATER V4.66.93.0                                                        05/06/2025  18:54:37  PAGE 11


FFBAE8H   FFBC27H   000140H   BYTE   INSEG    CODE           ?PR?FIFO_CLEAR?ZF_COMMON_FIFO
FFBC28H   FFBD67H   000140H   BYTE   INSEG    CODE           ?PR?PID_PARAM_INIT?PID
FFBD68H   FFBEA0H   000139H   BYTE   INSEG    CODE           ?PR?UART_WRITE_BUFFER?ZF_DRIVER_UART
FFBEA1H   FFBFD7H   000137H   BYTE   INSEG    CODE           ?PR?QSPI_WRITE_INSTR_SADDR24?QSPI
FFBFD8H   FFC107H   000130H   BYTE   INSEG    CODE           ?PR?ANGLE_PID_FUN?PID
FFC108H   FFC230H   000129H   BYTE   INSEG    CODE           ?PR?QSPI_WRITE_INSTR_SADDR16?QSPI
FFC231H   FFC355H   000125H   BYTE   INSEG    CODE           ?PR?QSPI_WRITE_INSTR_SADDR8?QSPI
FFC356H   FFC46FH   00011AH   BYTE   INSEG    CODE           ?PR?IPS114_SHOW_UNIT?IPS114
FFC470H   FFC583H   000114H   BYTE   INSEG    CODE           ?PR?FUNC_STR_TO_INT?ZF_COMMON_FUNCTION
FFC584H   FFC68CH   000109H   BYTE   INSEG    CODE           ?PR?PIT_HANLDER_ANGLE?ISR
FFC68DH   FFC793H   000107H   BYTE   INSEG    CODE           ?PR?GPIO_GET_LEVEL?ZF_DRIVER_GPIO
FFC794H   FFC89AH   000107H   BYTE   INSEG    CODE           ?PR?W25Q_PAGEPROGRAM_32?W25QXX
FFC89BH   FFC992H   0000F8H   BYTE   INSEG    CODE           ?PR?GPS_GNGGA_PARSE?ZF_DEVICE_GPS_TAU1201
FFC993H   FFCA7FH   0000EDH   BYTE   INSEG    CODE           ?PR?PRINTF_REVERSE_ORDER?ZF_COMMON_FUNCTION
FFCA80H   FFCB6BH   0000ECH   BYTE   INSEG    CODE           ?PR?CLOCK_INIT?ZF_COMMON_CLOCK
FFCB6CH   FFCC54H   0000E9H   BYTE   INSEG    CODE           ?PR?QSPI_INIT?QSPI
FFCC55H   FFCD2BH   0000D7H   BYTE   INSEG    CODE           ?PR?GPIO_INIT?ZF_DRIVER_GPIO
FFCD2CH   FFCDEAH   0000BFH   BYTE   INSEG    CODE           ?PR?GET_PARAMETER_INDEX?ZF_DEVICE_GPS_TAU1201
FFCDEBH   FFCEA6H   0000BCH   BYTE   INSEG    CODE           ?PR?IPS114_SHOW_CHAR?ZF_DEVICE_IPS114
FFCEA7H   FFCF62H   0000BCH   BYTE   INSEG    CODE           ?PR?IMU660RA_READ_REGISTERS?ZF_DEVICE_IMU660RA
FFCF63H   FFD018H   0000B6H   BYTE   INSEG    CODE           ?PR?W25Q_FASTREAD_6B?W25QXX
FFD019H   FFD0CAH   0000B2H   BYTE   INSEG    CODE           ?PR?UART_RX_START_BUFF?ZF_DRIVER_UART
FFD0CBH   FFD17BH   0000B1H   BYTE   INSEG    CODE           ?PR?FIFO_INIT?ZF_COMMON_FIFO
FFD17CH   FFD22AH   0000AFH   BYTE   INSEG    CODE           ?PR?QSPI_WRITE_INSTR?QSPI
FFD22BH   FFD2D2H   0000A8H   BYTE   INSEG    CODE           ?PR?GET_DOUBLE_NUMBER?ZF_DEVICE_GPS_TAU1201
FFD2D3H   FFD377H   0000A5H   BYTE   INSEG    CODE           ?PR?DMA_UART1_IRQHANDLER?ISR
FFD378H   FFD415H   00009EH   BYTE   INSEG    CODE           ?PR?DEBUG_INIT?ZF_COMMON_DEBUG
FFD416H   FFD4AEH   000099H   BYTE   INSEG    CODE           ?PR?FOCF?FILTER
FFD4AFH   FFD545H   000097H   BYTE   INSEG    CODE           ?PR?FIFO_HEAD_OFFSET?ZF_COMMON_FIFO
FFD546H   FFD5DCH   000097H   BYTE   INSEG    CODE           ?PR?FIFO_END_OFFSET?ZF_COMMON_FIFO
FFD5DDH   FFD673H   000097H   BYTE   INSEG    CODE           ?PR?SET_GPS_TYPE?ZF_DEVICE_TYPE
FFD674H   FFD70AH   000097H   BYTE   INSEG    CODE           ?PR?SET_WIRELESS_TYPE?ZF_DEVICE_TYPE
FFD70BH   FFD79FH   000095H   BYTE   INSEG    CODE           ?PR?IPS114_SHOW_UINT8?ZF_DEVICE_IPS114
FFD7A0H   FFD834H   000095H   BYTE   INSEG    CODE           ?PR?READPOINT?GPS
FFD835H   FFD8C5H   000091H   BYTE   INSEG    CODE           ?PR?GET_FLOAT_NUMBER?ZF_DEVICE_GPS_TAU1201
FFD8C6H   FFD954H   00008FH   BYTE   INSEG    CODE           ?PR?UART_QUERY_BYTE?ZF_DRIVER_UART
FFD955H   FFD9E0H   00008CH   BYTE   INSEG    CODE           ?PR?MY_PIT_INIT?ISR
FFD9E1H   FFDA69H   000089H   BYTE   INSEG    CODE           ?PR?DMA_UART2_IRQHANDLER?ISR
FFDA6AH   FFDAF2H   000089H   BYTE   INSEG    CODE           ?PR?DMA_UART3_IRQHANDLER?ISR
FFDAF3H   FFDB7BH   000089H   BYTE   INSEG    CODE           ?PR?DMA_UART4_IRQHANDLER?ISR
FFDB7CH   FFDC03H   000088H   BYTE   INSEG    CODE           ?PR?SYSTEM_DELAY_MS?ZF_DRIVER_DELAY
FFDC04H   FFDC8BH   000088H   BYTE   INSEG    CODE           ?PR?BLE6A20_INIT?ZF_DEVICE_BLE6A20
FFDC8CH   FFDD0DH   000082H   BYTE   INSEG    CODE           ?PR?GET_INT_NUMBER?ZF_DEVICE_GPS_TAU1201
FFDD0EH   FFDD85H   000078H   BYTE   INSEG    CODE           ?PR?IMU660RA_GET_GYRO?ZF_DEVICE_IMU660RA
FFDD86H   FFDDFDH   000078H   BYTE   INSEG    CODE           ?PR?IMU660RA_GET_ACC?ZF_DEVICE_IMU660RA
FFDDFEH   FFDE72H   000075H   BYTE   INSEG    CODE           ?PR?IPS114_SHOW_STRING?ZF_DEVICE_IPS114
FFDE73H   FFDEE5H   000073H   BYTE   INSEG    CODE           ?PR?IPS114_CLEAR?ZF_DEVICE_IPS114
FFDEE6H   FFDF4FH   00006AH   BYTE   INSEG    CODE           ?PR?SPI_READ_8BIT_REGISTERS?ZF_DRIVER_SPI
FFDF50H   FFDFB8H   000069H   BYTE   INSEG    CODE           ?PR?CONSTRAIN_FLOAT?PID
FFDFB9H   FFE01BH   000063H   BYTE   INSEG    CODE           ?PR?SPI_READ_DAT?ZF_DRIVER_SPI
FFE01CH   FFE07DH   000062H   BYTE   INSEG    CODE           ?PR?BLE6A20_READ_BUFFER?ZF_DEVICE_BLE6A20
FFE07EH   FFE0DCH   00005FH   BYTE   INSEG    CODE           ?PR?IMU660RA_SELF_CHECK?ZF_DEVICE_IMU660RA
FFE0DDH   FFE139H   00005DH   BYTE   INSEG    CODE           ?PR?SYSTEM_DELAY_INIT?ZF_DRIVER_DELAY
FFE13AH   FFE196H   00005DH   BYTE   INSEG    CODE           ?PR?MY_PWM_INIT?PWM
FFE197H   FFE1F2H   00005CH   BYTE   INSEG    CODE           ?PR?SPI_WRITE_8BIT_REGISTERS?ZF_DRIVER_SPI
FFE1F3H   FFE213H   000021H   BYTE   UNIT     CODE           ?C_C51STARTUP
FFE214H   FFE219H   000006H   BYTE   UNIT     CODE           ?C_C51STARTUP?1
FFE21AH   FFE24AH   000031H   BYTE   UNIT     CODE           ?C_C51STARTUP?2
FFE24BH   FFE24DH   000003H   BYTE   UNIT     CODE           ?C_C51STARTUP?3
FFE24EH   FFE2A5H   000058H   BYTE   INSEG    CODE           ?PR?BLUE_TOOTH_READ?BLUETOOTH
FFE2A6H   FFE2FBH   000056H   BYTE   INSEG    CODE           ?PR?INIT?INIT
FFE2FCH   FFE350H   000055H   BYTE   INSEG    CODE           ?PR?UART_RX_INTERRUPT?ZF_DRIVER_UART
FFE351H   FFE3A5H   000055H   BYTE   INSEG    CODE           ?PR?BLE6A20_SEND_BYTE?ZF_DEVICE_BLE6A20
FFE3A6H   FFE3F8H   000053H   BYTE   INSEG    CODE           ?PR?IMU660RA_WRITE_REGISTERS?ZF_DEVICE_IMU660RA
FFE3F9H   FFE44AH   000052H   BYTE   INSEG    CODE           ?PR?CONSTRAIN_UINT32?PID
L251 LINKER/LOCATER V4.66.93.0                                                        05/06/2025  18:54:37  PAGE 12


FFE44BH   FFE495H   00004BH   BYTE   INSEG    CODE           ?PR?TM11_IRQHANDLER?ISR
FFE496H   FFE4DCH   000047H   BYTE   INSEG    CODE           ?PR?SPI_WRITE_DAT?ZF_DRIVER_SPI
FFE4DDH   FFE51AH   00003EH   BYTE   INSEG    CODE           ?PR?TM0_IRQHANDLER?ISR
FFE51BH   FFE558H   00003EH   BYTE   INSEG    CODE           ?PR?TM1_IRQHANDLER?ISR
FFE559H   FFE596H   00003EH   BYTE   INSEG    CODE           ?PR?TM2_IRQHANDLER?ISR
FFE597H   FFE5D4H   00003EH   BYTE   INSEG    CODE           ?PR?TM3_IRQHANDLER?ISR
FFE5D5H   FFE612H   00003EH   BYTE   INSEG    CODE           ?PR?TM4_IRQHANDLER?ISR
FFE613H   FFE64FH   00003DH   BYTE   INSEG    CODE           ?PR?IMU660RA_READ_REGISTER?ZF_DEVICE_IMU660RA
FFE650H   FFE688H   000039H   BYTE   INSEG    CODE           ?PR?DEBUG_INTERRUPR_HANDLER?ZF_COMMON_DEBUG
FFE689H   FFE6C1H   000039H   BYTE   INSEG    CODE           ?PR?IPS114_SET_DIR?ZF_DEVICE_IPS114
FFE6C2H   FFE6F9H   000038H   BYTE   INSEG    CODE           ?PR?W25Q_ENABLE_QE?W25QXX
FFE6FAH   FFE730H   000037H   BYTE   INSEG    CODE           ?PR?STRNCMP?_?STRNCMP
FFE731H   FFE765H   000035H   BYTE   INSEG    CODE           ?PR?SPI_WRITE_16BIT?ZF_DRIVER_SPI
FFE766H   FFE796H   000031H   BYTE   INSEG    CODE           ?PR?FIFO_USED?ZF_COMMON_FIFO
FFE797H   FFE7C6H   000030H   BYTE   INSEG    CODE           ?PR?STRNCPY?_?STRNCPY
FFE7C7H   FFE7F3H   00002DH   BYTE   INSEG    CODE           ?PR?IMU660RA_WRITE_REGISTER?ZF_DEVICE_IMU660RA
FFE7F4H   FFE81EH   00002BH   BYTE   INSEG    CODE           ?PR?SPI_WRITE_8BIT_REGISTER?ZF_DRIVER_SPI
FFE81FH   FFE846H   000028H   BYTE   INSEG    CODE           ?PR?W25Q_READJEDECID_9F?W25QXX
FFE847H   FFE86DH   000027H   BYTE   INSEG    CODE           ?PR?W25Q_ERASE4K_20?W25QXX
FFE86EH   FFE893H   000026H   BYTE   INSEG    CODE           ?PR?BLE6A20_CALLBACK?ZF_DEVICE_BLE6A20
FFE894H   FFE8B8H   000025H   BYTE   INSEG    CODE           ?PR?MEMCPY?_?MEMCPY
FFE8B9H   FFE8DAH   000022H   BYTE   INSEG    CODE           ?PR?WRITEPOINT?GPS
FFE8DBH   FFE8FAH   000020H   BYTE   INSEG    CODE           ?PR?UART_WRITE_BYTE?ZF_DRIVER_UART
FFE8FBH   FFE919H   00001FH   BYTE   INSEG    CODE           ?PR?STRCHR?_?STRCHR
FFE91AH   FFE931H   000018H   BYTE   INSEG    CODE           ?PR?SPI_WRITE_8BIT?ZF_DRIVER_SPI
FFE932H   FFE948H   000017H   BYTE   INSEG    CODE           ?PR?W25Q_WRITESR2_31?W25QXX
FFE949H   FFE95EH   000016H   BYTE   INSEG    CODE           ?PR?W25Q_READSR1_05?W25QXX
FFE95FH   FFE974H   000016H   BYTE   INSEG    CODE           ?PR?W25Q_READSR2_35?W25QXX
FFE975H   FFE986H   000012H   BYTE   INSEG    CODE           ?PR?PUTCHAR?ZF_COMMON_DEBUG
FFE987H   FFE998H   000012H   BYTE   INSEG    CODE           ?PR?W25Q_WRITESR12_01?W25QXX
FFE999H   FFE9A6H   00000EH   BYTE   INSEG    CODE           ?PR?STRLEN?_?STRLEN
FFE9A7H   FFECCEH   000328H   BYTE   UNIT     HCONST         ?C_INITHDATA
FFECCFH   FFED75H   0000A7H   BYTE   UNIT     HCONST         ?HC?ZF_DEVICE_IMU660RA
FFED76H   FFEE17H   0000A2H   BYTE   UNIT     HCONST         ?HC?ZF_DEVICE_GPS_TAU1201
FFEE18H   FFEE9AH   000083H   BYTE   UNIT     HCONST         ?HC?MAIN
FFEE9BH   FFEF1AH   000080H   BYTE   UNIT     HCONST         ?HC?ZF_DEVICE_BLE6A20
FFEF1BH   FFEF7AH   000060H   BYTE   UNIT     HCONST         ?HC?ZF_DRIVER_PWM
FFEF7BH   FFEFADH   000033H   BYTE   UNIT     HCONST         ?HC?IPS114
FFEFAEH   FFEFD1H   000024H   BYTE   UNIT     HCONST         ?HC?STATEMACHINE
FFEFD2H   FFEFECH   00001BH   BYTE   UNIT     HCONST         ?HC?BLUETOOTH
FFEFEDH   FFF001H   000015H   BYTE   UNIT     HCONST         ?HC?INIT
FFF002H   FFF011H   000010H   BYTE   UNIT     HCONST         ?HC?ZF_COMMON_FUNCTION

* * * * * * * * *   R E M O V E D     S E G M E N T S   * * * * * * * *
   *DEL*:           00004EH   BYTE   INSEG    CODE           ?PR?DEBUG_READ_BUFFER?ZF_COMMON_DEBUG
   *DEL*:           000065H   BYTE   INSEG    CODE           ?PR?DEBUG_SEND_BUFFER?ZF_COMMON_DEBUG
   *DEL*:           00038DH   BYTE   INSEG    CODE           ?PR?FUNC_DOUBLE_TO_STR?ZF_COMMON_FUNCTION
   *DEL*:           000354H   BYTE   INSEG    CODE           ?PR?FUNC_FLOAT_TO_STR?ZF_COMMON_FUNCTION
   *DEL*:           000241H   BYTE   INSEG    CODE           ?PR?FUNC_STR_TO_FLOAT?ZF_COMMON_FUNCTION
   *DEL*:           000024H   BYTE   INSEG    CODE           ?PR?FUNC_SOFT_DELAY?ZF_COMMON_FUNCTION
   *DEL*:           0000E7H   BYTE   INSEG    CODE           ?PR?FUNC_UINT_TO_STR?ZF_COMMON_FUNCTION
   *DEL*:           00009AH   BYTE   INSEG    CODE           ?PR?FUNC_STR_TO_UINT?ZF_COMMON_FUNCTION
   *DEL*:           000150H   BYTE   INSEG    CODE           ?PR?FUNC_HEX_TO_STR?ZF_COMMON_FUNCTION
   *DEL*:           000181H   BYTE   INSEG    CODE           ?PR?FUNC_INT_TO_STR?ZF_COMMON_FUNCTION
   *DEL*:           0000A6H   BYTE   INSEG    CODE           ?PR?FUNC_GET_GREATEST_COMMON_DIVISOR?ZF_COMMON_FUNCTION
   *DEL*:           000003H   BYTE   INSEG    CODE           ?PR?INTERRUPT_GLOBAL_DISABLE?ZF_COMMON_INTERRUPT
   *DEL*:           000108H   BYTE   INSEG    CODE           ?PR?INTERRUPT_SET_PRIORITY?ZF_COMMON_INTERRUPT
   *DEL*:           000078H   BYTE   INSEG    CODE           ?PR?ADC_MEAN_FILTER_CONVERT?ZF_DRIVER_ADC
   *DEL*:           000065H   BYTE   INSEG    CODE           ?PR?ADC_CONVERT?ZF_DRIVER_ADC
   *DEL*:           0000AFH   BYTE   INSEG    CODE           ?PR?ADC_INIT?ZF_DRIVER_ADC
   *DEL*:           000088H   BYTE   INSEG    CODE           ?PR?SYSTEM_DELAY_US?ZF_DRIVER_DELAY
   *DEL*:           000134H   BYTE   INSEG    CODE           ?PR?ENCODER_GET_COUNT?ZF_DRIVER_ENCODER
   *DEL*:           0000D0H   BYTE   INSEG    CODE           ?PR?ENCODER_DIR_INIT?ZF_DRIVER_ENCODER
   *DEL*:           0000A1H   BYTE   INSEG    CODE           ?PR?ENCODER_CLEAR_COUNT?ZF_DRIVER_ENCODER
   *DEL*:           000029H   BYTE   INSEG    CODE           ?PR?GPIO_TOGGLE_LEVEL?ZF_DRIVER_GPIO
L251 LINKER/LOCATER V4.66.93.0                                                        05/06/2025  18:54:37  PAGE 13


   *DEL*:           000273H   BYTE   INSEG    CODE           ?PR?PWM_SET_FREQ?ZF_DRIVER_PWM
   *DEL*:           0000B3H   BYTE   INSEG    CODE           ?PR?SOFT_IIC_WAIT_ACK?ZF_DRIVER_SOFT_IIC
   *DEL*:           000092H   BYTE   INSEG    CODE           ?PR?SOFT_IIC_STOP?ZF_DRIVER_SOFT_IIC
   *DEL*:           00006EH   BYTE   INSEG    CODE           ?PR?SOFT_IIC_WRITE_8BIT_REGISTER?ZF_DRIVER_SOFT_IIC
   *DEL*:           000134H   BYTE   INSEG    CODE           ?PR?SOFT_IIC_READ_16BIT_REGISTERS?ZF_DRIVER_SOFT_IIC
   *DEL*:           0000ACH   BYTE   INSEG    CODE           ?PR?SOFT_IIC_SCCB_READ_REGISTER?ZF_DRIVER_SOFT_IIC
   *DEL*:           0000EBH   BYTE   INSEG    CODE           ?PR?SOFT_IIC_READ_16BIT_REGISTER?ZF_DRIVER_SOFT_IIC
   *DEL*:           00017BH   BYTE   INSEG    CODE           ?PR?SOFT_IIC_TRANSFER_16BIT_ARRAY?ZF_DRIVER_SOFT_IIC
   *DEL*:           0000DAH   BYTE   INSEG    CODE           ?PR?SOFT_IIC_WRITE_16BIT_REGISTERS?ZF_DRIVER_SOFT_IIC
   *DEL*:           00006EH   BYTE   INSEG    CODE           ?PR?SOFT_IIC_SCCB_WRITE_REGISTER?ZF_DRIVER_SOFT_IIC
   *DEL*:           000060H   BYTE   INSEG    CODE           ?PR?SOFT_IIC_READ_8BIT?ZF_DRIVER_SOFT_IIC
   *DEL*:           0000ACH   BYTE   INSEG    CODE           ?PR?SOFT_IIC_READ_8BIT_ARRAY?ZF_DRIVER_SOFT_IIC
   *DEL*:           0000AEH   BYTE   INSEG    CODE           ?PR?SOFT_IIC_WRITE_16BIT_REGISTER?ZF_DRIVER_SOFT_IIC
   *DEL*:           000057H   BYTE   INSEG    CODE           ?PR?SOFT_IIC_WRITE_8BIT?ZF_DRIVER_SOFT_IIC
   *DEL*:           00008AH   BYTE   INSEG    CODE           ?PR?SOFT_IIC_WRITE_8BIT_ARRAY?ZF_DRIVER_SOFT_IIC
   *DEL*:           000038H   BYTE   INSEG    CODE           ?PR?SOFT_IIC_DELAY?ZF_DRIVER_SOFT_IIC
   *DEL*:           00010AH   BYTE   INSEG    CODE           ?PR?SOFT_IIC_READ_DATA?ZF_DRIVER_SOFT_IIC
   *DEL*:           00008BH   BYTE   INSEG    CODE           ?PR?SOFT_IIC_READ_16BIT?ZF_DRIVER_SOFT_IIC
   *DEL*:           0000C3H   BYTE   INSEG    CODE           ?PR?SOFT_IIC_SEND_DATA?ZF_DRIVER_SOFT_IIC
   *DEL*:           0000DEH   BYTE   INSEG    CODE           ?PR?SOFT_IIC_READ_16BIT_ARRAY?ZF_DRIVER_SOFT_IIC
   *DEL*:           00007DH   BYTE   INSEG    CODE           ?PR?SOFT_IIC_START?ZF_DRIVER_SOFT_IIC
   *DEL*:           000094H   BYTE   INSEG    CODE           ?PR?SOFT_IIC_INIT?ZF_DRIVER_SOFT_IIC
   *DEL*:           0000EBH   BYTE   INSEG    CODE           ?PR?SOFT_IIC_READ_8BIT_REGISTERS?ZF_DRIVER_SOFT_IIC
   *DEL*:           000078H   BYTE   INSEG    CODE           ?PR?SOFT_IIC_WRITE_16BIT?ZF_DRIVER_SOFT_IIC
   *DEL*:           0000AEH   BYTE   INSEG    CODE           ?PR?SOFT_IIC_WRITE_16BIT_ARRAY?ZF_DRIVER_SOFT_IIC
   *DEL*:           0000ADH   BYTE   INSEG    CODE           ?PR?SOFT_IIC_SEND_ACK?ZF_DRIVER_SOFT_IIC
   *DEL*:           00009FH   BYTE   INSEG    CODE           ?PR?SOFT_IIC_READ_8BIT_REGISTER?ZF_DRIVER_SOFT_IIC
   *DEL*:           000125H   BYTE   INSEG    CODE           ?PR?SOFT_IIC_TRANSFER_8BIT_ARRAY?ZF_DRIVER_SOFT_IIC
   *DEL*:           00009FH   BYTE   INSEG    CODE           ?PR?SOFT_IIC_WRITE_8BIT_REGISTERS?ZF_DRIVER_SOFT_IIC
   *DEL*:           0000B2H   BYTE   INSEG    CODE           ?PR?SPI_READ_16BIT_REGISTERS?ZF_DRIVER_SPI
   *DEL*:           000073H   BYTE   INSEG    CODE           ?PR?SPI_READ_16BIT_REGISTER?ZF_DRIVER_SPI
   *DEL*:           000100H   BYTE   INSEG    CODE           ?PR?SPI_TRANSFER_16BIT?ZF_DRIVER_SPI
   *DEL*:           00007EH   BYTE   INSEG    CODE           ?PR?SPI_WRITE_16BIT_REGISTERS?ZF_DRIVER_SPI
   *DEL*:           000011H   BYTE   INSEG    CODE           ?PR?SPI_READ_8BIT?ZF_DRIVER_SPI
   *DEL*:           000059H   BYTE   INSEG    CODE           ?PR?SPI_READ_8BIT_ARRAY?ZF_DRIVER_SPI
   *DEL*:           000063H   BYTE   INSEG    CODE           ?PR?SPI_WRITE_16BIT_REGISTER?ZF_DRIVER_SPI
   *DEL*:           00004BH   BYTE   INSEG    CODE           ?PR?SPI_WRITE_8BIT_ARRAY?ZF_DRIVER_SPI
   *DEL*:           000045H   BYTE   INSEG    CODE           ?PR?SPI_READ_16BIT?ZF_DRIVER_SPI
   *DEL*:           000084H   BYTE   INSEG    CODE           ?PR?SPI_READ_16BIT_ARRAY?ZF_DRIVER_SPI
   *DEL*:           00006BH   BYTE   INSEG    CODE           ?PR?SPI_WRITE_16BIT_ARRAY?ZF_DRIVER_SPI
   *DEL*:           000022H   BYTE   INSEG    CODE           ?PR?SPI_READ_8BIT_REGISTER?ZF_DRIVER_SPI
   *DEL*:           0000A0H   BYTE   INSEG    CODE           ?PR?SPI_TRANSFER_8BIT?ZF_DRIVER_SPI
   *DEL*:           000079H   BYTE   INSEG    CODE           ?PR?TIMER_FUNCITON_CHECK?ZF_DRIVER_TIMER
   *DEL*:           000066H   BYTE   INSEG    CODE           ?PR?UART_WRITE_STRING?ZF_DRIVER_UART
   *DEL*:           000067H   BYTE   INSEG    CODE           ?PR?UART_READ_BYTE?ZF_DRIVER_UART
   *DEL*:           000079H   BYTE   INSEG    CODE           ?PR?UART_FUNCITON_CHECK?ZF_DRIVER_UART
   *DEL*:           000039H   BYTE   INSEG    CODE           ?PR?IPS114_DRAW_POINT?ZF_DEVICE_IPS114
   *DEL*:           0000C5H   BYTE   INSEG    CODE           ?PR?IPS114_SHOW_UINT16?ZF_DEVICE_IPS114
   *DEL*:           000100H   BYTE   INSEG    CODE           ?PR?IPS114_SHOW_INT32?ZF_DEVICE_IPS114
   *DEL*:           000115H   BYTE   INSEG    CODE           ?PR?IPS114_SHOW_INT16?ZF_DEVICE_IPS114
   *DEL*:           0001AEH   BYTE   INSEG    CODE           ?PR?IPS114_SHOW_WAVE?ZF_DEVICE_IPS114
   *DEL*:           000194H   BYTE   INSEG    CODE           ?PR?IPS114_SHOW_CHINESE?ZF_DEVICE_IPS114
   *DEL*:           0000D5H   BYTE   INSEG    CODE           ?PR?IPS114_SHOW_INT8?ZF_DEVICE_IPS114
   *DEL*:           0000E3H   BYTE   INSEG    CODE           ?PR?BLE6A20_SEND_BUFFER?ZF_DEVICE_BLE6A20
   *DEL*:           0000AEH   BYTE   INSEG    CODE           ?PR?TSL1401_SEND_DATA?ZF_DEVICE_TSL1401
   *DEL*:           00003DH   BYTE   INSEG    CODE           ?PR?TSL1401_INIT?ZF_DEVICE_TSL1401
   *DEL*:           0000AFH   BYTE   INSEG    CODE           ?PR?TSL1401_COLLECT_PIT_HANDLER?ZF_DEVICE_TSL1401
   *DEL*:           00002DH   BYTE   INSEG    CODE           ?PR?SET_TOF_TYPE?ZF_DEVICE_TYPE
   *DEL*:           00005FH   BYTE   INSEG    CODE           ?PR?VELOCITY_PID_FUN?PID
   *DEL*:           00021CH   BYTE   INSEG    CODE           ?PR?PIDINCCTRL?PID
   *DEL*:           000049H   BYTE   INSEG    CODE           ?PR?CONSTRAIN_SHORT?PID
   *DEL*:           00008BH   BYTE   INSEG    CODE           ?PR?BLUE_TOOTH_READ_LOOP?BLUETOOTH
   *DEL*:           000046H   BYTE   INSEG    CODE           ?PR?QSPI_READ_QINSTR_QADDR24_QDATA?QSPI
   *DEL*:           0001CAH   BYTE   INSEG    CODE           ?PR?QSPI_DMA_READ_INSTR_DADDR32_DALT8_DDATA?QSPI
   *DEL*:           0001CAH   BYTE   INSEG    CODE           ?PR?QSPI_DMA_READ_INSTR_DADDR24_DALT8_DDATA?QSPI
L251 LINKER/LOCATER V4.66.93.0                                                        05/06/2025  18:54:37  PAGE 14


   *DEL*:           0001F4H   BYTE   INSEG    CODE           ?PR?QSPI_READ_INSTR_SADDR32_DUMMY_DDATA?QSPI
   *DEL*:           0001F4H   BYTE   INSEG    CODE           ?PR?QSPI_READ_INSTR_SADDR24_DUMMY_DDATA?QSPI
   *DEL*:           0001C2H   BYTE   INSEG    CODE           ?PR?QSPI_DMA_READ_INSTR_QADDR32_QALT8_DUMMY_QDATA?QSPI
   *DEL*:           0001C2H   BYTE   INSEG    CODE           ?PR?QSPI_DMA_READ_INSTR_QADDR24_QALT8_DUMMY_QDATA?QSPI
   *DEL*:           0001EAH   BYTE   INSEG    CODE           ?PR?QSPI_READ_INSTR_SADDR32_DUMMY_QDATA?QSPI
   *DEL*:           0001ADH   BYTE   INSEG    CODE           ?PR?QSPI_WRITE_INSTR_SADDR32_QDATA?QSPI
   *DEL*:           0001F4H   BYTE   INSEG    CODE           ?PR?QSPI_READ_INSTR_SADDR32_DUMMY_SDATA?QSPI
   *DEL*:           0001F4H   BYTE   INSEG    CODE           ?PR?QSPI_READ_INSTR_SADDR24_DUMMY_SDATA?QSPI
   *DEL*:           0001B7H   BYTE   INSEG    CODE           ?PR?QSPI_WRITE_INSTR_SADDR32_SDATA?QSPI
   *DEL*:           00018BH   BYTE   INSEG    CODE           ?PR?QSPI_DMA_READ_QINSTR_QADDR24_DUMMY_QDATA?QSPI
   *DEL*:           000123H   BYTE   INSEG    CODE           ?PR?QSPI_WRITE_QINSTR_QADDR24?QSPI
   *DEL*:           0001B7H   BYTE   INSEG    CODE           ?PR?QSPI_WRITE_INSTR_SADDR24_SDATA?QSPI
   *DEL*:           000046H   BYTE   INSEG    CODE           ?PR?QSPI_READ_INSTR_SADDR32_SDATA?QSPI
   *DEL*:           000046H   BYTE   INSEG    CODE           ?PR?QSPI_READ_INSTR_SADDR24_SDATA?QSPI
   *DEL*:           000203H   BYTE   INSEG    CODE           ?PR?QSPI_READ_QINSTR_QADDR24_QALT8_DUMMY_QDATA?QSPI
   *DEL*:           000175H   BYTE   INSEG    CODE           ?PR?QSPI_POLLING_READ_QINSTR_QDATA?QSPI
   *DEL*:           0001A9H   BYTE   INSEG    CODE           ?PR?QSPI_DMA_READ_INSTR_SADDR32_DUMMY_DDATA?QSPI
   *DEL*:           0001A9H   BYTE   INSEG    CODE           ?PR?QSPI_DMA_READ_INSTR_SADDR24_DUMMY_DDATA?QSPI
   *DEL*:           00014CH   BYTE   INSEG    CODE           ?PR?QSPI_READ_QINSTR_QDATA?QSPI
   *DEL*:           00012DH   BYTE   INSEG    CODE           ?PR?QSPI_WRITE_INSTR_QADDR32?QSPI
   *DEL*:           00019FH   BYTE   INSEG    CODE           ?PR?QSPI_DMA_READ_INSTR_SADDR32_DUMMY_QDATA?QSPI
   *DEL*:           000137H   BYTE   INSEG    CODE           ?PR?QSPI_WRITE_INSTR_SADDR32?QSPI
   *DEL*:           000183H   BYTE   INSEG    CODE           ?PR?QSPI_DMA_WRITE_INSTR_SADDR32_QDATA?QSPI
   *DEL*:           00019FH   BYTE   INSEG    CODE           ?PR?QSPI_DMA_READ_INSTR_SADDR24_DUMMY_QDATA?QSPI
   *DEL*:           000215H   BYTE   INSEG    CODE           ?PR?QSPI_READ_INSTR_DADDR32_DALT8_DDATA?QSPI
   *DEL*:           000183H   BYTE   INSEG    CODE           ?PR?QSPI_DMA_WRITE_INSTR_SADDR24_QDATA?QSPI
   *DEL*:           0001A9H   BYTE   INSEG    CODE           ?PR?QSPI_DMA_READ_INSTR_SADDR32_DUMMY_SDATA?QSPI
   *DEL*:           000215H   BYTE   INSEG    CODE           ?PR?QSPI_READ_INSTR_DADDR24_DALT8_DDATA?QSPI
   *DEL*:           00018DH   BYTE   INSEG    CODE           ?PR?QSPI_DMA_WRITE_INSTR_SADDR32_SDATA?QSPI
   *DEL*:           0001A9H   BYTE   INSEG    CODE           ?PR?QSPI_DMA_READ_INSTR_SADDR24_DUMMY_SDATA?QSPI
   *DEL*:           00018DH   BYTE   INSEG    CODE           ?PR?QSPI_DMA_WRITE_INSTR_SADDR24_SDATA?QSPI
   *DEL*:           0000CEH   BYTE   INSEG    CODE           ?PR?QSPI_DMA_WRITE?QSPI
   *DEL*:           000046H   BYTE   INSEG    CODE           ?PR?QSPI_DMA_READ_INSTR_SADDR32_SDATA?QSPI
   *DEL*:           000046H   BYTE   INSEG    CODE           ?PR?QSPI_DMA_READ_INSTR_SADDR24_SDATA?QSPI
   *DEL*:           00020DH   BYTE   INSEG    CODE           ?PR?QSPI_READ_INSTR_QADDR32_QALT8_DUMMY_QDATA?QSPI
   *DEL*:           00020DH   BYTE   INSEG    CODE           ?PR?QSPI_READ_INSTR_QADDR24_QALT8_DUMMY_QDATA?QSPI
   *DEL*:           0000CEH   BYTE   INSEG    CODE           ?PR?QSPI_DMA_READ?QSPI
   *DEL*:           0000A5H   BYTE   INSEG    CODE           ?PR?QSPI_WRITE_QINSTR?QSPI
   *DEL*:           0001B8H   BYTE   INSEG    CODE           ?PR?QSPI_DMA_READ_QINSTR_QADDR24_QALT8_DUMMY_QDATA?QSPI
   *DEL*:           0001D6H   BYTE   INSEG    CODE           ?PR?QSPI_READ_QINSTR_QADDR24_DUMMY_QDATA?QSPI
   *DEL*:           000189H   BYTE   INSEG    CODE           ?PR?QSPI_POLLING_READ_INSTR_SDATA?QSPI
   *DEL*:           000111H   BYTE   INSEG    CODE           ?PR?QSPI_WRITE_QINSTR_QADDR8?QSPI
   *DEL*:           00001EH   BYTE   INSEG    CODE           ?PR?W25Q_QPI_READDEVICEID_AB?W25QXX
   *DEL*:           000004H   BYTE   INSEG    CODE           ?PR?W25Q_PROGRAMSUSPEND_75?W25QXX
   *DEL*:           000041H   BYTE   INSEG    CODE           ?PR?W25Q_DMA_FASTREAD_0B?W25QXX
   *DEL*:           00001AH   BYTE   INSEG    CODE           ?PR?W25Q_QPI_LOCKSECTOR_36?W25QXX
   *DEL*:           000028H   BYTE   INSEG    CODE           ?PR?W25Q_QPI_READJEDECID_9F?W25QXX
   *DEL*:           000044H   BYTE   INSEG    CODE           ?PR?W25Q_DMA_PAGEPROGRAM_ADDR32_12?W25QXX
   *DEL*:           000006H   BYTE   INSEG    CODE           ?PR?W25Q_UNLOCKGLOBAL_98?W25QXX
   *DEL*:           000041H   BYTE   INSEG    CODE           ?PR?W25Q_DMA_FASTREAD_3B?W25QXX
   *DEL*:           000044H   BYTE   INSEG    CODE           ?PR?W25Q_DMA_PAGEPROGRAM_ADDR32_34?W25QXX
   *DEL*:           000041H   BYTE   INSEG    CODE           ?PR?W25Q_DMA_FASTREAD_6B?W25QXX
   *DEL*:           000016H   BYTE   INSEG    CODE           ?PR?W25Q_READSR3_15?W25QXX
   *DEL*:           000107H   BYTE   INSEG    CODE           ?PR?W25Q_PAGEPROGRAM_02?W25QXX
   *DEL*:           000042H   BYTE   INSEG    CODE           ?PR?W25Q_DMA_OCTALWORDREAD_E3?W25QXX
   *DEL*:           00001AH   BYTE   INSEG    CODE           ?PR?W25Q_QPI_ERASECHIP_C7?W25QXX
   *DEL*:           000006H   BYTE   INSEG    CODE           ?PR?W25Q_QPI_RELEASEPOWERDOWN_AB?W25QXX
   *DEL*:           000030H   BYTE   INSEG    CODE           ?PR?W25Q_QPI_READLOCKSECTOR_3D?W25QXX
   *DEL*:           0000CDH   BYTE   INSEG    CODE           ?PR?W25Q_PROGRAMSECURITYREG_42?W25QXX
   *DEL*:           0000B6H   BYTE   INSEG    CODE           ?PR?W25Q_FASTREAD_ADDR32_0C?W25QXX
   *DEL*:           000040H   BYTE   INSEG    CODE           ?PR?W25Q_DMA_FASTREAD_BB?W25QXX
   *DEL*:           000006H   BYTE   INSEG    CODE           ?PR?W25Q_ERASESUSPEND_75?W25QXX
   *DEL*:           000010H   BYTE   INSEG    CODE           ?PR?W25Q_WRITESR1_01?W25QXX
   *DEL*:           0000B6H   BYTE   INSEG    CODE           ?PR?W25Q_FASTREAD_ADDR32_3C?W25QXX
   *DEL*:           000043H   BYTE   INSEG    CODE           ?PR?W25Q_DMA_FASTREAD_EB?W25QXX
L251 LINKER/LOCATER V4.66.93.0                                                        05/06/2025  18:54:37  PAGE 15


   *DEL*:           000010H   BYTE   INSEG    CODE           ?PR?W25Q_WRITESR3_11?W25QXX
   *DEL*:           000004H   BYTE   INSEG    CODE           ?PR?W25Q_PROGRAMRESUME_7A?W25QXX
   *DEL*:           0000B6H   BYTE   INSEG    CODE           ?PR?W25Q_FASTREAD_ADDR32_6C?W25QXX
   *DEL*:           000043H   BYTE   INSEG    CODE           ?PR?W25Q_DMA_WORDREAD_E7?W25QXX
   *DEL*:           0000B6H   BYTE   INSEG    CODE           ?PR?W25Q_QPI_FASTREAD_0B?W25QXX
   *DEL*:           000014H   BYTE   INSEG    CODE           ?PR?W25Q_SETBURSTWRAP_77?W25QXX
   *DEL*:           00001AH   BYTE   INSEG    CODE           ?PR?W25Q_UNLOCKSECTOR_39?W25QXX
   *DEL*:           000016H   BYTE   INSEG    CODE           ?PR?W25Q_READEAR_C8?W25QXX
   *DEL*:           00003AH   BYTE   INSEG    CODE           ?PR?W25Q_DMA_READDATA_ADDR32_13?W25QXX
   *DEL*:           000027H   BYTE   INSEG    CODE           ?PR?W25Q_QPI_ERASE32K_52?W25QXX
   *DEL*:           0000B5H   BYTE   INSEG    CODE           ?PR?W25Q_FASTREAD_ADDR32_BC?W25QXX
   *DEL*:           00001AH   BYTE   INSEG    CODE           ?PR?W25Q_ERASESECURITYREG_44?W25QXX
   *DEL*:           0000B8H   BYTE   INSEG    CODE           ?PR?W25Q_FASTREAD_ADDR32_EC?W25QXX
   *DEL*:           000006H   BYTE   INSEG    CODE           ?PR?W25Q_LOCKGLOBAL_7E?W25QXX
   *DEL*:           0000ADH   BYTE   INSEG    CODE           ?PR?W25Q_READDATA_03?W25QXX
   *DEL*:           000010H   BYTE   INSEG    CODE           ?PR?W25Q_QPI_SETREADPARAM_C0?W25QXX
   *DEL*:           000006H   BYTE   INSEG    CODE           ?PR?W25Q_ENTERQPIMODE_38?W25QXX
   *DEL*:           000010H   BYTE   INSEG    CODE           ?PR?W25Q_WRITEEAR_C5?W25QXX
   *DEL*:           000006H   BYTE   INSEG    CODE           ?PR?W25Q_ERASERESUME_7A?W25QXX
   *DEL*:           0000B7H   BYTE   INSEG    CODE           ?PR?W25Q_QPI_FASTREAD_EB?W25QXX
   *DEL*:           00001EH   BYTE   INSEG    CODE           ?PR?W25Q_READDEVICEID_AB?W25QXX
   *DEL*:           00000BH   BYTE   INSEG    CODE           ?PR?W25Q_QPI_RESETDEVICE_66_99?W25QXX
   *DEL*:           000006H   BYTE   INSEG    CODE           ?PR?W25Q_ENTERADDR32MODE_B7?W25QXX
   *DEL*:           000006H   BYTE   INSEG    CODE           ?PR?W25Q_QPI_EXITQPIMODE_FF?W25QXX
   *DEL*:           00001AH   BYTE   INSEG    CODE           ?PR?W25Q_LOCKSECTOR_36?W25QXX
   *DEL*:           0000B6H   BYTE   INSEG    CODE           ?PR?W25Q_READSECURITYREG_48?W25QXX
   *DEL*:           000027H   BYTE   INSEG    CODE           ?PR?W25Q_QPI_ERASE64K_D8?W25QXX
   *DEL*:           000044H   BYTE   INSEG    CODE           ?PR?W25Q_DMA_PAGEPROGRAM_02?W25QXX
   *DEL*:           000006H   BYTE   INSEG    CODE           ?PR?W25Q_QPI_POWERDOWN_B9?W25QXX
   *DEL*:           000027H   BYTE   INSEG    CODE           ?PR?W25Q_ERASE64K_ADDR32_DC?W25QXX
   *DEL*:           000013H   BYTE   INSEG    CODE           ?PR?W25Q_ERASECHIP_C7?W25QXX
   *DEL*:           000044H   BYTE   INSEG    CODE           ?PR?W25Q_DMA_PAGEPROGRAM_32?W25QXX
   *DEL*:           000020H   BYTE   INSEG    CODE           ?PR?W25Q_READID_90?W25QXX
   *DEL*:           000006H   BYTE   INSEG    CODE           ?PR?W25Q_RELEASEPOWERDOWN_AB?W25QXX
   *DEL*:           000030H   BYTE   INSEG    CODE           ?PR?W25Q_READLOCKSECTOR_3D?W25QXX
   *DEL*:           000006H   BYTE   INSEG    CODE           ?PR?W25Q_QPI_WRITEDISABLE_04?W25QXX
   *DEL*:           000026H   BYTE   INSEG    CODE           ?PR?W25Q_READID_92?W25QXX
   *DEL*:           000041H   BYTE   INSEG    CODE           ?PR?W25Q_DMA_FASTREAD_ADDR32_0C?W25QXX
   *DEL*:           000029H   BYTE   INSEG    CODE           ?PR?W25Q_READID_94?W25QXX
   *DEL*:           000041H   BYTE   INSEG    CODE           ?PR?W25Q_DMA_FASTREAD_ADDR32_3C?W25QXX
   *DEL*:           000004H   BYTE   INSEG    CODE           ?PR?W25Q_QPI_PROGRAMSUSPEND_75?W25QXX
   *DEL*:           000026H   BYTE   INSEG    CODE           ?PR?W25Q_READUNIQUEID_4B?W25QXX
   *DEL*:           000041H   BYTE   INSEG    CODE           ?PR?W25Q_DMA_FASTREAD_ADDR32_6C?W25QXX
   *DEL*:           000041H   BYTE   INSEG    CODE           ?PR?W25Q_QPI_DMA_FASTREAD_0B?W25QXX
   *DEL*:           0000B6H   BYTE   INSEG    CODE           ?PR?W25Q_FASTREAD_0B?W25QXX
   *DEL*:           000006H   BYTE   INSEG    CODE           ?PR?W25Q_QPI_UNLOCKGLOBAL_98?W25QXX
   *DEL*:           000107H   BYTE   INSEG    CODE           ?PR?W25Q_PAGEPROGRAM_ADDR32_12?W25QXX
   *DEL*:           0000B6H   BYTE   INSEG    CODE           ?PR?W25Q_FASTREAD_3B?W25QXX
   *DEL*:           000016H   BYTE   INSEG    CODE           ?PR?W25Q_QPI_READSR1_05?W25QXX
   *DEL*:           000006H   BYTE   INSEG    CODE           ?PR?W25Q_EXITADDR32MODE_E9?W25QXX
   *DEL*:           000006H   BYTE   INSEG    CODE           ?PR?W25Q_QPI_WRITEENABLEVSR_50?W25QXX
   *DEL*:           000107H   BYTE   INSEG    CODE           ?PR?W25Q_PAGEPROGRAM_ADDR32_34?W25QXX
   *DEL*:           000016H   BYTE   INSEG    CODE           ?PR?W25Q_QPI_READSR3_15?W25QXX
   *DEL*:           000016H   BYTE   INSEG    CODE           ?PR?W25Q_QPI_READSR2_35?W25QXX
   *DEL*:           000040H   BYTE   INSEG    CODE           ?PR?W25Q_DMA_FASTREAD_ADDR32_BC?W25QXX
   *DEL*:           000006H   BYTE   INSEG    CODE           ?PR?W25Q_QPI_WRITEENABLE_06?W25QXX
   *DEL*:           000027H   BYTE   INSEG    CODE           ?PR?W25Q_ERASE32K_52?W25QXX
   *DEL*:           0000B7H   BYTE   INSEG    CODE           ?PR?W25Q_OCTALWORDREAD_E3?W25QXX
   *DEL*:           0000B6H   BYTE   INSEG    CODE           ?PR?W25Q_QPI_BURSTREADWITHWRAP_0C?W25QXX
   *DEL*:           000043H   BYTE   INSEG    CODE           ?PR?W25Q_DMA_FASTREAD_ADDR32_EC?W25QXX
   *DEL*:           00003AH   BYTE   INSEG    CODE           ?PR?W25Q_DMA_READDATA_03?W25QXX
   *DEL*:           000006H   BYTE   INSEG    CODE           ?PR?W25Q_QPI_ERASESUSPEND_75?W25QXX
   *DEL*:           000010H   BYTE   INSEG    CODE           ?PR?W25Q_QPI_WRITESR1_01?W25QXX
   *DEL*:           0000B5H   BYTE   INSEG    CODE           ?PR?W25Q_FASTREAD_BB?W25QXX
   *DEL*:           000042H   BYTE   INSEG    CODE           ?PR?W25Q_QPI_DMA_FASTREAD_EB?W25QXX
L251 LINKER/LOCATER V4.66.93.0                                                        05/06/2025  18:54:37  PAGE 16


   *DEL*:           000010H   BYTE   INSEG    CODE           ?PR?W25Q_QPI_WRITESR3_11?W25QXX
   *DEL*:           000004H   BYTE   INSEG    CODE           ?PR?W25Q_QPI_PROGRAMRESUME_7A?W25QXX
   *DEL*:           000010H   BYTE   INSEG    CODE           ?PR?W25Q_QPI_WRITESR2_31?W25QXX
   *DEL*:           0000B8H   BYTE   INSEG    CODE           ?PR?W25Q_FASTREAD_EB?W25QXX
   *DEL*:           000027H   BYTE   INSEG    CODE           ?PR?W25Q_ERASE4K_ADDR32_21?W25QXX
   *DEL*:           00000BH   BYTE   INSEG    CODE           ?PR?W25Q_RESETDEVICE_66_99?W25QXX
   *DEL*:           0000B8H   BYTE   INSEG    CODE           ?PR?W25Q_WORDREAD_E7?W25QXX
   *DEL*:           00001AH   BYTE   INSEG    CODE           ?PR?W25Q_QPI_UNLOCKSECTOR_39?W25QXX
   *DEL*:           000027H   BYTE   INSEG    CODE           ?PR?W25Q_QPI_ERASE4K_20?W25QXX
   *DEL*:           0000ADH   BYTE   INSEG    CODE           ?PR?W25Q_READDATA_ADDR32_13?W25QXX
   *DEL*:           0000A8H   BYTE   INSEG    CODE           ?PR?W25Q_READSFDP_5A?W25QXX
   *DEL*:           000027H   BYTE   INSEG    CODE           ?PR?W25Q_ERASE64K_D8?W25QXX
   *DEL*:           000006H   BYTE   INSEG    CODE           ?PR?W25Q_POWERDOWN_B9?W25QXX
   *DEL*:           000006H   BYTE   INSEG    CODE           ?PR?W25Q_QPI_LOCKGLOBAL_7E?W25QXX
   *DEL*:           00001FH   BYTE   INSEG    CODE           ?PR?W25Q_QPI_WAITBUSY?W25QXX
   *DEL*:           000006H   BYTE   INSEG    CODE           ?PR?W25Q_WRITEDISABLE_04?W25QXX
   *DEL*:           000006H   BYTE   INSEG    CODE           ?PR?W25Q_QPI_ERASERESUME_7A?W25QXX



OVERLAY MAP OF MODULE:   .\out_file\SEEKFREE (ai8051u_isr)


FUNCTION/MODULE                               XDATA_GROUP
--> CALLED FUNCTION/MODULE                    START  STOP
=========================================================
?C_C51STARTUP                                 ----- -----

*** NEW ROOT ********************************

?C_C51STARTUP?3                               ----- -----
  +--> main/main

main/main                                     ----- -----
  +--> init/init
  +--> IPS114_Show_Info/ips114
  +--> blue_tooth_read/bluetooth
  +--> ReadPoint/gps
  +--> SPRINTF/SPRINTF
  +--> ble6a20_send_string/zf_device_ble6a20
  +--> WritePoint/gps
  +--> W25Q_Erase4K_20/w25qxx
  +--> get_two_points_distance/zf_device_gps_tau1201
  +--> get_two_points_azimuth/zf_device_gps_tau1201
  +--> EulerToQuaternion/filter
  +--> ips114_show_float/zf_device_ips114

init/init                                     ----- -----
  +--> clock_init/zf_common_clock
  +--> debug_init/zf_common_debug
  +--> QSPI_Init/qspi
  +--> W25Q_Enable_QE/w25qxx
  +--> ips114_init/zf_device_ips114
  +--> gps_init/zf_device_gps_tau1201
  +--> ble6a20_init/zf_device_ble6a20
  +--> ips114_show_string/zf_device_ips114
  +--> imu660ra_init/zf_device_imu660ra
  +--> ips114_clear/zf_device_ips114
  +--> IPS114_Show_Unit/ips114
  +--> My_Pid_Init/pid
  +--> my_pit_init/isr
  +--> my_pwm_init/pwm
  +--> StateUpdate/StateMachine

clock_init/zf_common_clock                    ----- -----
L251 LINKER/LOCATER V4.66.93.0                                                        05/06/2025  18:54:37  PAGE 17


  +--> system_delay_init/zf_driver_delay
  +--> interrupt_global_enable/zf_common_interrupt

system_delay_init/zf_driver_delay             ----- -----
  +--> ?C?SLDIV/?C?SLDIV

?C?SLDIV/?C?SLDIV                             ----- -----
  +--> ?C?ULIDIV/?C?ULDIV

?C?ULIDIV/?C?ULDIV                            ----- -----

interrupt_global_enable/zf_common_interr+     ----- -----
... upt

debug_init/zf_common_debug                    ----- -----
  +--> uart_init/zf_driver_uart
  +--> fifo_init/zf_common_fifo
  +--> uart_rx_interrupt/zf_driver_uart
  +--> debug_interrupr_handler/zf_common_debug

uart_init/zf_driver_uart                      ----- -----
  +--> gpio_init/zf_driver_gpio
  +--> ?C?ULIDIV/?C?ULDIV
  +--> uart_dma_init/zf_driver_uart

gpio_init/zf_driver_gpio                      ----- -----
  +--> gpio_set_dir/zf_driver_gpio
  +--> gpio_set_mode/zf_driver_gpio
  +--> gpio_set_impedance/zf_driver_gpio
  +--> gpio_set_level/zf_driver_gpio

gpio_set_dir/zf_driver_gpio                   ----- -----

gpio_set_mode/zf_driver_gpio                  ----- -----

gpio_set_impedance/zf_driver_gpio             ----- -----

gpio_set_level/zf_driver_gpio                 ----- -----

uart_dma_init/zf_driver_uart                  ----- -----

fifo_init/zf_common_fifo                      ----- -----

uart_rx_interrupt/zf_driver_uart              ----- -----

debug_interrupr_handler/zf_common_debug       ----- -----
  +--> uart_query_byte/zf_driver_uart
  +--> fifo_write_buffer/zf_common_fifo

uart_query_byte/zf_driver_uart                ----- -----
  +--> uart_rx_start_buff/zf_driver_uart

uart_rx_start_buff/zf_driver_uart             ----- -----

fifo_write_buffer/zf_common_fifo              ----- -----
  +--> memcpy?_/memcpy
  +--> fifo_head_offset/zf_common_fifo

memcpy?_/memcpy                               ----- -----

fifo_head_offset/zf_common_fifo               ----- -----

QSPI_Init/qspi                                ----- -----

W25Q_Enable_QE/w25qxx                         ----- -----
L251 LINKER/LOCATER V4.66.93.0                                                        05/06/2025  18:54:37  PAGE 18


  +--> W25Q_ReadJEDECID_9F/w25qxx
  +--> W25Q_ReadSR2_35/w25qxx
  +--> W25Q_WriteEnableVSR_50/w25qxx
  +--> W25Q_WriteSR12_01/w25qxx
  +--> W25Q_WriteSR2_31/w25qxx

W25Q_ReadJEDECID_9F/w25qxx                    ----- -----
  +--> QSPI_READ_INSTR_SDATA/qspi

QSPI_READ_INSTR_SDATA/qspi                    ----- -----

W25Q_ReadSR2_35/w25qxx                        ----- -----
  +--> QSPI_READ_INSTR_SDATA/qspi

W25Q_WriteEnableVSR_50/w25qxx                 ----- -----
  +--> QSPI_WRITE_INSTR/qspi

QSPI_WRITE_INSTR/qspi                         ----- -----

W25Q_WriteSR12_01/w25qxx                      ----- -----
  +--> QSPI_WRITE_INSTR_SADDR16/qspi

QSPI_WRITE_INSTR_SADDR16/qspi                 ----- -----

W25Q_WriteSR2_31/w25qxx                       ----- -----
  +--> QSPI_WRITE_INSTR_SADDR8/qspi
  +--> W25Q_WaitBusy/w25qxx

QSPI_WRITE_INSTR_SADDR8/qspi                  ----- -----

W25Q_WaitBusy/w25qxx                          ----- -----
  +--> W25Q_ReadSR1_05/w25qxx

W25Q_ReadSR1_05/w25qxx                        ----- -----
  +--> QSPI_READ_INSTR_SDATA/qspi

ips114_init/zf_device_ips114                  ----- -----
  +--> spi_init/zf_driver_spi
  +--> ips114_set_dir/zf_device_ips114
  +--> ips114_set_color/zf_device_ips114
  +--> system_delay_ms/zf_driver_delay
  +--> ips114_write_index/zf_device_ips114
  +--> spi_write_8bit/zf_driver_spi
  +--> ips114_clear/zf_device_ips114

spi_init/zf_driver_spi                        ----- -----
  +--> gpio_init/zf_driver_gpio
  +--> gpio_set_level_speed/zf_driver_gpio
  +--> ?C?ULIDIV/?C?ULDIV

gpio_set_level_speed/zf_driver_gpio           ----- -----

ips114_set_dir/zf_device_ips114               ----- -----

ips114_set_color/zf_device_ips114             ----- -----

system_delay_ms/zf_driver_delay               ----- -----

ips114_write_index/zf_device_ips114           ----- -----
  +--> spi_write_8bit/zf_driver_spi

spi_write_8bit/zf_driver_spi                  ----- -----
  +--> spi_write_dat/zf_driver_spi

spi_write_dat/zf_driver_spi                   ----- -----
L251 LINKER/LOCATER V4.66.93.0                                                        05/06/2025  18:54:37  PAGE 19



ips114_clear/zf_device_ips114                 ----- -----
  +--> ips114_set_region/zf_device_ips114
  +--> spi_write_16bit/zf_driver_spi

ips114_set_region/zf_device_ips114            ----- -----
  +--> ips114_write_index/zf_device_ips114
  +--> spi_write_16bit/zf_driver_spi

spi_write_16bit/zf_driver_spi                 ----- -----
  +--> spi_write_dat/zf_driver_spi

gps_init/zf_device_gps_tau1201                ----- -----
  +--> fifo_init/zf_common_fifo
  +--> system_delay_ms/zf_driver_delay
  +--> uart_init/zf_driver_uart
  +--> uart_rx_interrupt/zf_driver_uart
  +--> gps_uart_callback/zf_device_gps_tau1201
  +--> set_gps_type/zf_device_type
  +--> uart_write_buffer/zf_driver_uart

gps_uart_callback/zf_device_gps_tau1201       ----- -----
  +--> fifo_write_buffer/zf_common_fifo
  +--> fifo_read_buffer/zf_common_fifo
  +--> strncmp?_/STRNCMP
  +--> fifo_used/zf_common_fifo
  +--> fifo_clear/zf_common_fifo

fifo_read_buffer/zf_common_fifo               ----- -----
  +--> fifo_used/zf_common_fifo
  +--> memcpy?_/memcpy
  +--> fifo_end_offset/zf_common_fifo

fifo_used/zf_common_fifo                      ----- -----

fifo_end_offset/zf_common_fifo                ----- -----

strncmp?_/STRNCMP                             ----- -----

fifo_clear/zf_common_fifo                     ----- -----
  +--> memset?_/memset

memset?_/memset                               ----- -----

set_gps_type/zf_device_type                   ----- -----

uart_write_buffer/zf_driver_uart              ----- -----

ble6a20_init/zf_device_ble6a20                ----- -----
  +--> system_delay_ms/zf_driver_delay
  +--> ble6a20_callback/zf_device_ble6a20
  +--> set_wireless_type/zf_device_type
  +--> fifo_init/zf_common_fifo
  +--> gpio_init/zf_driver_gpio
  +--> uart_init/zf_driver_uart
  +--> uart_rx_interrupt/zf_driver_uart

ble6a20_callback/zf_device_ble6a20            ----- -----
  +--> fifo_write_buffer/zf_common_fifo

set_wireless_type/zf_device_type              ----- -----

ips114_show_string/zf_device_ips114           ----- -----
  +--> ips114_show_char/zf_device_ips114

L251 LINKER/LOCATER V4.66.93.0                                                        05/06/2025  18:54:37  PAGE 20


ips114_show_char/zf_device_ips114             ----- -----
  +--> ips114_set_region/zf_device_ips114
  +--> spi_write_16bit/zf_driver_spi

imu660ra_init/zf_device_imu660ra              ----- -----
  +--> system_delay_ms/zf_driver_delay
  +--> spi_init/zf_driver_spi
  +--> gpio_init/zf_driver_gpio
  +--> imu660ra_self_check/zf_device_imu660ra
  +--> PRINTF/PRINTF
  +--> imu660ra_write_register/zf_device_imu660ra
  +--> imu660ra_write_registers/zf_device_imu660ra
  +--> imu660ra_read_register/zf_device_imu660ra

imu660ra_self_check/zf_device_imu660ra        ----- -----
  +--> imu660ra_read_register/zf_device_imu660ra
  +--> PRINTF/PRINTF
  +--> system_delay_ms/zf_driver_delay

imu660ra_read_register/zf_device_imu660r+     ----- -----
... a
  +--> gpio_set_level/zf_driver_gpio
  +--> spi_read_8bit_registers/zf_driver_spi

spi_read_8bit_registers/zf_driver_spi         ----- -----
  +--> spi_write_dat/zf_driver_spi
  +--> spi_read_dat/zf_driver_spi

spi_read_dat/zf_driver_spi                    ----- -----

PRINTF/PRINTF                                 0A9BH 0AC2H
  +--> OUT/PRINTF

OUT/PRINTF                                    ----- -----
  +--> PUTCH/PRINTF

PUTCH/PRINTF                                  ----- -----
  +--> putchar/zf_common_debug
  +--> OUT/PRINTF

putchar/zf_common_debug                       ----- -----
  +--> uart_write_byte/zf_driver_uart

uart_write_byte/zf_driver_uart                ----- -----
  +--> uart_write_buffer/zf_driver_uart

imu660ra_write_register/zf_device_imu660+     ----- -----
... ra
  +--> gpio_set_level/zf_driver_gpio
  +--> spi_write_8bit_register/zf_driver_spi

spi_write_8bit_register/zf_driver_spi         ----- -----
  +--> spi_write_dat/zf_driver_spi

imu660ra_write_registers/zf_device_imu66+     ----- -----
... 0ra
  +--> gpio_set_level/zf_driver_gpio
  +--> spi_write_8bit_registers/zf_driver_spi

spi_write_8bit_registers/zf_driver_spi        ----- -----
  +--> spi_write_dat/zf_driver_spi

IPS114_Show_Unit/ips114                       ----- -----
  +--> ips114_set_color/zf_device_ips114
  +--> ips114_show_string/zf_device_ips114
L251 LINKER/LOCATER V4.66.93.0                                                        05/06/2025  18:54:37  PAGE 21


  +--> ips114_show_char/zf_device_ips114

My_Pid_Init/pid                               ----- -----
  +--> Pid_Param_Init/pid

Pid_Param_Init/pid                            ----- -----

my_pit_init/isr                               ----- -----
  +--> pit_hanlder_imu/isr
  +--> ?C?SLDIV/?C?SLDIV
  +--> pit_init/zf_driver_pit
  +--> pit_hanlder_gps/isr
  +--> pit_hanlder_angle/isr

pit_hanlder_imu/isr                           ----- -----
  +--> imu660ra_get_acc/zf_device_imu660ra
  +--> imu660ra_get_gyro/zf_device_imu660ra
  +--> FOCF/filter
  +--> GetEuler/filter

imu660ra_get_acc/zf_device_imu660ra           ----- -----
  +--> imu660ra_read_registers/zf_device_imu660ra

imu660ra_read_registers/zf_device_imu660+     ----- -----
... ra
  +--> gpio_set_level/zf_driver_gpio
  +--> spi_read_8bit_registers/zf_driver_spi

imu660ra_get_gyro/zf_device_imu660ra          ----- -----
  +--> imu660ra_read_registers/zf_device_imu660ra

FOCF/filter                                   ----- -----

GetEuler/filter                               ----- -----
  +--> my_atan2/filter

my_atan2/filter                               ----- -----

pit_init/zf_driver_pit                        ----- -----
  +--> ?C?ULIDIV/?C?ULDIV

pit_hanlder_gps/isr                           ----- -----
  +--> gps_data_parse/zf_device_gps_tau1201

gps_data_parse/zf_device_gps_tau1201          ----- -----
  +--> strchr?_/STRCHR
  +--> strncpy?_/STRNCPY
  +--> func_str_to_hex/zf_common_function
  +--> gps_gnrmc_parse/zf_device_gps_tau1201
  +--> gps_gngga_parse/zf_device_gps_tau1201

strchr?_/STRCHR                               ----- -----

strncpy?_/STRNCPY                             ----- -----

func_str_to_hex/zf_common_function            ----- -----
  +--> strlen?_/STRLEN

strlen?_/STRLEN                               ----- -----

gps_gnrmc_parse/zf_device_gps_tau1201         ----- -----
  +--> get_parameter_index/zf_device_gps_tau1201
  +--> get_double_number/zf_device_gps_tau1201
  +--> get_float_number/zf_device_gps_tau1201
  +--> utc_to_btc/zf_device_gps_tau1201
L251 LINKER/LOCATER V4.66.93.0                                                        05/06/2025  18:54:37  PAGE 22



get_parameter_index/zf_device_gps_tau120+     ----- -----
... 1
  +--> strchr?_/STRCHR

get_double_number/zf_device_gps_tau1201       ----- -----
  +--> get_parameter_index/zf_device_gps_tau1201
  +--> strncpy?_/STRNCPY
  +--> func_str_to_double/zf_common_function

func_str_to_double/zf_common_function         ----- -----

get_float_number/zf_device_gps_tau1201        ----- -----
  +--> get_parameter_index/zf_device_gps_tau1201
  +--> strncpy?_/STRNCPY
  +--> func_str_to_double/zf_common_function

utc_to_btc/zf_device_gps_tau1201              ----- -----

gps_gngga_parse/zf_device_gps_tau1201         ----- -----
  +--> get_parameter_index/zf_device_gps_tau1201
  +--> get_int_number/zf_device_gps_tau1201
  +--> get_float_number/zf_device_gps_tau1201

get_int_number/zf_device_gps_tau1201          ----- -----
  +--> get_parameter_index/zf_device_gps_tau1201
  +--> strncpy?_/STRNCPY
  +--> func_str_to_int/zf_common_function

func_str_to_int/zf_common_function            ----- -----

pit_hanlder_angle/isr                         ----- -----
  +--> Angle_Pid_fun/pid
  +--> constrain_uint32/pid
  +--> pwm_set_duty/zf_driver_pwm

Angle_Pid_fun/pid                             ----- -----
  +--> get_two_points_azimuth/zf_device_gps_tau1201
  +--> PidLocCtrl/pid

get_two_points_azimuth/zf_device_gps_tau+     ----- -----
... 1201

PidLocCtrl/pid                                ----- -----
  +--> constrain_float/pid

constrain_float/pid                           ----- -----

constrain_uint32/pid                          ----- -----

pwm_set_duty/zf_driver_pwm                    ----- -----

my_pwm_init/pwm                               ----- -----
  +--> pwm_init/zf_driver_pwm

pwm_init/zf_driver_pwm                        ----- -----
  +--> gpio_init/zf_driver_gpio
  +--> ?C?ULIDIV/?C?ULDIV

StateUpdate/StateMachine                      ----- -----

IPS114_Show_Info/ips114                       ----- -----
  +--> ips114_show_float/zf_device_ips114
  +--> ips114_show_uint8/zf_device_ips114

L251 LINKER/LOCATER V4.66.93.0                                                        05/06/2025  18:54:37  PAGE 23


ips114_show_float/zf_device_ips114            ----- -----
  +--> zf_sprintf/zf_common_function
  +--> ips114_show_string/zf_device_ips114

zf_sprintf/zf_common_function                 ----- -----
  +--> number_conversion_ascii/zf_common_function
  +--> printf_reverse_order/zf_common_function
  +--> memcpy?_/memcpy

number_conversion_ascii/zf_common_functi+     ----- -----
... on
  +--> ?C?SLDIV/?C?SLDIV
  +--> ?C?ULIDIV/?C?ULDIV

printf_reverse_order/zf_common_function       ----- -----

ips114_show_uint8/zf_device_ips114            ----- -----
  +--> ips114_show_char/zf_device_ips114

blue_tooth_read/bluetooth                     ----- -----
  +--> ble6a20_read_buffer/zf_device_ble6a20
  +--> ble6a20_send_string/zf_device_ble6a20
  +--> ble6a20_send_byte/zf_device_ble6a20
  +--> memcpy?_/memcpy

ble6a20_read_buffer/zf_device_ble6a20         ----- -----
  +--> fifo_read_buffer/zf_common_fifo

ble6a20_send_string/zf_device_ble6a20         ----- -----
  +--> strlen?_/STRLEN
  +--> gpio_get_level/zf_driver_gpio
  +--> memcpy?_/memcpy
  +--> uart_write_buffer/zf_driver_uart
  +--> system_delay_ms/zf_driver_delay

gpio_get_level/zf_driver_gpio                 ----- -----

ble6a20_send_byte/zf_device_ble6a20           ----- -----
  +--> gpio_get_level/zf_driver_gpio
  +--> uart_write_byte/zf_driver_uart
  +--> system_delay_ms/zf_driver_delay

ReadPoint/gps                                 ----- -----
  +--> W25Q_FastRead_6B/w25qxx

W25Q_FastRead_6B/w25qxx                       ----- -----
  +--> QSPI_READ_INSTR_SADDR24_DUMMY_QDATA/qspi

QSPI_READ_INSTR_SADDR24_DUMMY_QDATA/qspi      ----- -----

SPRINTF/SPRINTF                               0A9BH 0AC2H
  +--> OUT/SPRINTF

OUT/SPRINTF                                   ----- -----
  +--> PUTCH/SPRINTF

PUTCH/SPRINTF                                 ----- -----

WritePoint/gps                                ----- -----
  +--> W25Q_PageProgram_32/w25qxx

W25Q_PageProgram_32/w25qxx                    ----- -----
  +--> W25Q_WriteEnable_06/w25qxx
  +--> QSPI_WRITE_INSTR_SADDR24_QDATA/qspi
  +--> W25Q_WaitBusy/w25qxx
L251 LINKER/LOCATER V4.66.93.0                                                        05/06/2025  18:54:37  PAGE 24



W25Q_WriteEnable_06/w25qxx                    ----- -----
  +--> QSPI_WRITE_INSTR/qspi

QSPI_WRITE_INSTR_SADDR24_QDATA/qspi           ----- -----

W25Q_Erase4K_20/w25qxx                        ----- -----
  +--> W25Q_WriteEnable_06/w25qxx
  +--> QSPI_WRITE_INSTR_SADDR24/qspi
  +--> W25Q_WaitBusy/w25qxx

QSPI_WRITE_INSTR_SADDR24/qspi                 ----- -----

get_two_points_distance/zf_device_gps_ta+     ----- -----
... u1201
  +--> pow?_/pow

pow?_/pow                                     ----- -----
  +--> LOG?_/LOG?_

LOG?_/LOG?_                                   ----- -----

EulerToQuaternion/filter                      ----- -----

*** NEW ROOT ********************************

TM11_IRQHandler/isr                           ----- -----

*** NEW ROOT ********************************

DMA_UART1_IRQHandler/isr                      ----- -----
  +--> uart_rx_start_buff/zf_driver_uart

*** NEW ROOT ********************************

DMA_UART2_IRQHandler/isr                      ----- -----
  +--> uart_rx_start_buff/zf_driver_uart

*** NEW ROOT ********************************

DMA_UART3_IRQHandler/isr                      ----- -----
  +--> uart_rx_start_buff/zf_driver_uart

*** NEW ROOT ********************************

DMA_UART4_IRQHandler/isr                      ----- -----
  +--> uart_rx_start_buff/zf_driver_uart

*** NEW ROOT ********************************

TM0_IRQHandler/isr                            ----- -----

*** NEW ROOT ********************************

TM1_IRQHandler/isr                            ----- -----

*** NEW ROOT ********************************

TM2_IRQHandler/isr                            ----- -----

*** NEW ROOT ********************************

TM3_IRQHandler/isr                            ----- -----

*** NEW ROOT ********************************
L251 LINKER/LOCATER V4.66.93.0                                                        05/06/2025  18:54:37  PAGE 25



TM4_IRQHandler/isr                            ----- -----

*** NEW ROOT ********************************

?C_C51STARTUP?1                               ----- -----

*** NEW ROOT ********************************

?C_C51STARTUP?2                               ----- -----



PUBLIC SYMBOLS OF MODULE:  .\out_file\SEEKFREE (ai8051u_isr)


      VALUE       CLASS    TYPE      PUBLIC SYMBOL NAME
      =================================================
      00FF392AH   CODE     ---       ?C?BMOVEPP
      00FF3928H   CODE     ---       ?C?BMOVEPP8
      00FF259FH   CODE     NEAR LAB  ?C?CASTD
      00FF3807H   CODE     NEAR LAB  ?C?CASTF
      000000FFH   NUMBER   ---       ?C?CODESEG
      00FF255CH   CODE     NEAR LAB  ?C?DCASTC
      00FF25FFH   CODE     NEAR LAB  ?C?DCASTF
      00FF2557H   CODE     NEAR LAB  ?C?DCASTI
      00FF2552H   CODE     NEAR LAB  ?C?DCASTL
      00FF2FD3H   CODE     ---       ?C?DP2SERIES
      00FF2225H   CODE     ---       ?C?DPADD
      00FF24E5H   CODE     ---       ?C?DPCMP
      00FF24E3H   CODE     ---       ?C?DPCMP3
      00FF32BEH   CODE     ---       ?C?DPCONVERT
      00FF2444H   CODE     ---       ?C?DPDIV
      00FF2AF5H   CODE     ---       ?C?DPGETOPN2
      00FF2334H   CODE     ---       ?C?DPMUL
      00FF2B40H   CODE     ---       ?C?DPNANRESULT
      00FF2544H   CODE     ---       ?C?DPNEG
      00FF2B4CH   CODE     ---       ?C?DPOVERFLOW
      00FF2B18H   CODE     ---       ?C?DPRESULT
      00FF2B31H   CODE     ---       ?C?DPRESULT2
      00FF33E5H   CODE     ---       ?C?DPROUND
      00FF2FDEH   CODE     ---       ?C?DPSERIES
      00FF2221H   CODE     ---       ?C?DPSUB
      00FF2B47H   CODE     ---       ?C?DPUNDERFLOW
      00FF34C0H   CODE     ---       ?C?DTNPWR
      00FF37D4H   CODE     NEAR LAB  ?C?FCASTC
      00FF2641H   CODE     NEAR LAB  ?C?FCASTD
      00FF37CFH   CODE     NEAR LAB  ?C?FCASTI
      00FF37CAH   CODE     NEAR LAB  ?C?FCASTL
      00FF359DH   CODE     ---       ?C?FPADD
      00FF3778H   CODE     ---       ?C?FPCMP
      00FF3776H   CODE     ---       ?C?FPCMP3
      00FF36F5H   CODE     ---       ?C?FPDIV
      00FF3546H   CODE     ---       ?C?FPGETOPN2
      00FF3655H   CODE     ---       ?C?FPMUL
      00FF3583H   CODE     ---       ?C?FPNANRESULT
      00FF37BCH   CODE     ---       ?C?FPNEG
      00FF358BH   CODE     ---       ?C?FPOVERFLOW
      00FF355FH   CODE     ---       ?C?FPRESULT
      00FF3575H   CODE     ---       ?C?FPRESULT2
      00FF359AH   CODE     ---       ?C?FPSUB
      00FF3588H   CODE     ---       ?C?FPUNDERFLOW
      00FFE21AH   CODE     ---       ?C?INITHDATA
      00FFECCDH   HCONST   WORD      ?C?INITHDATA_END
      00FF3898H   CODE     ---       ?C?LIMUL
L251 LINKER/LOCATER V4.66.93.0                                                        05/06/2025  18:54:37  PAGE 26


      00FF2BA5H   CODE     ---       ?C?PRNFMT
      00FF3844H   CODE     ---       ?C?SCDIV
      00FF3866H   CODE     ---       ?C?SIDIV
      00FF38F4H   CODE     NEAR LAB  ?C?SLDIV
      00FF0000H   CODE     ---       ?C?STARTUP
      00FF38A3H   CODE     NEAR LAB  ?C?ULDIV
      00FF38A1H   CODE     NEAR LAB  ?C?ULIDIV
      00000001H   NUMBER   ---       ?C?XDATASEG
      00FF0000H   CODE     ---       ?C_STARTUP
      00010ED2H   XDATA    BYTE      ?constrain_float?BYTE
      00010D13H   XDATA    BYTE      ?fifo_init?BYTE
      00010BCEH   XDATA    BYTE      ?fifo_read_buffer?BYTE
      00010CBDH   XDATA    BYTE      ?fifo_write_buffer?BYTE
      00010EDEH   XDATA    BYTE      ?FOCF?BYTE
      00010926H   XDATA    BYTE      ?func_double_to_str?BYTE
      000109D9H   XDATA    BYTE      ?get_two_points_azimuth?BYTE
      000106FCH   XDATA    BYTE      ?get_two_points_distance?BYTE
      00010BB5H   XDATA    BYTE      ?ips114_show_chinese?BYTE
      00010A11H   XDATA    BYTE      ?ips114_show_float?BYTE
      00010AE8H   XDATA    BYTE      ?ips114_show_wave?BYTE
      00010C16H   XDATA    BYTE      ?my_atan2?BYTE
      00010BFEH   XDATA    BYTE      ?Pid_Param_Init?BYTE
      00010EC6H   XDATA    BYTE      ?PidIncCtrl?BYTE
      00010EBAH   XDATA    BYTE      ?PidLocCtrl?BYTE
      00010AC3H   XDATA    ---       ?printf?BYTE
      00010CCFH   XDATA    BYTE      ?pwm_init?BYTE
      00010C5AH   XDATA    BYTE      ?pwm_set_freq?BYTE
      00010F26H   XDATA    BYTE      ?QSPI_DMA_READ_INSTR_DADDR24_DALT8_DDATA?BYTE
      00010F3EH   XDATA    BYTE      ?QSPI_DMA_READ_INSTR_DADDR32_DALT8_DDATA?BYTE
      00010DD1H   XDATA    BYTE      ?QSPI_DMA_READ_INSTR_QADDR24_QALT8_DUMMY_QDATA?BYTE
      00010DEBH   XDATA    BYTE      ?QSPI_DMA_READ_INSTR_QADDR32_QALT8_DUMMY_QDATA?BYTE
      00010F56H   XDATA    BYTE      ?QSPI_DMA_READ_INSTR_SADDR24_DUMMY_DDATA?BYTE
      00010F6EH   XDATA    BYTE      ?QSPI_DMA_READ_INSTR_SADDR24_DUMMY_QDATA?BYTE
      00010EF6H   XDATA    BYTE      ?QSPI_DMA_READ_INSTR_SADDR24_DUMMY_SDATA?BYTE
      00010FF9H   XDATA    BYTE      ?QSPI_DMA_READ_INSTR_SADDR24_SDATA?BYTE
      00010F86H   XDATA    BYTE      ?QSPI_DMA_READ_INSTR_SADDR32_DUMMY_DDATA?BYTE
      00010F9EH   XDATA    BYTE      ?QSPI_DMA_READ_INSTR_SADDR32_DUMMY_QDATA?BYTE
      00010F0EH   XDATA    BYTE      ?QSPI_DMA_READ_INSTR_SADDR32_DUMMY_SDATA?BYTE
      0001100FH   XDATA    BYTE      ?QSPI_DMA_READ_INSTR_SADDR32_SDATA?BYTE
      00010FB6H   XDATA    BYTE      ?QSPI_DMA_READ_QINSTR_QADDR24_DUMMY_QDATA?BYTE
      00010E05H   XDATA    BYTE      ?QSPI_DMA_READ_QINSTR_QADDR24_QALT8_DUMMY_QDATA?BYTE
      0001103BH   XDATA    BYTE      ?QSPI_DMA_WRITE_INSTR_SADDR24_QDATA?BYTE
      00011025H   XDATA    BYTE      ?QSPI_DMA_WRITE_INSTR_SADDR24_SDATA?BYTE
      00011067H   XDATA    BYTE      ?QSPI_DMA_WRITE_INSTR_SADDR32_QDATA?BYTE
      00011051H   XDATA    BYTE      ?QSPI_DMA_WRITE_INSTR_SADDR32_SDATA?BYTE
      00010F1AH   XDATA    BYTE      ?QSPI_READ_INSTR_DADDR24_DALT8_DDATA?BYTE
      00010F32H   XDATA    BYTE      ?QSPI_READ_INSTR_DADDR32_DALT8_DDATA?BYTE
      00010DC4H   XDATA    BYTE      ?QSPI_READ_INSTR_QADDR24_QALT8_DUMMY_QDATA?BYTE
      00010DDEH   XDATA    BYTE      ?QSPI_READ_INSTR_QADDR32_QALT8_DUMMY_QDATA?BYTE
      00010F4AH   XDATA    BYTE      ?QSPI_READ_INSTR_SADDR24_DUMMY_DDATA?BYTE
      00010F62H   XDATA    BYTE      ?QSPI_READ_INSTR_SADDR24_DUMMY_QDATA?BYTE
      00010EEAH   XDATA    BYTE      ?QSPI_READ_INSTR_SADDR24_DUMMY_SDATA?BYTE
      00010FEEH   XDATA    BYTE      ?QSPI_READ_INSTR_SADDR24_SDATA?BYTE
      00010F7AH   XDATA    BYTE      ?QSPI_READ_INSTR_SADDR32_DUMMY_DDATA?BYTE
      00010F92H   XDATA    BYTE      ?QSPI_READ_INSTR_SADDR32_DUMMY_QDATA?BYTE
      00010F02H   XDATA    BYTE      ?QSPI_READ_INSTR_SADDR32_DUMMY_SDATA?BYTE
      00011004H   XDATA    BYTE      ?QSPI_READ_INSTR_SADDR32_SDATA?BYTE
      00010FAAH   XDATA    BYTE      ?QSPI_READ_QINSTR_QADDR24_DUMMY_QDATA?BYTE
      00010DF8H   XDATA    BYTE      ?QSPI_READ_QINSTR_QADDR24_QALT8_DUMMY_QDATA?BYTE
      00011072H   XDATA    BYTE      ?QSPI_READ_QINSTR_QADDR24_QDATA?BYTE
      00011030H   XDATA    BYTE      ?QSPI_WRITE_INSTR_SADDR24_QDATA?BYTE
      0001101AH   XDATA    BYTE      ?QSPI_WRITE_INSTR_SADDR24_SDATA?BYTE
      0001105CH   XDATA    BYTE      ?QSPI_WRITE_INSTR_SADDR32_QDATA?BYTE
      00011046H   XDATA    BYTE      ?QSPI_WRITE_INSTR_SADDR32_SDATA?BYTE
      00010DAAH   XDATA    BYTE      ?soft_iic_init?BYTE
L251 LINKER/LOCATER V4.66.93.0                                                        05/06/2025  18:54:37  PAGE 27


      00010E36H   XDATA    BYTE      ?soft_iic_read_16bit_array?BYTE
      00010D4BH   XDATA    BYTE      ?soft_iic_read_16bit_registers?BYTE
      00010E2AH   XDATA    BYTE      ?soft_iic_read_8bit_array?BYTE
      00010D9DH   XDATA    BYTE      ?soft_iic_read_8bit_registers?BYTE
      00010C82H   XDATA    BYTE      ?soft_iic_transfer_16bit_array?BYTE
      00010C6EH   XDATA    BYTE      ?soft_iic_transfer_8bit_array?BYTE
      00010E1EH   XDATA    BYTE      ?soft_iic_write_16bit_array?BYTE
      00010D3DH   XDATA    BYTE      ?soft_iic_write_16bit_registers?BYTE
      00010E12H   XDATA    BYTE      ?soft_iic_write_8bit_array?BYTE
      00010D90H   XDATA    BYTE      ?soft_iic_write_8bit_registers?BYTE
      00010C96H   XDATA    BYTE      ?spi_init?BYTE
      00011198H   XDATA    BYTE      ?spi_read_16bit_array?BYTE
      00010E4EH   XDATA    BYTE      ?spi_read_16bit_registers?BYTE
      0001118EH   XDATA    BYTE      ?spi_read_8bit_array?BYTE
      00010FD8H   XDATA    BYTE      ?spi_read_8bit_registers?BYTE
      00010D67H   XDATA    BYTE      ?spi_transfer_16bit?BYTE
      00010D59H   XDATA    BYTE      ?spi_transfer_8bit?BYTE
      00011184H   XDATA    BYTE      ?spi_write_16bit_array?BYTE
      00010E42H   XDATA    BYTE      ?spi_write_16bit_registers?BYTE
      0001117AH   XDATA    BYTE      ?spi_write_8bit_array?BYTE
      00010FCDH   XDATA    BYTE      ?spi_write_8bit_registers?BYTE
      00010AC3H   XDATA    ---       ?sprintf?BYTE
      00010E72H   XDATA    BYTE      ?uart_init?BYTE
      000111CAH   XDATA    BYTE      ?W25Q_DMA_FastRead_0B?BYTE
      000111E8H   XDATA    BYTE      ?W25Q_DMA_FastRead_3B?BYTE
      000111FCH   XDATA    BYTE      ?W25Q_DMA_FastRead_6B?BYTE
      000111DEH   XDATA    BYTE      ?W25Q_DMA_FastRead_Addr32_0C?BYTE
      000111F2H   XDATA    BYTE      ?W25Q_DMA_FastRead_Addr32_3C?BYTE
      00011206H   XDATA    BYTE      ?W25Q_DMA_FastRead_Addr32_6C?BYTE
      0001121AH   XDATA    BYTE      ?W25Q_DMA_FastRead_Addr32_BC?BYTE
      00011238H   XDATA    BYTE      ?W25Q_DMA_FastRead_Addr32_EC?BYTE
      00011210H   XDATA    BYTE      ?W25Q_DMA_FastRead_BB?BYTE
      00011224H   XDATA    BYTE      ?W25Q_DMA_FastRead_EB?BYTE
      0001124CH   XDATA    BYTE      ?W25Q_DMA_OctalWordRead_E3?BYTE
      00011256H   XDATA    BYTE      ?W25Q_DMA_PageProgram_02?BYTE
      0001126AH   XDATA    BYTE      ?W25Q_DMA_PageProgram_32?BYTE
      00011260H   XDATA    BYTE      ?W25Q_DMA_PageProgram_Addr32_12?BYTE
      00011274H   XDATA    BYTE      ?W25Q_DMA_PageProgram_Addr32_34?BYTE
      000111B6H   XDATA    BYTE      ?W25Q_DMA_ReadData_03?BYTE
      000111C0H   XDATA    BYTE      ?W25Q_DMA_ReadData_Addr32_13?BYTE
      00011242H   XDATA    BYTE      ?W25Q_DMA_WordRead_E7?BYTE
      00000020H.6 BIT      BIT       ?W25Q_Erase32K_52?BIT
      00000020H.3 BIT      BIT       ?W25Q_Erase4K_20?BIT
      00000020H.5 BIT      BIT       ?W25Q_Erase4K_Addr32_21?BIT
      00000021H.2 BIT      BIT       ?W25Q_Erase64K_Addr32_DC?BIT
      00000021H.0 BIT      BIT       ?W25Q_Erase64K_D8?BIT
      00000021H.3 BIT      BIT       ?W25Q_EraseChip_C7?BIT
      00011093H   XDATA    BYTE      ?W25Q_FastRead_0B?BYTE
      000110B4H   XDATA    BYTE      ?W25Q_FastRead_3B?BYTE
      000110CAH   XDATA    BYTE      ?W25Q_FastRead_6B?BYTE
      000110A9H   XDATA    BYTE      ?W25Q_FastRead_Addr32_0C?BYTE
      000110BFH   XDATA    BYTE      ?W25Q_FastRead_Addr32_3C?BYTE
      000110D5H   XDATA    BYTE      ?W25Q_FastRead_Addr32_6C?BYTE
      000110EBH   XDATA    BYTE      ?W25Q_FastRead_Addr32_BC?BYTE
      0001110CH   XDATA    BYTE      ?W25Q_FastRead_Addr32_EC?BYTE
      000110E0H   XDATA    BYTE      ?W25Q_FastRead_BB?BYTE
      000110F6H   XDATA    BYTE      ?W25Q_FastRead_EB?BYTE
      00011122H   XDATA    BYTE      ?W25Q_OctalWordRead_E3?BYTE
      0001112DH   XDATA    BYTE      ?W25Q_PageProgram_02?BYTE
      00011143H   XDATA    BYTE      ?W25Q_PageProgram_32?BYTE
      00011138H   XDATA    BYTE      ?W25Q_PageProgram_Addr32_12?BYTE
      0001114EH   XDATA    BYTE      ?W25Q_PageProgram_Addr32_34?BYTE
      00011159H   XDATA    BYTE      ?W25Q_ProgramSecurityReg_42?BYTE
      0001116FH   XDATA    BYTE      ?W25Q_QPI_BurstReadWithWrap_0C?BYTE
      000111D4H   XDATA    BYTE      ?W25Q_QPI_DMA_FastRead_0B?BYTE
L251 LINKER/LOCATER V4.66.93.0                                                        05/06/2025  18:54:37  PAGE 28


      0001122EH   XDATA    BYTE      ?W25Q_QPI_DMA_FastRead_EB?BYTE
      00000020H.7 BIT      BIT       ?W25Q_QPI_Erase32K_52?BIT
      00000020H.4 BIT      BIT       ?W25Q_QPI_Erase4K_20?BIT
      00000021H.1 BIT      BIT       ?W25Q_QPI_Erase64K_D8?BIT
      00000021H.4 BIT      BIT       ?W25Q_QPI_EraseChip_C7?BIT
      0001109EH   XDATA    BYTE      ?W25Q_QPI_FastRead_0B?BYTE
      00011101H   XDATA    BYTE      ?W25Q_QPI_FastRead_EB?BYTE
      0001107DH   XDATA    BYTE      ?W25Q_ReadData_03?BYTE
      00011088H   XDATA    BYTE      ?W25Q_ReadData_Addr32_13?BYTE
      00011164H   XDATA    BYTE      ?W25Q_ReadSecurityReg_48?BYTE
      00011117H   XDATA    BYTE      ?W25Q_WordRead_E7?BYTE
      000106C1H   XDATA    BYTE      ?zf_sprintf?BYTE
      00FF2B5AH   CODE     ---       _chkdouble_?_
*SFR* 000000D0H.6 DATA     BIT       AC
*SFR* 000000E0H   DATA     BYTE      ACC
*SFR* 000000BCH   DATA     BYTE      ADC_CONTR
*DEL*:00000000H   CODE     ---       adc_convert
*DEL*:00000000H   CODE     ---       adc_init
*DEL*:00000000H   CODE     ---       adc_mean_filter_convert
*SFR* 000000BDH   DATA     BYTE      ADC_RES
*SFR* 000000BEH   DATA     BYTE      ADC_RESL
*SFR* 000000DEH   DATA     BYTE      ADCCFG
      0001051EH   XDATA    FLOAT     angle_error
      00010522H   XDATA    FLOAT     angle_IMAX
      00010576H   XDATA    FLOAT     angle_KD
      000104DAH   XDATA    FLOAT     angle_KI
      000104E6H   XDATA    FLOAT     angle_KP
      0001055EH   XDATA    FLOAT     angle_OUTMAX
      00010526H   XDATA    ---       angle_pid
      00FFBFD8H   CODE     ---       Angle_Pid_fun
      00010572H   XDATA    FLOAT     angle_target
      00FF5168H   CODE     ---       ascii_font_6x8
      00FF2ACBH   CODE     ---       asin?_
      00FF29B0H   CODE     ---       atan?_
*SFR* 000000EFH   DATA     BYTE      AUXINTIF
*SFR* 0000008EH   DATA     BYTE      AUXR
*SFR* 00000097H   DATA     BYTE      AUXR2
*SFR* 000000F0H   DATA     BYTE      B
      00FFE86EH   CODE     ---       ble6a20_callback
      00FFDC04H   CODE     ---       ble6a20_init
      00FFE01CH   CODE     ---       ble6a20_read_buffer
*DEL*:00000000H   CODE     ---       ble6a20_send_buffer
      00FFE351H   CODE     ---       ble6a20_send_byte
      00FFB9A5H   CODE     ---       ble6a20_send_string
      00FFE24EH   CODE     ---       blue_tooth_read
*DEL*:00000000H   CODE     ---       blue_tooth_read_loop
*SFR* 000000C8H.1 DATA     BIT       C_T2
*SFR* 000000FAH   DATA     BYTE      CCAP0H
*SFR* 000000EAH   DATA     BYTE      CCAP0L
*SFR* 000000FBH   DATA     BYTE      CCAP1H
*SFR* 000000EBH   DATA     BYTE      CCAP1L
*SFR* 000000FCH   DATA     BYTE      CCAP2H
*SFR* 000000ECH   DATA     BYTE      CCAP2L
*SFR* 000000FDH   DATA     BYTE      CCAP3H
*SFR* 000000EDH   DATA     BYTE      CCAP3L
*SFR* 000000FEH   DATA     BYTE      CCAP4H
*SFR* 000000EEH   DATA     BYTE      CCAP4L
*SFR* 000000DAH   DATA     BYTE      CCAPM0
*SFR* 000000DBH   DATA     BYTE      CCAPM1
*SFR* 000000DCH   DATA     BYTE      CCAPM2
*SFR* 000000DDH   DATA     BYTE      CCAPM3
*SFR* 000000DEH   DATA     BYTE      CCAPM4
*SFR* 000000D8H.0 DATA     BIT       CCF0
*SFR* 000000D8H.1 DATA     BIT       CCF1
*SFR* 000000D8H.2 DATA     BIT       CCF2
L251 LINKER/LOCATER V4.66.93.0                                                        05/06/2025  18:54:37  PAGE 29


*SFR* 000000D8H.3 DATA     BIT       CCF3
*SFR* 000000D8H.4 DATA     BIT       CCF4
*SFR* 000000D8H   DATA     BYTE      CCON
*SFR* 00000090H.3 DATA     BIT       CEX0
*SFR* 00000090H.4 DATA     BIT       CEX1
*SFR* 00000090H.5 DATA     BIT       CEX2
*SFR* 00000090H.6 DATA     BIT       CEX3
*SFR* 00000090H.7 DATA     BIT       CEX4
*SFR* 000000D8H.7 DATA     BIT       CF
*SFR* 000000F9H   DATA     BYTE      CH
*SFR* 000000EAH   DATA     BYTE      CKCON
*SFR* 000000E9H   DATA     BYTE      CL
      00FFCA80H   CODE     ---       clock_init
*SFR* 000000D9H   DATA     BYTE      CMOD
*SFR* 000000E6H   DATA     BYTE      CMPCR1
*SFR* 000000E7H   DATA     BYTE      CMPCR2
      00FFDF50H   CODE     ---       constrain_float
*DEL*:00000000H   CODE     ---       constrain_short
      00FFE3F9H   CODE     ---       constrain_uint32
      00FF2818H   CODE     ---       cos?_
*SFR* 000000C8H.0 DATA     BIT       CP_RL2
*SFR* 000000D8H.6 DATA     BIT       CR
*SFR* 00000090H.4 DATA     BIT       CS
*SFR* 000000D0H.7 DATA     BIT       CY
      000108A8H   XDATA    ---       data_buffer
      000108A7H   XDATA    BYTE      data_len
      00FFD378H   CODE     ---       debug_init
      00FFE650H   CODE     ---       debug_interrupr_handler
*DEL*:00000000H   CODE     ---       debug_read_buffer
*DEL*:00000000H   CODE     ---       debug_send_buffer
      0001075CH   XDATA    ---       debug_uart_buffer
      0001079DH   XDATA    ---       debug_uart_fifo
      00FFD2D3H   CODE     ---       DMA_UART1_IRQHandler
      00FFD9E1H   CODE     ---       DMA_UART2_IRQHandler
      00FFDA6AH   CODE     ---       DMA_UART3_IRQHandler
      00FFDAF3H   CODE     ---       DMA_UART4_IRQHandler
*SFR* 00000083H   DATA     BYTE      DPH
*SFR* 00000082H   DATA     BYTE      DPL
*SFR* 00000084H   DATA     BYTE      DPXL
      00010D0BH   XDATA    ---       duty
      00010D09H   XDATA    INT       duty_forward_left
      00010D07H   XDATA    INT       duty_forward_right
      00010D05H   XDATA    INT       duty_up_left
      00010D03H   XDATA    INT       duty_up_right
*SFR* 000000A8H.7 DATA     BIT       EA
*SFR* 000000A8H.6 DATA     BIT       EC
*SFR* 00000090H.2 DATA     BIT       ECI
*DEL*:00000000H   CODE     ---       encoder_clear_count
*DEL*:00000000H   CODE     ---       encoder_dir_init
*DEL*:00000000H   CODE     ---       encoder_get_count
*SFR* 000000A8H.4 DATA     BIT       ES
*SFR* 000000A8H.1 DATA     BIT       ET0
*SFR* 000000A8H.3 DATA     BIT       ET1
*SFR* 000000A8H.5 DATA     BIT       ET2
      00FF7E56H   CODE     ---       EulerToQuaternion
      00FFEFAEH   HCONST   ---       Event_Emergency
      00FFEFBAH   HCONST   ---       Event_Finish
      00FFEFC6H   HCONST   ---       Event_Restart
*SFR* 000000A8H.0 DATA     BIT       EX0
*SFR* 000000A8H.2 DATA     BIT       EX1
*SFR* 000000C8H.3 DATA     BIT       EXEN2
*SFR* 000000C8H.6 DATA     BIT       EXF2
      00FF30BAH   CODE     ---       exp?_
*SFR* 000000D0H.5 DATA     BIT       F0
*SFR* 00000098H.7 DATA     BIT       FE
L251 LINKER/LOCATER V4.66.93.0                                                        05/06/2025  18:54:37  PAGE 30


      00FFBAE8H   CODE     ---       fifo_clear
      00FFD0CBH   CODE     ---       fifo_init
      00FF6FF6H   CODE     ---       fifo_read_buffer
      00FFE766H   CODE     ---       fifo_used
      00FF6ABBH   CODE     ---       fifo_write_buffer
      00FFD416H   CODE     ---       FOCF
*DEL*:00000000H   CODE     ---       func_double_to_str
*DEL*:00000000H   CODE     ---       func_float_to_str
*DEL*:00000000H   CODE     ---       func_get_greatest_common_divisor
*DEL*:00000000H   CODE     ---       func_hex_to_str
*DEL*:00000000H   CODE     ---       func_int_to_str
*DEL*:00000000H   CODE     ---       func_soft_delay
      00FF885BH   CODE     ---       func_str_to_double
*DEL*:00000000H   CODE     ---       func_str_to_float
      00FFA40EH   CODE     ---       func_str_to_hex
      00FFC470H   CODE     ---       func_str_to_int
*DEL*:00000000H   CODE     ---       func_str_to_uint
*DEL*:00000000H   CODE     ---       func_uint_to_str
      00FF655FH   CODE     ---       get_two_points_azimuth
      00FF81F6H   CODE     ---       get_two_points_distance
      00FF5FE8H   CODE     ---       GetEuler
      00FFC68DH   CODE     ---       gpio_get_level
      00FFCC55H   CODE     ---       gpio_init
      00FFB3FFH   CODE     ---       gpio_set_impedance
      00FFA912H   CODE     ---       gpio_set_level
      00FF8B45H   CODE     ---       gpio_set_level_speed
*DEL*:00000000H   CODE     ---       gpio_toggle_level
      00FF9E55H   CODE     ---       gps_data_parse
      00000020H.0 BIT      BIT       gps_date_ready
      000103CEH   XDATA    INT       gps_gga_state
      00FF90A3H   CODE     ---       gps_init
      000109C5H   XDATA    ---       gps_point_error
      000103D0H   XDATA    INT       gps_rmc_state
      0001029AH   XDATA    ---       gps_tau1201
      00010219H   XDATA    BYTE      gps_tau1201_flag
      00011318H   XDATA    INT       gps_type
      00FFB0FCH   CODE     ---       gps_uart_callback
*SFR* 00000090H.2 DATA     BIT       HLD_IO3
*SFR* 000000C7H   DATA     BYTE      IAP_CONTR
*SFR* 000000A8H   DATA     BYTE      IE
*SFR* 000000A8H   DATA     BYTE      IE0
*SFR* 00000088H.1 DATA     BIT       IE0_
*SFR* 000000B1H   DATA     BYTE      IE1
*SFR* 00000088H.3 DATA     BIT       IE1_
*SFR* 000000AFH   DATA     BYTE      IE2
      00010B08H   XDATA    INT       imu660ra_acc_x
      00010B0AH   XDATA    INT       imu660ra_acc_y
      00010B0CH   XDATA    INT       imu660ra_acc_z
      00FF021EH   CODE     ---       imu660ra_config_file
      00FFDD86H   CODE     ---       imu660ra_get_acc
      00FFDD0EH   CODE     ---       imu660ra_get_gyro
      00010B0EH   XDATA    INT       imu660ra_gyro_x
      00010B10H   XDATA    INT       imu660ra_gyro_y
      00010B12H   XDATA    INT       imu660ra_gyro_z
      00FF99FFH   CODE     ---       imu660ra_init
      00010B14H   XDATA    ---       imu660ra_transition_factor
      000107E9H   XDATA    ---       imu_acc
      00010B1CH   XDATA    INT       imu_acc_x_pre
      00010B1EH   XDATA    INT       imu_acc_y_pre
      00010B20H   XDATA    INT       imu_acc_z_pre
      00010801H   XDATA    ---       imu_gyro
      00010B22H   XDATA    INT       imu_gyro_x_pre
      00010B24H   XDATA    INT       imu_gyro_y_pre
      00010B26H   XDATA    INT       imu_gyro_z_pre
      00FFE2A6H   CODE     ---       init
L251 LINKER/LOCATER V4.66.93.0                                                        05/06/2025  18:54:37  PAGE 31


      00000020H.1 BIT      BIT       init_yaw_lock
*SFR* 000000B0H.2 DATA     BIT       INT0
      00010B34H   XDATA    ---       int0_irq_handler
*SFR* 000000B0H.3 DATA     BIT       INT1
      00010B38H   XDATA    ---       int1_irq_handler
      00010B3CH   XDATA    ---       int2_irq_handler
      00010B40H   XDATA    ---       int3_irq_handler
      00010B44H   XDATA    ---       int4_irq_handler
*SFR* 0000008FH   DATA     BYTE      INTCLKO
      000107F5H   XDATA    FLOAT     integralFBx
      000107F9H   XDATA    FLOAT     integralFBy
      000107FDH   XDATA    FLOAT     integralFBz
*DEL*:00000000H   CODE     ---       interrupt_global_disable
      00FF001EH   CODE     ---       interrupt_global_enable
*DEL*:00000000H   CODE     ---       interrupt_set_priority
*SFR* 000000B8H   DATA     BYTE      IP
*SFR* 000000B5H   DATA     BYTE      IP2
*SFR* 000000B6H   DATA     BYTE      IP2H
*SFR* 000000DFH   DATA     BYTE      IP3
*SFR* 000000EEH   DATA     BYTE      IP3H
*SFR* 000000B7H   DATA     BYTE      IPH
*SFR* 000000B7H   DATA     BYTE      IPH0
*SFR* 000000B8H   DATA     BYTE      IPL0
      000112FCH   XDATA    WORD      ips114_bgcolor
      00FFDE73H   CODE     ---       ips114_clear
      000112FEH   XDATA    INT       ips114_display_dir
*DEL*:00000000H   CODE     ---       ips114_draw_point
      00FF97C7H   CODE     ---       ips114_init
      000112FAH   XDATA    WORD      ips114_pencolor
      00FF0066H   CODE     ---       ips114_set_color
      00FFE689H   CODE     ---       ips114_set_dir
      00FFCDEBH   CODE     ---       ips114_show_char
*DEL*:00000000H   CODE     ---       ips114_show_chinese
      00FFA768H   CODE     ---       ips114_show_float
      00FF9C36H   CODE     ---       IPS114_Show_Info
*DEL*:00000000H   CODE     ---       ips114_show_int16
*DEL*:00000000H   CODE     ---       ips114_show_int32
*DEL*:00000000H   CODE     ---       ips114_show_int8
      00FFDDFEH   CODE     ---       ips114_show_string
*DEL*:00000000H   CODE     ---       ips114_show_uint16
      00FFD70BH   CODE     ---       ips114_show_uint8
      00FFC356H   CODE     ---       IPS114_Show_Unit
*DEL*:00000000H   CODE     ---       ips114_show_wave
      00011300H   XDATA    BYTE      ips114_x_max
      00011301H   XDATA    BYTE      ips114_y_max
*SFR* 0000009DH   DATA     BYTE      IRCBAND
*SFR* 00000088H.0 DATA     BIT       IT0
*SFR* 00000088H.2 DATA     BIT       IT1
      00FF31A3H   CODE     NEAR LAB  log?_
      00FF4290H   CODE     ---       MAIN
      00FFE894H   CODE     ---       memcpy?_
      00FF00A6H   CODE     ---       memset?_
      00FFB6DFH   CODE     ---       my_atan2
      00FF00C6H   CODE     ---       My_Pid_Init
      00FFD955H   CODE     ---       my_pit_init
      00FFE13AH   CODE     ---       my_pwm_init
      000109D5H   XDATA    ---       Object_one_index
      000109AEH   XDATA    ---       origin_point
*SFR* 000000D0H.2 DATA     BIT       OV
*SFR* 000000D0H.0 DATA     BIT       P
*SFR* 00000080H   DATA     BYTE      P0
*SFR* 00000094H   DATA     BYTE      P0M0
*SFR* 00000093H   DATA     BYTE      P0M1
*SFR* 00000090H   DATA     BYTE      P1
*SFR* 00000092H   DATA     BYTE      P1M0
L251 LINKER/LOCATER V4.66.93.0                                                        05/06/2025  18:54:37  PAGE 32


*SFR* 00000091H   DATA     BYTE      P1M1
*SFR* 000000A0H   DATA     BYTE      P2
*SFR* 000000A0H.0 DATA     BIT       P20
*SFR* 000000A0H.1 DATA     BIT       P21
*SFR* 000000A0H.2 DATA     BIT       P22
*SFR* 00000096H   DATA     BYTE      P2M0
*SFR* 00000095H   DATA     BYTE      P2M1
*SFR* 000000B0H   DATA     BYTE      P3
*SFR* 000000B2H   DATA     BYTE      P3M0
*SFR* 000000B1H   DATA     BYTE      P3M1
*SFR* 000000C0H   DATA     BYTE      P4
*SFR* 000000B4H   DATA     BYTE      P4M0
*SFR* 000000B3H   DATA     BYTE      P4M1
*SFR* 000000C8H   DATA     BYTE      P5
*SFR* 000000CAH   DATA     BYTE      P5M0
*SFR* 000000C9H   DATA     BYTE      P5M1
*SFR* 000000E8H   DATA     BYTE      P6
*SFR* 000000CCH   DATA     BYTE      P6M0
*SFR* 000000CBH   DATA     BYTE      P6M1
*SFR* 000000F8H   DATA     BYTE      P7
*SFR* 000000E2H   DATA     BYTE      P7M0
*SFR* 000000E1H   DATA     BYTE      P7M1
*SFR* 000000A2H   DATA     BYTE      P_SW1
*SFR* 000000BAH   DATA     BYTE      P_SW2
*SFR* 000000BBH   DATA     BYTE      P_SW3
*SFR* 000000BFH   DATA     BYTE      P_SW4
*SFR* 00000087H   DATA     BYTE      PCON
      00000020H.2 BIT      BIT       pid_enable
      000109C2H   XDATA    ---       PID_param_index
      00FFBC28H   CODE     ---       Pid_Param_Init
*DEL*:00000000H   CODE     ---       PidIncCtrl
      00FF9584H   CODE     ---       PidLocCtrl
      00FFC584H   CODE     ---       pit_hanlder_angle
      00FF0026H   CODE     ---       pit_hanlder_GPS
      00FFA231H   CODE     ---       pit_hanlder_imu
      00FF8568H   CODE     ---       pit_init
      000107B5H   XDATA    FLOAT     pitch
      000109BEH   XDATA    ---       pObject
      00FFAABBH   CODE     ---       pow?_
*SFR* 000000B8H.6 DATA     BIT       PPC
      00011482H   XDATA    INT       preState
      00FF2678H   CODE     NEAR LAB  printf
*SFR* 000000B8H.4 DATA     BIT       PS
*SFR* 000000D0H   DATA     BYTE      PSW
*SFR* 000000D1H   DATA     BYTE      PSW1
*SFR* 000000B8H.1 DATA     BIT       PT0
*SFR* 000000B8H.3 DATA     BIT       PT1
*SFR* 000000B8H.5 DATA     BIT       PT2
      00FFE975H   CODE     ---       putchar
      00FFEF43H   HCONST   ---       PWM_ARR_ADDR
      00FFEF4BH   HCONST   ---       PWM_CCER_ADDR
      00FFEF5BH   HCONST   ---       PWM_CCMR_ADDR
      00FFEF23H   HCONST   ---       PWM_CCR_ADDR
      00FF5A58H   CODE     ---       pwm_init
      00FFEF1BH   HCONST   ---       PWM_PSCR_ADDR
      00FFADEFH   CODE     ---       pwm_set_duty
*DEL*:00000000H   CODE     ---       pwm_set_freq
*SFR* 000000B8H.0 DATA     BIT       PX0
*SFR* 000000B8H.2 DATA     BIT       PX1
      000107B9H   XDATA    FLOAT     q0
      000107BDH   XDATA    FLOAT     q1
      000107C1H   XDATA    FLOAT     q2
      000107C5H   XDATA    FLOAT     q3
*DEL*:00000000H   CODE     ---       QSPI_DMA_READ
*DEL*:00000000H   CODE     ---       QSPI_DMA_READ_INSTR_DADDR24_DALT8_DDATA
L251 LINKER/LOCATER V4.66.93.0                                                        05/06/2025  18:54:37  PAGE 33


*DEL*:00000000H   CODE     ---       QSPI_DMA_READ_INSTR_DADDR32_DALT8_DDATA
*DEL*:00000000H   CODE     ---       QSPI_DMA_READ_INSTR_QADDR24_QALT8_DUMMY_QDATA
*DEL*:00000000H   CODE     ---       QSPI_DMA_READ_INSTR_QADDR32_QALT8_DUMMY_QDATA
*DEL*:00000000H   CODE     ---       QSPI_DMA_READ_INSTR_SADDR24_DUMMY_DDATA
*DEL*:00000000H   CODE     ---       QSPI_DMA_READ_INSTR_SADDR24_DUMMY_QDATA
*DEL*:00000000H   CODE     ---       QSPI_DMA_READ_INSTR_SADDR24_DUMMY_SDATA
*DEL*:00000000H   CODE     ---       QSPI_DMA_READ_INSTR_SADDR24_SDATA
*DEL*:00000000H   CODE     ---       QSPI_DMA_READ_INSTR_SADDR32_DUMMY_DDATA
*DEL*:00000000H   CODE     ---       QSPI_DMA_READ_INSTR_SADDR32_DUMMY_QDATA
*DEL*:00000000H   CODE     ---       QSPI_DMA_READ_INSTR_SADDR32_DUMMY_SDATA
*DEL*:00000000H   CODE     ---       QSPI_DMA_READ_INSTR_SADDR32_SDATA
*DEL*:00000000H   CODE     ---       QSPI_DMA_READ_QINSTR_QADDR24_DUMMY_QDATA
*DEL*:00000000H   CODE     ---       QSPI_DMA_READ_QINSTR_QADDR24_QALT8_DUMMY_QDATA
*DEL*:00000000H   CODE     ---       QSPI_DMA_WRITE
*DEL*:00000000H   CODE     ---       QSPI_DMA_WRITE_INSTR_SADDR24_QDATA
*DEL*:00000000H   CODE     ---       QSPI_DMA_WRITE_INSTR_SADDR24_SDATA
*DEL*:00000000H   CODE     ---       QSPI_DMA_WRITE_INSTR_SADDR32_QDATA
*DEL*:00000000H   CODE     ---       QSPI_DMA_WRITE_INSTR_SADDR32_SDATA
      00FFCB6CH   CODE     ---       QSPI_Init
*DEL*:00000000H   CODE     ---       QSPI_POLLING_READ_INSTR_SDATA
*DEL*:00000000H   CODE     ---       QSPI_POLLING_READ_QINSTR_QDATA
*DEL*:00000000H   CODE     ---       QSPI_READ_INSTR_DADDR24_DALT8_DDATA
*DEL*:00000000H   CODE     ---       QSPI_READ_INSTR_DADDR32_DALT8_DDATA
*DEL*:00000000H   CODE     ---       QSPI_READ_INSTR_QADDR24_QALT8_DUMMY_QDATA
*DEL*:00000000H   CODE     ---       QSPI_READ_INSTR_QADDR32_QALT8_DUMMY_QDATA
*DEL*:00000000H   CODE     ---       QSPI_READ_INSTR_SADDR24_DUMMY_DDATA
      00FFA047H   CODE     ---       QSPI_READ_INSTR_SADDR24_DUMMY_QDATA
*DEL*:00000000H   CODE     ---       QSPI_READ_INSTR_SADDR24_DUMMY_SDATA
*DEL*:00000000H   CODE     ---       QSPI_READ_INSTR_SADDR24_SDATA
*DEL*:00000000H   CODE     ---       QSPI_READ_INSTR_SADDR32_DUMMY_DDATA
*DEL*:00000000H   CODE     ---       QSPI_READ_INSTR_SADDR32_DUMMY_QDATA
*DEL*:00000000H   CODE     ---       QSPI_READ_INSTR_SADDR32_DUMMY_SDATA
*DEL*:00000000H   CODE     ---       QSPI_READ_INSTR_SADDR32_SDATA
      00FFB845H   CODE     ---       QSPI_READ_INSTR_SDATA
*DEL*:00000000H   CODE     ---       QSPI_READ_QINSTR_QADDR24_DUMMY_QDATA
*DEL*:00000000H   CODE     ---       QSPI_READ_QINSTR_QADDR24_QALT8_DUMMY_QDATA
*DEL*:00000000H   CODE     ---       QSPI_READ_QINSTR_QADDR24_QDATA
*DEL*:00000000H   CODE     ---       QSPI_READ_QINSTR_QDATA
      00FFD17CH   CODE     ---       QSPI_WRITE_INSTR
*DEL*:00000000H   CODE     ---       QSPI_WRITE_INSTR_QADDR32
      00FFC108H   CODE     ---       QSPI_WRITE_INSTR_SADDR16
      00FFBEA1H   CODE     ---       QSPI_WRITE_INSTR_SADDR24
      00FFA5BBH   CODE     ---       QSPI_WRITE_INSTR_SADDR24_QDATA
*DEL*:00000000H   CODE     ---       QSPI_WRITE_INSTR_SADDR24_SDATA
*DEL*:00000000H   CODE     ---       QSPI_WRITE_INSTR_SADDR32
*DEL*:00000000H   CODE     ---       QSPI_WRITE_INSTR_SADDR32_QDATA
*DEL*:00000000H   CODE     ---       QSPI_WRITE_INSTR_SADDR32_SDATA
      00FFC231H   CODE     ---       QSPI_WRITE_INSTR_SADDR8
*DEL*:00000000H   CODE     ---       QSPI_WRITE_QINSTR
*DEL*:00000000H   CODE     ---       QSPI_WRITE_QINSTR_QADDR24
*DEL*:00000000H   CODE     ---       QSPI_WRITE_QINSTR_QADDR8
*SFR* 00000098H.2 DATA     BIT       RB8
*SFR* 000000CBH   DATA     BYTE      RCAP2H
*SFR* 000000CAH   DATA     BYTE      RCAP2L
*SFR* 000000C8H.5 DATA     BIT       RCLK
*SFR* 000000B0H.7 DATA     BIT       RD
      00FFD7A0H   CODE     ---       ReadPoint
*SFR* 00000098H.4 DATA     BIT       REN
*SFR* 00000098H.0 DATA     BIT       RI
      000107C9H   XDATA    FLOAT     roll
*SFR* 000000D0H.3 DATA     BIT       RS0
*SFR* 000000D0H.4 DATA     BIT       RS1
*SFR* 000000FFH   DATA     BYTE      RSTCFG
*SFR* 000000B0H.0 DATA     BIT       RXD
*SFR* 0000009BH   DATA     BYTE      S2BUF
L251 LINKER/LOCATER V4.66.93.0                                                        05/06/2025  18:54:37  PAGE 34


*SFR* 0000009AH   DATA     BYTE      S2CON
*SFR* 0000009AH.1 DATA     BIT       S2TI
*SFR* 000000ACH   DATA     BYTE      S3CON
*SFR* 000000FDH   DATA     BYTE      S4CON
*SFR* 000000A9H   DATA     BYTE      SADDR
*SFR* 000000B9H   DATA     BYTE      SADEN
*SFR* 00000099H   DATA     BYTE      SBUF
*SFR* 00000090H.7 DATA     BIT       SCK
*SFR* 00000098H   DATA     BYTE      SCON
*SFR* 00000090H.5 DATA     BIT       SDI_IO0
*SFR* 00000090H.6 DATA     BIT       SDO_IO1
      00FFD5DDH   CODE     ---       set_gps_type
*DEL*:00000000H   CODE     ---       set_tof_type
      00FFD674H   CODE     ---       set_wireless_type
      00FF2839H   CODE     ---       sin?_
*SFR* 00000098H.7 DATA     BIT       SM0
*SFR* 00000098H.6 DATA     BIT       SM1
*SFR* 00000098H.5 DATA     BIT       SM2
*DEL*:00000000H   CODE     ---       soft_iic_delay
*DEL*:00000000H   CODE     ---       soft_iic_init
*DEL*:00000000H   CODE     ---       soft_iic_read_16bit
*DEL*:00000000H   CODE     ---       soft_iic_read_16bit_array
*DEL*:00000000H   CODE     ---       soft_iic_read_16bit_register
*DEL*:00000000H   CODE     ---       soft_iic_read_16bit_registers
*DEL*:00000000H   CODE     ---       soft_iic_read_8bit
*DEL*:00000000H   CODE     ---       soft_iic_read_8bit_array
*DEL*:00000000H   CODE     ---       soft_iic_read_8bit_register
*DEL*:00000000H   CODE     ---       soft_iic_read_8bit_registers
*DEL*:00000000H   CODE     ---       soft_iic_read_data
*DEL*:00000000H   CODE     ---       soft_iic_sccb_read_register
*DEL*:00000000H   CODE     ---       soft_iic_sccb_write_register
*DEL*:00000000H   CODE     ---       soft_iic_send_ack
*DEL*:00000000H   CODE     ---       soft_iic_send_data
*DEL*:00000000H   CODE     ---       soft_iic_start
*DEL*:00000000H   CODE     ---       soft_iic_stop
*DEL*:00000000H   CODE     ---       soft_iic_transfer_16bit_array
*DEL*:00000000H   CODE     ---       soft_iic_transfer_8bit_array
*DEL*:00000000H   CODE     ---       soft_iic_wait_ack
*DEL*:00000000H   CODE     ---       soft_iic_write_16bit
*DEL*:00000000H   CODE     ---       soft_iic_write_16bit_array
*DEL*:00000000H   CODE     ---       soft_iic_write_16bit_register
*DEL*:00000000H   CODE     ---       soft_iic_write_16bit_registers
*DEL*:00000000H   CODE     ---       soft_iic_write_8bit
*DEL*:00000000H   CODE     ---       soft_iic_write_8bit_array
*DEL*:00000000H   CODE     ---       soft_iic_write_8bit_register
*DEL*:00000000H   CODE     ---       soft_iic_write_8bit_registers
*SFR* 00000081H   DATA     BYTE      SP
*SFR* 000000CEH   DATA     BYTE      SPCTL
*SFR* 000000CFH   DATA     BYTE      SPDAT
*SFR* 000000BEH   DATA     BYTE      SPH
      00FF79DFH   CODE     ---       spi_init
*DEL*:00000000H   CODE     ---       spi_read_16bit
*DEL*:00000000H   CODE     ---       spi_read_16bit_array
*DEL*:00000000H   CODE     ---       spi_read_16bit_register
*DEL*:00000000H   CODE     ---       spi_read_16bit_registers
*DEL*:00000000H   CODE     ---       spi_read_8bit
*DEL*:00000000H   CODE     ---       spi_read_8bit_array
*DEL*:00000000H   CODE     ---       spi_read_8bit_register
      00FFDEE6H   CODE     ---       spi_read_8bit_registers
      00FFDFB9H   CODE     ---       spi_read_dat
*DEL*:00000000H   CODE     ---       spi_transfer_16bit
*DEL*:00000000H   CODE     ---       spi_transfer_8bit
      00FFE731H   CODE     ---       spi_write_16bit
*DEL*:00000000H   CODE     ---       spi_write_16bit_array
*DEL*:00000000H   CODE     ---       spi_write_16bit_register
L251 LINKER/LOCATER V4.66.93.0                                                        05/06/2025  18:54:37  PAGE 35


*DEL*:00000000H   CODE     ---       spi_write_16bit_registers
      00FFE91AH   CODE     ---       spi_write_8bit
*DEL*:00000000H   CODE     ---       spi_write_8bit_array
      00FFE7F4H   CODE     ---       spi_write_8bit_register
      00FFE197H   CODE     ---       spi_write_8bit_registers
      00FFE496H   CODE     ---       spi_write_dat
      00FF26A4H   CODE     NEAR LAB  sprintf
*SFR* 000000CDH   DATA     BYTE      SPSTAT
      00FF26CAH   CODE     ---       sqrt?_
      00011480H   XDATA    INT       State
      00FF01CEH   CODE     ---       StateUpdate
      00FFE8FBH   CODE     ---       strchr?_
      00FFE999H   CODE     ---       strlen?_
      00FFE6FAH   CODE     ---       strncmp?_
      00FFE797H   CODE     ---       strncpy?_
      00011418H   XDATA    LONG      system_clock
      00FFE0DDH   CODE     ---       system_delay_init
      00FFDB7CH   CODE     ---       system_delay_ms
*DEL*:00000000H   CODE     ---       system_delay_us
*SFR* 000000B0H.4 DATA     BIT       T0
*SFR* 000000B0H.5 DATA     BIT       T1
*SFR* 00000090H.0 DATA     BIT       T2
*SFR* 000000C8H   DATA     BYTE      T2CON
*SFR* 00000090H.1 DATA     BIT       T2EX
*SFR* 000000D6H   DATA     BYTE      T2H
*SFR* 000000D7H   DATA     BYTE      T2L
*SFR* 000000C9H   DATA     BYTE      T2MOD
*SFR* 000000D4H   DATA     BYTE      T3H
*SFR* 000000D5H   DATA     BYTE      T3L
*SFR* 000000D2H   DATA     BYTE      T4H
*SFR* 000000D3H   DATA     BYTE      T4L
*SFR* 000000DDH   DATA     BYTE      T4T3M
      00FF286EH   CODE     ---       TAN?_
      0001099EH   XDATA    ---       target_point
*SFR* 00000098H.3 DATA     BIT       TB8
*SFR* 000000C8H.4 DATA     BIT       TCLK
*SFR* 00000088H   DATA     BYTE      TCON
*SFR* 00000088H.5 DATA     BIT       TF0
*SFR* 00000088H.7 DATA     BIT       TF1
*SFR* 000000C8H.7 DATA     BIT       TF2
      00FF4B78H   CODE     ---       tft_ascii
*SFR* 0000008CH   DATA     BYTE      TH0
*SFR* 0000008DH   DATA     BYTE      TH1
*SFR* 000000CDH   DATA     BYTE      TH2
*SFR* 00000098H.1 DATA     BIT       TI
      00010B32H   XDATA    ---       tim0_irq_handler
      00010B28H   XDATA    ---       tim11_irq_handler
      00010B36H   XDATA    ---       tim1_irq_handler
      00010B3AH   XDATA    ---       tim2_irq_handler
      00010B3EH   XDATA    ---       tim3_irq_handler
      00010B42H   XDATA    ---       tim4_irq_handler
*DEL*:00000000H   CODE     ---       timer_funciton_check
*SFR* 0000008AH   DATA     BYTE      TL0
*SFR* 0000008BH   DATA     BYTE      TL1
*SFR* 000000CCH   DATA     BYTE      TL2
      00FFE4DDH   CODE     ---       TM0_IRQHandler
      00FFE44BH   CODE     ---       TM11_IRQHandler
      00FFE51BH   CODE     ---       TM1_IRQHandler
      00FFE559H   CODE     ---       TM2_IRQHandler
      00FFE597H   CODE     ---       TM3_IRQHandler
      00FFE5D5H   CODE     ---       TM4_IRQHandler
*SFR* 00000089H   DATA     BYTE      TMOD
      00011312H   XDATA    ---       tof_module_exti_handler
      00011316H   XDATA    INT       tof_type
*SFR* 00000088H.4 DATA     BIT       TR0
L251 LINKER/LOCATER V4.66.93.0                                                        05/06/2025  18:54:37  PAGE 36


*SFR* 00000088H.6 DATA     BIT       TR1
*SFR* 000000C8H.2 DATA     BIT       TR2
*DEL*:00000000H   CODE     ---       tsl1401_collect_pit_handler
      00010001H   XDATA    ---       tsl1401_data
      00010000H   XDATA    BYTE      tsl1401_finish_flag
*DEL*:00000000H   CODE     ---       tsl1401_init
*DEL*:00000000H   CODE     ---       tsl1401_send_data
*SFR* 000000B0H.1 DATA     BIT       TXD
      00010B2AH   XDATA    ---       uart1_irq_handler
      00010B2CH   XDATA    ---       uart2_irq_handler
      00010B2EH   XDATA    ---       uart3_irq_handler
      00010B30H   XDATA    ---       uart4_irq_handler
      00FFAF77H   CODE     ---       uart_dma_init
*DEL*:00000000H   CODE     ---       uart_funciton_check
      00FF9333H   CODE     ---       uart_init
      00FFD8C6H   CODE     ---       uart_query_byte
*DEL*:00000000H   CODE     ---       uart_read_byte
      00010E6EH   XDATA    ---       uart_rx_buff
      00FFE2FCH   CODE     ---       uart_rx_interrupt
      00FFD019H   CODE     ---       uart_rx_start_buff
      00FFBD68H   CODE     ---       uart_write_buffer
      00FFE8DBH   CODE     ---       uart_write_byte
*DEL*:00000000H   CODE     ---       uart_write_string
*SFR* 000000F4H   DATA     BYTE      USBCON
      000104DEH   XDATA    FLOAT     velocity_error
      000104E2H   XDATA    FLOAT     velocity_IMAX
      00010566H   XDATA    FLOAT     velocity_KD
      0001056AH   XDATA    FLOAT     velocity_KI
      0001056EH   XDATA    FLOAT     velocity_KP
      0001055AH   XDATA    FLOAT     velocity_OUTMAX
      000104EAH   XDATA    ---       velocity_pid
*DEL*:00000000H   CODE     ---       Velocity_Pid_fun
      00010562H   XDATA    FLOAT     velocity_target
*DEL*:00000000H   CODE     ---       W25Q_DMA_FastRead_0B
*DEL*:00000000H   CODE     ---       W25Q_DMA_FastRead_3B
*DEL*:00000000H   CODE     ---       W25Q_DMA_FastRead_6B
*DEL*:00000000H   CODE     ---       W25Q_DMA_FastRead_Addr32_0C
*DEL*:00000000H   CODE     ---       W25Q_DMA_FastRead_Addr32_3C
*DEL*:00000000H   CODE     ---       W25Q_DMA_FastRead_Addr32_6C
*DEL*:00000000H   CODE     ---       W25Q_DMA_FastRead_Addr32_BC
*DEL*:00000000H   CODE     ---       W25Q_DMA_FastRead_Addr32_EC
*DEL*:00000000H   CODE     ---       W25Q_DMA_FastRead_BB
*DEL*:00000000H   CODE     ---       W25Q_DMA_FastRead_EB
*DEL*:00000000H   CODE     ---       W25Q_DMA_OctalWordRead_E3
*DEL*:00000000H   CODE     ---       W25Q_DMA_PageProgram_02
*DEL*:00000000H   CODE     ---       W25Q_DMA_PageProgram_32
*DEL*:00000000H   CODE     ---       W25Q_DMA_PageProgram_Addr32_12
*DEL*:00000000H   CODE     ---       W25Q_DMA_PageProgram_Addr32_34
*DEL*:00000000H   CODE     ---       W25Q_DMA_ReadData_03
*DEL*:00000000H   CODE     ---       W25Q_DMA_ReadData_Addr32_13
*DEL*:00000000H   CODE     ---       W25Q_DMA_WordRead_E7
      00FFE6C2H   CODE     ---       W25Q_Enable_QE
*DEL*:00000000H   CODE     ---       W25Q_EnterAddr32Mode_B7
*DEL*:00000000H   CODE     ---       W25Q_EnterQPIMode_38
*DEL*:00000000H   CODE     ---       W25Q_Erase32K_52
      00FFE847H   CODE     ---       W25Q_Erase4K_20
*DEL*:00000000H   CODE     ---       W25Q_Erase4K_Addr32_21
*DEL*:00000000H   CODE     ---       W25Q_Erase64K_Addr32_DC
*DEL*:00000000H   CODE     ---       W25Q_Erase64K_D8
*DEL*:00000000H   CODE     ---       W25Q_EraseChip_C7
*DEL*:00000000H   CODE     ---       W25Q_EraseResume_7A
*DEL*:00000000H   CODE     ---       W25Q_EraseSecurityReg_44
*DEL*:00000000H   CODE     ---       W25Q_EraseSuspend_75
*DEL*:00000000H   CODE     ---       W25Q_ExitAddr32Mode_E9
*DEL*:00000000H   CODE     ---       W25Q_FastRead_0B
L251 LINKER/LOCATER V4.66.93.0                                                        05/06/2025  18:54:37  PAGE 37


*DEL*:00000000H   CODE     ---       W25Q_FastRead_3B
      00FFCF63H   CODE     ---       W25Q_FastRead_6B
*DEL*:00000000H   CODE     ---       W25Q_FastRead_Addr32_0C
*DEL*:00000000H   CODE     ---       W25Q_FastRead_Addr32_3C
*DEL*:00000000H   CODE     ---       W25Q_FastRead_Addr32_6C
*DEL*:00000000H   CODE     ---       W25Q_FastRead_Addr32_BC
*DEL*:00000000H   CODE     ---       W25Q_FastRead_Addr32_EC
*DEL*:00000000H   CODE     ---       W25Q_FastRead_BB
*DEL*:00000000H   CODE     ---       W25Q_FastRead_EB
*DEL*:00000000H   CODE     ---       W25Q_LockGlobal_7E
*DEL*:00000000H   CODE     ---       W25Q_LockSector_36
*DEL*:00000000H   CODE     ---       W25Q_OctalWordRead_E3
*DEL*:00000000H   CODE     ---       W25Q_PageProgram_02
      00FFC794H   CODE     ---       W25Q_PageProgram_32
*DEL*:00000000H   CODE     ---       W25Q_PageProgram_Addr32_12
*DEL*:00000000H   CODE     ---       W25Q_PageProgram_Addr32_34
*DEL*:00000000H   CODE     ---       W25Q_PowerDown_B9
*DEL*:00000000H   CODE     ---       W25Q_ProgramResume_7A
*DEL*:00000000H   CODE     ---       W25Q_ProgramSecurityReg_42
*DEL*:00000000H   CODE     ---       W25Q_ProgramSuspend_75
*DEL*:00000000H   CODE     ---       W25Q_QPI_BurstReadWithWrap_0C
*DEL*:00000000H   CODE     ---       W25Q_QPI_DMA_FastRead_0B
*DEL*:00000000H   CODE     ---       W25Q_QPI_DMA_FastRead_EB
*DEL*:00000000H   CODE     ---       W25Q_QPI_Erase32K_52
*DEL*:00000000H   CODE     ---       W25Q_QPI_Erase4K_20
*DEL*:00000000H   CODE     ---       W25Q_QPI_Erase64K_D8
*DEL*:00000000H   CODE     ---       W25Q_QPI_EraseChip_C7
*DEL*:00000000H   CODE     ---       W25Q_QPI_EraseResume_7A
*DEL*:00000000H   CODE     ---       W25Q_QPI_EraseSuspend_75
*DEL*:00000000H   CODE     ---       W25Q_QPI_ExitQPIMode_FF
*DEL*:00000000H   CODE     ---       W25Q_QPI_FastRead_0B
*DEL*:00000000H   CODE     ---       W25Q_QPI_FastRead_EB
*DEL*:00000000H   CODE     ---       W25Q_QPI_LockGlobal_7E
*DEL*:00000000H   CODE     ---       W25Q_QPI_LockSector_36
*DEL*:00000000H   CODE     ---       W25Q_QPI_PowerDown_B9
*DEL*:00000000H   CODE     ---       W25Q_QPI_ProgramResume_7A
*DEL*:00000000H   CODE     ---       W25Q_QPI_ProgramSuspend_75
*DEL*:00000000H   CODE     ---       W25Q_QPI_ReadDeviceID_AB
*DEL*:00000000H   CODE     ---       W25Q_QPI_ReadJEDECID_9F
*DEL*:00000000H   CODE     ---       W25Q_QPI_ReadLockSector_3D
*DEL*:00000000H   CODE     ---       W25Q_QPI_ReadSR1_05
*DEL*:00000000H   CODE     ---       W25Q_QPI_ReadSR2_35
*DEL*:00000000H   CODE     ---       W25Q_QPI_ReadSR3_15
*DEL*:00000000H   CODE     ---       W25Q_QPI_ReleasePowerDown_AB
*DEL*:00000000H   CODE     ---       W25Q_QPI_ResetDevice_66_99
*DEL*:00000000H   CODE     ---       W25Q_QPI_SetReadParam_C0
*DEL*:00000000H   CODE     ---       W25Q_QPI_UnlockGlobal_98
*DEL*:00000000H   CODE     ---       W25Q_QPI_UnlockSector_39
*DEL*:00000000H   CODE     ---       W25Q_QPI_WaitBusy
*DEL*:00000000H   CODE     ---       W25Q_QPI_WriteDisable_04
*DEL*:00000000H   CODE     ---       W25Q_QPI_WriteEnable_06
*DEL*:00000000H   CODE     ---       W25Q_QPI_WriteEnableVSR_50
*DEL*:00000000H   CODE     ---       W25Q_QPI_WriteSR1_01
*DEL*:00000000H   CODE     ---       W25Q_QPI_WriteSR2_31
*DEL*:00000000H   CODE     ---       W25Q_QPI_WriteSR3_11
*DEL*:00000000H   CODE     ---       W25Q_ReadData_03
*DEL*:00000000H   CODE     ---       W25Q_ReadData_Addr32_13
*DEL*:00000000H   CODE     ---       W25Q_ReadDeviceID_AB
*DEL*:00000000H   CODE     ---       W25Q_ReadEAR_C8
*DEL*:00000000H   CODE     ---       W25Q_ReadID_90
*DEL*:00000000H   CODE     ---       W25Q_ReadID_92
*DEL*:00000000H   CODE     ---       W25Q_ReadID_94
      00FFE81FH   CODE     ---       W25Q_ReadJEDECID_9F
*DEL*:00000000H   CODE     ---       W25Q_ReadLockSector_3D
*DEL*:00000000H   CODE     ---       W25Q_ReadSecurityReg_48
L251 LINKER/LOCATER V4.66.93.0                                                        05/06/2025  18:54:37  PAGE 38


*DEL*:00000000H   CODE     ---       W25Q_ReadSFDP_5A
      00FFE949H   CODE     ---       W25Q_ReadSR1_05
      00FFE95FH   CODE     ---       W25Q_ReadSR2_35
*DEL*:00000000H   CODE     ---       W25Q_ReadSR3_15
*DEL*:00000000H   CODE     ---       W25Q_ReadUniqueID_4B
*DEL*:00000000H   CODE     ---       W25Q_ReleasePowerDown_AB
*DEL*:00000000H   CODE     ---       W25Q_ResetDevice_66_99
*DEL*:00000000H   CODE     ---       W25Q_SetBurstWrap_77
*DEL*:00000000H   CODE     ---       W25Q_UnlockGlobal_98
*DEL*:00000000H   CODE     ---       W25Q_UnlockSector_39
      00FF0003H   CODE     ---       W25Q_WaitBusy
*DEL*:00000000H   CODE     ---       W25Q_WordRead_E7
*DEL*:00000000H   CODE     ---       W25Q_WriteDisable_04
*DEL*:00000000H   CODE     ---       W25Q_WriteEAR_C5
      00FF0014H   CODE     ---       W25Q_WriteEnable_06
      00FF000EH   CODE     ---       W25Q_WriteEnableVSR_50
      00FFE987H   CODE     ---       W25Q_WriteSR12_01
*DEL*:00000000H   CODE     ---       W25Q_WriteSR1_01
      00FFE932H   CODE     ---       W25Q_WriteSR2_31
*DEL*:00000000H   CODE     ---       W25Q_WriteSR3_11
*SFR* 000000C1H   DATA     BYTE      WDT_CONTR
*SFR* 000000A6H   DATA     BYTE      WDTRST
      00011314H   XDATA    INT       wireless_type
*SFR* 000000ABH   DATA     BYTE      WKTCH
*SFR* 00000090H.3 DATA     BIT       WP_IO2
*SFR* 000000B0H.6 DATA     BIT       WR
      00FFE8B9H   CODE     ---       WritePoint
*SFR* 000000E9H   DATA     BYTE      WTST
      000107CDH   XDATA    FLOAT     x_p
      000107D9H   XDATA    FLOAT     x_v
      000107D1H   XDATA    FLOAT     y_p
      000107DDH   XDATA    FLOAT     y_v
      000107E5H   XDATA    FLOAT     yaw
      000107D5H   XDATA    FLOAT     z_p
      000107E1H   XDATA    FLOAT     z_v
      00FF3951H   CODE     ---       zf_sprintf



SYMBOL TABLE OF MODULE:  .\out_file\SEEKFREE (ai8051u_isr)

      VALUE       REP       CLASS    TYPE      SYMBOL NAME
      ====================================================
      ---         MODULE    ---      ---       ai8051u_isr

      00FF019BH   BLOCK     CODE     NEAR LAB  LVL=0
      00FF019BH   LINE      CODE     ---       #3
      ---         BLOCKEND  ---      ---       LVL=0

      00FF01ABH   BLOCK     CODE     NEAR LAB  LVL=0
      00FF01ABH   LINE      CODE     ---       #6
      ---         BLOCKEND  ---      ---       LVL=0

      00FF01BBH   BLOCK     CODE     NEAR LAB  LVL=0
      00FF01BBH   LINE      CODE     ---       #9
      ---         BLOCKEND  ---      ---       LVL=0

      00FF01CBH   BLOCK     CODE     NEAR LAB  LVL=0
      00FF01CBH   LINE      CODE     ---       #12
      ---         BLOCKEND  ---      ---       LVL=0

      00FF021BH   BLOCK     CODE     NEAR LAB  LVL=0
      00FF021BH   LINE      CODE     ---       #15
      ---         BLOCKEND  ---      ---       LVL=0

L251 LINKER/LOCATER V4.66.93.0                                                        05/06/2025  18:54:37  PAGE 39


      ---         MODULE    ---      ---       zf_common_clock
      00FFCA80H   PUBLIC    CODE     ---       clock_init
      00011418H   PUBLIC    XDATA    LONG      system_clock
      00000094H   SFRSYM    DATA     BYTE      P0M0
      000000D0H   SFRSYM    DATA     BYTE      PSW
      0000009DH   SFRSYM    DATA     BYTE      IRCBAND
      00000097H   SFRSYM    DATA     BYTE      AUXR2
      000000EAH   SFRSYM    DATA     BYTE      CKCON
      000000EFH   SFRSYM    DATA     BYTE      AUXINTIF
      000000FDH   SFRSYM    DATA     BYTE      S4CON
      000000ACH   SFRSYM    DATA     BYTE      S3CON
      0000009AH   SFRSYM    DATA     BYTE      S2CON
      000000B7H   SFRSYM    DATA     BYTE      IPH
      000000CDH   SFRSYM    DATA     BYTE      SPSTAT
      000000DDH   SFRSYM    DATA     BYTE      T4T3M
      000000C1H   SFRSYM    DATA     BYTE      WDT_CONTR
      000000E9H   SFRSYM    DATA     BYTE      WTST
      000000DFH   SFRSYM    DATA     BYTE      IP3
      000000F4H   SFRSYM    DATA     BYTE      USBCON
      000000B5H   SFRSYM    DATA     BYTE      IP2
      000000FFH   SFRSYM    DATA     BYTE      RSTCFG
      000000C7H   SFRSYM    DATA     BYTE      IAP_CONTR
      0000008EH   SFRSYM    DATA     BYTE      AUXR
      000000AFH   SFRSYM    DATA     BYTE      IE2
      00000088H   SFRSYM    DATA     BYTE      TCON
      00000089H   SFRSYM    DATA     BYTE      TMOD
      00000098H   SFRSYM    DATA     BYTE      SCON
      00000087H   SFRSYM    DATA     BYTE      PCON
      000000BCH   SFRSYM    DATA     BYTE      ADC_CONTR
      000000D1H   SFRSYM    DATA     BYTE      PSW1
      000000E7H   SFRSYM    DATA     BYTE      CMPCR2
      000000E6H   SFRSYM    DATA     BYTE      CMPCR1
      000000DEH   SFRSYM    DATA     BYTE      ADCCFG
      000000B8H   SFRSYM    DATA     BYTE      IP
      0000008FH   SFRSYM    DATA     BYTE      INTCLKO
      000000EEH   SFRSYM    DATA     BYTE      IP3H
      000000B6H   SFRSYM    DATA     BYTE      IP2H
      000000BFH   SFRSYM    DATA     BYTE      P_SW4
      000000A8H   SFRSYM    DATA     BYTE      IE
      000000BBH   SFRSYM    DATA     BYTE      P_SW3
      000000BAH   SFRSYM    DATA     BYTE      P_SW2
      000000A2H   SFRSYM    DATA     BYTE      P_SW1
      000000CEH   SFRSYM    DATA     BYTE      SPCTL
      000000F8H   SFRSYM    DATA     BYTE      P7
      000000E1H   SFRSYM    DATA     BYTE      P7M1
      000000E8H   SFRSYM    DATA     BYTE      P6
      000000C8H   SFRSYM    DATA     BYTE      P5
      000000CBH   SFRSYM    DATA     BYTE      P6M1
      000000E2H   SFRSYM    DATA     BYTE      P7M0
      000000C0H   SFRSYM    DATA     BYTE      P4
      000000C9H   SFRSYM    DATA     BYTE      P5M1
      000000CCH   SFRSYM    DATA     BYTE      P6M0
      000000ABH   SFRSYM    DATA     BYTE      WKTCH
      000000B0H   SFRSYM    DATA     BYTE      P3
      000000B3H   SFRSYM    DATA     BYTE      P4M1
      000000CAH   SFRSYM    DATA     BYTE      P5M0
      000000A0H   SFRSYM    DATA     BYTE      P2
      000000B1H   SFRSYM    DATA     BYTE      P3M1
      000000B4H   SFRSYM    DATA     BYTE      P4M0
      00000090H   SFRSYM    DATA     BYTE      P1
      00000095H   SFRSYM    DATA     BYTE      P2M1
      000000B2H   SFRSYM    DATA     BYTE      P3M0
      00000080H   SFRSYM    DATA     BYTE      P0
      00000091H   SFRSYM    DATA     BYTE      P1M1
      00000096H   SFRSYM    DATA     BYTE      P2M0
L251 LINKER/LOCATER V4.66.93.0                                                        05/06/2025  18:54:37  PAGE 40


      00000092H   SFRSYM    DATA     BYTE      P1M0
      00000093H   SFRSYM    DATA     BYTE      P0M1

      00FFCA80H   BLOCK     CODE     ---       LVL=0
      0001141CH   SYMBOL    XDATA    DWORD     clock
      00FFCA80H   LINE      CODE     ---       #47
      00FFCA8AH   LINE      CODE     ---       #49
      00FFCA8DH   LINE      CODE     ---       #50
      00FFCA90H   LINE      CODE     ---       #51
      00FFCA93H   LINE      CODE     ---       #54
      00FFCAA0H   LINE      CODE     ---       #55
      00FFCAAEH   LINE      CODE     ---       #56
      00FFCABAH   LINE      CODE     ---       #57
      00FFCAC7H   LINE      CODE     ---       #58
      00FFCAD3H   LINE      CODE     ---       #60
      00FFCAD6H   LINE      CODE     ---       #63
      00FFCAEAH   LINE      CODE     ---       #65
      00FFCAEDH   LINE      CODE     ---       #66
      00FFCAF0H   LINE      CODE     ---       #67
      00FFCAF3H   LINE      CODE     ---       #68
      00FFCAF6H   LINE      CODE     ---       #69
      00FFCAF9H   LINE      CODE     ---       #70
      00FFCAFCH   LINE      CODE     ---       #71
      00FFCAFFH   LINE      CODE     ---       #72
      00FFCB02H   LINE      CODE     ---       #73
      00FFCB05H   LINE      CODE     ---       #74
      00FFCB08H   LINE      CODE     ---       #75
      00FFCB0BH   LINE      CODE     ---       #76
      00FFCB0EH   LINE      CODE     ---       #77
      00FFCB11H   LINE      CODE     ---       #78
      00FFCB14H   LINE      CODE     ---       #79
      00FFCB17H   LINE      CODE     ---       #80
      00FFCB1AH   LINE      CODE     ---       #83
      00FFCB1DH   LINE      CODE     ---       #84
      00FFCB20H   LINE      CODE     ---       #85
      00FFCB23H   LINE      CODE     ---       #86
      00FFCB26H   LINE      CODE     ---       #87
      00FFCB29H   LINE      CODE     ---       #88
      00FFCB2CH   LINE      CODE     ---       #89
      00FFCB2FH   LINE      CODE     ---       #90
      00FFCB32H   LINE      CODE     ---       #91
      00FFCB35H   LINE      CODE     ---       #92
      00FFCB38H   LINE      CODE     ---       #93
      00FFCB44H   LINE      CODE     ---       #94
      00FFCB50H   LINE      CODE     ---       #96
      00FFCB5CH   LINE      CODE     ---       #97
      00FFCB68H   LINE      CODE     ---       #100
      00FFCB6BH   LINE      CODE     ---       #101
      ---         BLOCKEND  ---      ---       LVL=0

      ---         MODULE    ---      ---       zf_common_debug
      00FFE650H   PUBLIC    CODE     ---       debug_interrupr_handler
      00FFD378H   PUBLIC    CODE     ---       debug_init
      00FFE975H   PUBLIC    CODE     ---       putchar
      0001075CH   PUBLIC    XDATA    ---       debug_uart_buffer
      0001079DH   PUBLIC    XDATA    ---       debug_uart_fifo
      000000D0H   SFRSYM    DATA     BYTE      PSW
      0000009DH   SFRSYM    DATA     BYTE      IRCBAND
      00000097H   SFRSYM    DATA     BYTE      AUXR2
      000000EFH   SFRSYM    DATA     BYTE      AUXINTIF
      000000FDH   SFRSYM    DATA     BYTE      S4CON
      000000ACH   SFRSYM    DATA     BYTE      S3CON
      0000009AH   SFRSYM    DATA     BYTE      S2CON
      000000B7H   SFRSYM    DATA     BYTE      IPH
      000000CDH   SFRSYM    DATA     BYTE      SPSTAT
L251 LINKER/LOCATER V4.66.93.0                                                        05/06/2025  18:54:37  PAGE 41


      000000DDH   SFRSYM    DATA     BYTE      T4T3M
      000000C1H   SFRSYM    DATA     BYTE      WDT_CONTR
      000000DFH   SFRSYM    DATA     BYTE      IP3
      000000F4H   SFRSYM    DATA     BYTE      USBCON
      000000B5H   SFRSYM    DATA     BYTE      IP2
      000000FFH   SFRSYM    DATA     BYTE      RSTCFG
      000000C7H   SFRSYM    DATA     BYTE      IAP_CONTR
      0000008EH   SFRSYM    DATA     BYTE      AUXR
      000000AFH   SFRSYM    DATA     BYTE      IE2
      00000088H   SFRSYM    DATA     BYTE      TCON
      00000089H   SFRSYM    DATA     BYTE      TMOD
      00000098H   SFRSYM    DATA     BYTE      SCON
      00000087H   SFRSYM    DATA     BYTE      PCON
      000000BCH   SFRSYM    DATA     BYTE      ADC_CONTR
      000000D1H   SFRSYM    DATA     BYTE      PSW1
      000000E7H   SFRSYM    DATA     BYTE      CMPCR2
      000000E6H   SFRSYM    DATA     BYTE      CMPCR1
      000000DEH   SFRSYM    DATA     BYTE      ADCCFG
      000000B8H   SFRSYM    DATA     BYTE      IP
      0000008FH   SFRSYM    DATA     BYTE      INTCLKO
      000000EEH   SFRSYM    DATA     BYTE      IP3H
      000000B6H   SFRSYM    DATA     BYTE      IP2H
      000000BFH   SFRSYM    DATA     BYTE      P_SW4
      000000A8H   SFRSYM    DATA     BYTE      IE
      000000BBH   SFRSYM    DATA     BYTE      P_SW3
      000000BAH   SFRSYM    DATA     BYTE      P_SW2
      000000A2H   SFRSYM    DATA     BYTE      P_SW1
      000000CEH   SFRSYM    DATA     BYTE      SPCTL
      000000F8H   SFRSYM    DATA     BYTE      P7
      000000E8H   SFRSYM    DATA     BYTE      P6
      000000C8H   SFRSYM    DATA     BYTE      P5
      000000C0H   SFRSYM    DATA     BYTE      P4
      000000ABH   SFRSYM    DATA     BYTE      WKTCH
      000000B0H   SFRSYM    DATA     BYTE      P3
      000000A0H   SFRSYM    DATA     BYTE      P2
      00000090H   SFRSYM    DATA     BYTE      P1
      00000080H   SFRSYM    DATA     BYTE      P0
      0001079CH   SYMBOL    XDATA    BYTE      zf_debug_assert_enable
      000107B4H   SYMBOL    XDATA    BYTE      zf_debug_init_flag
      000112A2H   SYMBOL    XDATA    ---       buff
      000112A6H   SYMBOL    XDATA    DWORD     len
      000112AAH   SYMBOL    XDATA    ---       buff
      000112AEH   SYMBOL    XDATA    DWORD     len

      00FFE650H   BLOCK     CODE     ---       LVL=0
      0001150AH   SYMBOL    XDATA    BYTE      dat
      00FFE650H   LINE      CODE     ---       #280
      00FFE654H   LINE      CODE     ---       #282
      00FFE65AH   LINE      CODE     ---       #284
      00FFE667H   LINE      CODE     ---       #285
      00FFE688H   LINE      CODE     ---       #286
      ---         BLOCKEND  ---      ---       LVL=0

      00FFE975H   BLOCK     CODE     ---       LVL=0
      0001150BH   SYMBOL    XDATA    CHAR      c
      00FFE975H   LINE      CODE     ---       #302
      00FFE979H   LINE      CODE     ---       #304
      00FFE982H   LINE      CODE     ---       #306
      00FFE986H   LINE      CODE     ---       #307
      ---         BLOCKEND  ---      ---       LVL=0

      00FFD378H   BLOCK     CODE     ---       LVL=0
      0001150CH   SYMBOL    XDATA    BYTE      uartx
      00FFD378H   LINE      CODE     ---       #488
      00FFD378H   LINE      CODE     ---       #489
L251 LINKER/LOCATER V4.66.93.0                                                        05/06/2025  18:54:37  PAGE 42


      00FFD378H   LINE      CODE     ---       #490
      00FFD37DH   LINE      CODE     ---       #496
      00FFD398H   LINE      CODE     ---       #503
      00FFD3C5H   LINE      CODE     ---       #504
      00FFD3CCH   LINE      CODE     ---       #507
      00FFD3D2H   LINE      CODE     ---       #509
      00FFD3DCH   LINE      CODE     ---       #510
      00FFD3DEH   LINE      CODE     ---       #511
      00FFD3E5H   LINE      CODE     ---       #513
      00FFD3EFH   LINE      CODE     ---       #514
      00FFD3F1H   LINE      CODE     ---       #515
      00FFD3F8H   LINE      CODE     ---       #517
      00FFD402H   LINE      CODE     ---       #518
      00FFD404H   LINE      CODE     ---       #519
      00FFD40BH   LINE      CODE     ---       #521
      00FFD415H   LINE      CODE     ---       #522
      ---         BLOCKEND  ---      ---       LVL=0

      ---         MODULE    ---      ---       zf_common_fifo
      00FF6FF6H   PUBLIC    CODE     ---       fifo_read_buffer
      00FFBAE8H   PUBLIC    CODE     ---       fifo_clear
      00FF6ABBH   PUBLIC    CODE     ---       fifo_write_buffer
      00FFE766H   PUBLIC    CODE     ---       fifo_used
      00FFD0CBH   PUBLIC    CODE     ---       fifo_init
      00010CBDH   PUBLIC    XDATA    BYTE      ?fifo_write_buffer?BYTE
      00010BCEH   PUBLIC    XDATA    BYTE      ?fifo_read_buffer?BYTE
      00010D13H   PUBLIC    XDATA    BYTE      ?fifo_init?BYTE
      000000D0H   SFRSYM    DATA     BYTE      PSW
      0000009DH   SFRSYM    DATA     BYTE      IRCBAND
      00000097H   SFRSYM    DATA     BYTE      AUXR2
      000000EFH   SFRSYM    DATA     BYTE      AUXINTIF
      000000FDH   SFRSYM    DATA     BYTE      S4CON
      000000ACH   SFRSYM    DATA     BYTE      S3CON
      0000009AH   SFRSYM    DATA     BYTE      S2CON
      000000B7H   SFRSYM    DATA     BYTE      IPH
      000000CDH   SFRSYM    DATA     BYTE      SPSTAT
      000000DDH   SFRSYM    DATA     BYTE      T4T3M
      000000C1H   SFRSYM    DATA     BYTE      WDT_CONTR
      000000DFH   SFRSYM    DATA     BYTE      IP3
      000000F4H   SFRSYM    DATA     BYTE      USBCON
      000000B5H   SFRSYM    DATA     BYTE      IP2
      000000FFH   SFRSYM    DATA     BYTE      RSTCFG
      000000C7H   SFRSYM    DATA     BYTE      IAP_CONTR
      0000008EH   SFRSYM    DATA     BYTE      AUXR
      000000AFH   SFRSYM    DATA     BYTE      IE2
      00000088H   SFRSYM    DATA     BYTE      TCON
      00000089H   SFRSYM    DATA     BYTE      TMOD
      00000098H   SFRSYM    DATA     BYTE      SCON
      00000087H   SFRSYM    DATA     BYTE      PCON
      000000BCH   SFRSYM    DATA     BYTE      ADC_CONTR
      000000D1H   SFRSYM    DATA     BYTE      PSW1
      000000E7H   SFRSYM    DATA     BYTE      CMPCR2
      000000E6H   SFRSYM    DATA     BYTE      CMPCR1
      000000DEH   SFRSYM    DATA     BYTE      ADCCFG
      000000B8H   SFRSYM    DATA     BYTE      IP
      0000008FH   SFRSYM    DATA     BYTE      INTCLKO
      000000EEH   SFRSYM    DATA     BYTE      IP3H
      000000B6H   SFRSYM    DATA     BYTE      IP2H
      000000BFH   SFRSYM    DATA     BYTE      P_SW4
      000000A8H   SFRSYM    DATA     BYTE      IE
      000000BBH   SFRSYM    DATA     BYTE      P_SW3
      000000BAH   SFRSYM    DATA     BYTE      P_SW2
      000000A2H   SFRSYM    DATA     BYTE      P_SW1
      000000CEH   SFRSYM    DATA     BYTE      SPCTL
      000000F8H   SFRSYM    DATA     BYTE      P7
L251 LINKER/LOCATER V4.66.93.0                                                        05/06/2025  18:54:37  PAGE 43


      000000E8H   SFRSYM    DATA     BYTE      P6
      000000C8H   SFRSYM    DATA     BYTE      P5
      000000C0H   SFRSYM    DATA     BYTE      P4
      000000ABH   SFRSYM    DATA     BYTE      WKTCH
      000000B0H   SFRSYM    DATA     BYTE      P3
      000000A0H   SFRSYM    DATA     BYTE      P2
      00000090H   SFRSYM    DATA     BYTE      P1
      00000080H   SFRSYM    DATA     BYTE      P0
      00FFD4AFH   SYMBOL    CODE     ---       fifo_head_offset
      00FFD546H   SYMBOL    CODE     ---       fifo_end_offset

      00FFD4AFH   BLOCK     CODE     ---       LVL=0
      000112B2H   SYMBOL    XDATA    ---       fifo
      000112B6H   SYMBOL    XDATA    DWORD     offset
      00FFD4AFH   LINE      CODE     ---       #49
      00FFD4C3H   LINE      CODE     ---       #51
      00FFD4EBH   LINE      CODE     ---       #53
      00FFD4EDH   LINE      CODE     ---       #55
      00FFD51DH   LINE      CODE     ---       #56
      00FFD545H   LINE      CODE     ---       #57
      ---         BLOCKEND  ---      ---       LVL=0

      00FFD546H   BLOCK     CODE     ---       LVL=0
      000112BAH   SYMBOL    XDATA    ---       fifo
      000112BEH   SYMBOL    XDATA    DWORD     offset
      00FFD546H   LINE      CODE     ---       #67
      00FFD55AH   LINE      CODE     ---       #69
      00FFD582H   LINE      CODE     ---       #71
      00FFD584H   LINE      CODE     ---       #73
      00FFD5B4H   LINE      CODE     ---       #74
      00FFD5DCH   LINE      CODE     ---       #75
      ---         BLOCKEND  ---      ---       LVL=0

      00FFBAE8H   BLOCK     CODE     ---       LVL=0
      00011355H   SYMBOL    XDATA    ---       fifo
      00FFBAF2H   BLOCK     CODE     NEAR LAB  LVL=1
      00011359H   SYMBOL    XDATA    INT       return_state
      ---         BLOCKEND  ---      ---       LVL=1
      00FFBAE8H   LINE      CODE     ---       #84
      00FFBAF2H   LINE      CODE     ---       #85
      00FFBAF2H   LINE      CODE     ---       #87
      00FFBAFAH   LINE      CODE     ---       #88
      00FFBAFAH   LINE      CODE     ---       #90
      00FFBB09H   LINE      CODE     ---       #92
      00FFBB13H   LINE      CODE     ---       #93
      00FFBB16H   LINE      CODE     ---       #94
      00FFBB16H   LINE      CODE     ---       #95
      00FFBB28H   LINE      CODE     ---       #96
      00FFBB3CH   LINE      CODE     ---       #97
      00FFBB50H   LINE      CODE     ---       #98
      00FFBB74H   LINE      CODE     ---       #99
      00FFBB91H   LINE      CODE     ---       #101
      00FFBBBBH   LINE      CODE     ---       #102
      00FFBBE7H   LINE      CODE     ---       #103
      00FFBC13H   LINE      CODE     ---       #104
      00FFBC13H   LINE      CODE     ---       #105
      00FFBC21H   LINE      CODE     ---       #106
      00FFBC21H   LINE      CODE     ---       #107
      00FFBC27H   LINE      CODE     ---       #108
      ---         BLOCKEND  ---      ---       LVL=0

      00FFE766H   BLOCK     CODE     ---       LVL=0
      00011420H   SYMBOL    XDATA    ---       fifo
      00FFE766H   LINE      CODE     ---       #117
      00FFE770H   LINE      CODE     ---       #120
L251 LINKER/LOCATER V4.66.93.0                                                        05/06/2025  18:54:37  PAGE 44


      00FFE796H   LINE      CODE     ---       #121
      ---         BLOCKEND  ---      ---       LVL=0

      00FF6ABBH   BLOCK     CODE     ---       LVL=0
      00010CBDH   SYMBOL    XDATA    ---       fifo
      00010CC1H   SYMBOL    XDATA    ---       dat
      00010CC5H   SYMBOL    XDATA    DWORD     length
      00FF6ACFH   BLOCK     CODE     NEAR LAB  LVL=1
      00010CC9H   SYMBOL    XDATA    INT       return_state
      00010CCBH   SYMBOL    XDATA    DWORD     temp_length
      ---         BLOCKEND  ---      ---       LVL=1
      00FF6ABBH   LINE      CODE     ---       #175
      00FF6ACFH   LINE      CODE     ---       #176
      00FF6ACFH   LINE      CODE     ---       #178
      00FF6AD7H   LINE      CODE     ---       #179
      00FF6AE3H   LINE      CODE     ---       #181
      00FF6AE3H   LINE      CODE     ---       #183
      00FF6AF1H   LINE      CODE     ---       #185
      00FF6AFBH   LINE      CODE     ---       #186
      00FF6AFEH   LINE      CODE     ---       #187
      00FF6AFEH   LINE      CODE     ---       #188
      00FF6B13H   LINE      CODE     ---       #190
      00FF6B1DH   LINE      CODE     ---       #191
      00FF6B20H   LINE      CODE     ---       #192
      00FF6B20H   LINE      CODE     ---       #193
      00FF6B32H   LINE      CODE     ---       #195
      00FF6B55H   LINE      CODE     ---       #197
      00FF6B85H   LINE      CODE     ---       #199
      00FF6BA0H   LINE      CODE     ---       #201
      00FF6BC3H   LINE      CODE     ---       #203
      00FF6BC3H   LINE      CODE     ---       #205
      00FF6C04H   LINE      CODE     ---       #208
      00FF6C1BH   LINE      CODE     ---       #209
      00FF6C7AH   LINE      CODE     ---       #213
      00FF6C9DH   LINE      CODE     ---       #214
      00FF6CA0H   LINE      CODE     ---       #215
      00FF6CA0H   LINE      CODE     ---       #217
      00FF6CE5H   LINE      CODE     ---       #220
      00FF6CFCH   LINE      CODE     ---       #221
      00FF6D5DH   LINE      CODE     ---       #225
      00FF6D80H   LINE      CODE     ---       #226
      00FF6D83H   LINE      CODE     ---       #227
      00FF6D83H   LINE      CODE     ---       #229
      00FF6DCCH   LINE      CODE     ---       #232
      00FF6DE3H   LINE      CODE     ---       #233
      00FF6E4AH   LINE      CODE     ---       #237
      00FF6E6DH   LINE      CODE     ---       #238
      00FF6E6DH   LINE      CODE     ---       #239
      00FF6E6DH   LINE      CODE     ---       #240
      00FF6E70H   LINE      CODE     ---       #243
      00FF6E90H   LINE      CODE     ---       #245
      00FF6E90H   LINE      CODE     ---       #247
      00FF6ED1H   LINE      CODE     ---       #250
      00FF6EE8H   LINE      CODE     ---       #251
      00FF6EEBH   LINE      CODE     ---       #252
      00FF6EEBH   LINE      CODE     ---       #254
      00FF6F30H   LINE      CODE     ---       #257
      00FF6F47H   LINE      CODE     ---       #258
      00FF6F49H   LINE      CODE     ---       #259
      00FF6F49H   LINE      CODE     ---       #261
      00FF6F92H   LINE      CODE     ---       #264
      00FF6FA9H   LINE      CODE     ---       #265
      00FF6FA9H   LINE      CODE     ---       #266
      00FF6FA9H   LINE      CODE     ---       #267
      00FF6FA9H   LINE      CODE     ---       #269
L251 LINKER/LOCATER V4.66.93.0                                                        05/06/2025  18:54:37  PAGE 45


      00FF6FD1H   LINE      CODE     ---       #270
      00FF6FD3H   LINE      CODE     ---       #273
      00FF6FDDH   LINE      CODE     ---       #274
      00FF6FDDH   LINE      CODE     ---       #275
      00FF6FEFH   LINE      CODE     ---       #276
      00FF6FEFH   LINE      CODE     ---       #278
      00FF6FF5H   LINE      CODE     ---       #279
      ---         BLOCKEND  ---      ---       LVL=0

      00FF6FF6H   BLOCK     CODE     ---       LVL=0
      00010BCEH   SYMBOL    XDATA    ---       fifo
      00010BD2H   SYMBOL    XDATA    ---       dat
      00010BD6H   SYMBOL    XDATA    ---       length
      00010BDAH   SYMBOL    XDATA    INT       flag
      00FF700AH   BLOCK     CODE     NEAR LAB  LVL=1
      00010BDCH   SYMBOL    XDATA    INT       return_state
      00010BDEH   SYMBOL    XDATA    DWORD     temp_length
      00010BE2H   SYMBOL    XDATA    DWORD     fifo_data_length
      ---         BLOCKEND  ---      ---       LVL=1
      00FF6FF6H   LINE      CODE     ---       #352
      00FF700AH   LINE      CODE     ---       #353
      00FF700AH   LINE      CODE     ---       #356
      00FF7012H   LINE      CODE     ---       #357
      00FF701EH   LINE      CODE     ---       #358
      00FF702AH   LINE      CODE     ---       #360
      00FF702AH   LINE      CODE     ---       #362
      00FF7038H   LINE      CODE     ---       #364
      00FF7042H   LINE      CODE     ---       #365
      00FF7045H   LINE      CODE     ---       #368
      00FF705AH   LINE      CODE     ---       #370
      00FF7075H   LINE      CODE     ---       #371
      00FF707FH   LINE      CODE     ---       #372
      00FF7082H   LINE      CODE     ---       #373
      00FF7082H   LINE      CODE     ---       #375
      00FF7099H   LINE      CODE     ---       #376
      00FF70B8H   LINE      CODE     ---       #378
      00FF70D3H   LINE      CODE     ---       #379
      00FF70DDH   LINE      CODE     ---       #380
      00FF70EBH   LINE      CODE     ---       #382
      00FF70FDH   LINE      CODE     ---       #383
      00FF7100H   LINE      CODE     ---       #384
      00FF7100H   LINE      CODE     ---       #387
      00FF7112H   LINE      CODE     ---       #388
      00FF7142H   LINE      CODE     ---       #389
      00FF7164H   LINE      CODE     ---       #391
      00FF7184H   LINE      CODE     ---       #393
      00FF71D1H   LINE      CODE     ---       #394
      00FF7222H   LINE      CODE     ---       #395
      00FF7274H   LINE      CODE     ---       #396
      00FF7274H   LINE      CODE     ---       #397
      00FF7277H   LINE      CODE     ---       #400
      00FF729AH   LINE      CODE     ---       #402
      00FF729AH   LINE      CODE     ---       #404
      00FF72DDH   LINE      CODE     ---       #405
      00FF732BH   LINE      CODE     ---       #406
      00FF732EH   LINE      CODE     ---       #407
      00FF732EH   LINE      CODE     ---       #409
      00FF7375H   LINE      CODE     ---       #410
      00FF73C5H   LINE      CODE     ---       #411
      00FF73C8H   LINE      CODE     ---       #412
      00FF73C8H   LINE      CODE     ---       #414
      00FF7413H   LINE      CODE     ---       #415
      00FF7467H   LINE      CODE     ---       #416
      00FF7467H   LINE      CODE     ---       #417
      00FF7467H   LINE      CODE     ---       #418
L251 LINKER/LOCATER V4.66.93.0                                                        05/06/2025  18:54:37  PAGE 46


      00FF7467H   LINE      CODE     ---       #419
      00FF7479H   LINE      CODE     ---       #420
      00FF7479H   LINE      CODE     ---       #422
      00FF7486H   LINE      CODE     ---       #424
      00FF7496H   LINE      CODE     ---       #426
      00FF74A0H   LINE      CODE     ---       #427
      00FF74A2H   LINE      CODE     ---       #428
      00FF74A2H   LINE      CODE     ---       #429
      00FF74B4H   LINE      CODE     ---       #430
      00FF74D2H   LINE      CODE     ---       #431
      00FF7501H   LINE      CODE     ---       #432
      00FF7513H   LINE      CODE     ---       #433
      00FF7513H   LINE      CODE     ---       #436
      00FF7519H   LINE      CODE     ---       #437
      ---         BLOCKEND  ---      ---       LVL=0

      00FFD0CBH   BLOCK     CODE     ---       LVL=0
      00010D13H   SYMBOL    XDATA    ---       fifo
      00010D17H   SYMBOL    XDATA    INT       type
      00010D19H   SYMBOL    XDATA    ---       buffer_addr
      00010D1DH   SYMBOL    XDATA    DWORD     siz
      00FFD0CBH   LINE      CODE     ---       #545
      00FFD0DBH   LINE      CODE     ---       #548
      00FFD0DBH   LINE      CODE     ---       #550
      00FFD0F7H   LINE      CODE     ---       #551
      00FFD105H   LINE      CODE     ---       #552
      00FFD119H   LINE      CODE     ---       #553
      00FFD12DH   LINE      CODE     ---       #554
      00FFD141H   LINE      CODE     ---       #555
      00FFD15DH   LINE      CODE     ---       #556
      00FFD179H   LINE      CODE     ---       #557
      00FFD179H   LINE      CODE     ---       #558
      00FFD17BH   LINE      CODE     ---       #559
      ---         BLOCKEND  ---      ---       LVL=0

      ---         MODULE    ---      ---       zf_common_font
      00FF4B78H   PUBLIC    CODE     ---       tft_ascii
      00FF5168H   PUBLIC    CODE     ---       ascii_font_6x8
      000000D0H   SFRSYM    DATA     BYTE      PSW
      0000009DH   SFRSYM    DATA     BYTE      IRCBAND
      00000097H   SFRSYM    DATA     BYTE      AUXR2
      000000EFH   SFRSYM    DATA     BYTE      AUXINTIF
      000000FDH   SFRSYM    DATA     BYTE      S4CON
      000000ACH   SFRSYM    DATA     BYTE      S3CON
      0000009AH   SFRSYM    DATA     BYTE      S2CON
      000000B7H   SFRSYM    DATA     BYTE      IPH
      000000CDH   SFRSYM    DATA     BYTE      SPSTAT
      000000DDH   SFRSYM    DATA     BYTE      T4T3M
      000000C1H   SFRSYM    DATA     BYTE      WDT_CONTR
      000000DFH   SFRSYM    DATA     BYTE      IP3
      000000F4H   SFRSYM    DATA     BYTE      USBCON
      000000B5H   SFRSYM    DATA     BYTE      IP2
      000000FFH   SFRSYM    DATA     BYTE      RSTCFG
      000000C7H   SFRSYM    DATA     BYTE      IAP_CONTR
      0000008EH   SFRSYM    DATA     BYTE      AUXR
      000000AFH   SFRSYM    DATA     BYTE      IE2
      00000088H   SFRSYM    DATA     BYTE      TCON
      00000089H   SFRSYM    DATA     BYTE      TMOD
      00000098H   SFRSYM    DATA     BYTE      SCON
      00000087H   SFRSYM    DATA     BYTE      PCON
      000000BCH   SFRSYM    DATA     BYTE      ADC_CONTR
      000000D1H   SFRSYM    DATA     BYTE      PSW1
      000000E7H   SFRSYM    DATA     BYTE      CMPCR2
      000000E6H   SFRSYM    DATA     BYTE      CMPCR1
      000000DEH   SFRSYM    DATA     BYTE      ADCCFG
L251 LINKER/LOCATER V4.66.93.0                                                        05/06/2025  18:54:37  PAGE 47


      000000B8H   SFRSYM    DATA     BYTE      IP
      0000008FH   SFRSYM    DATA     BYTE      INTCLKO
      000000EEH   SFRSYM    DATA     BYTE      IP3H
      000000B6H   SFRSYM    DATA     BYTE      IP2H
      000000BFH   SFRSYM    DATA     BYTE      P_SW4
      000000A8H   SFRSYM    DATA     BYTE      IE
      000000BBH   SFRSYM    DATA     BYTE      P_SW3
      000000BAH   SFRSYM    DATA     BYTE      P_SW2
      000000A2H   SFRSYM    DATA     BYTE      P_SW1
      000000CEH   SFRSYM    DATA     BYTE      SPCTL
      000000F8H   SFRSYM    DATA     BYTE      P7
      000000E8H   SFRSYM    DATA     BYTE      P6
      000000C8H   SFRSYM    DATA     BYTE      P5
      000000C0H   SFRSYM    DATA     BYTE      P4
      000000ABH   SFRSYM    DATA     BYTE      WKTCH
      000000B0H   SFRSYM    DATA     BYTE      P3
      000000A0H   SFRSYM    DATA     BYTE      P2
      00000090H   SFRSYM    DATA     BYTE      P1
      00000080H   SFRSYM    DATA     BYTE      P0

      ---         MODULE    ---      ---       zf_common_function
      00FF885BH   PUBLIC    CODE     ---       func_str_to_double
      00FF3951H   PUBLIC    CODE     ---       zf_sprintf
      00FFA40EH   PUBLIC    CODE     ---       func_str_to_hex
      00FFC470H   PUBLIC    CODE     ---       func_str_to_int
      00010926H   PUBLIC    XDATA    BYTE      ?func_double_to_str?BYTE
      000106C1H   PUBLIC    XDATA    BYTE      ?zf_sprintf?BYTE
      000000D0H   SFRSYM    DATA     BYTE      PSW
      0000009DH   SFRSYM    DATA     BYTE      IRCBAND
      00000097H   SFRSYM    DATA     BYTE      AUXR2
      000000EFH   SFRSYM    DATA     BYTE      AUXINTIF
      000000FDH   SFRSYM    DATA     BYTE      S4CON
      000000ACH   SFRSYM    DATA     BYTE      S3CON
      0000009AH   SFRSYM    DATA     BYTE      S2CON
      000000B7H   SFRSYM    DATA     BYTE      IPH
      000000CDH   SFRSYM    DATA     BYTE      SPSTAT
      000000DDH   SFRSYM    DATA     BYTE      T4T3M
      000000C1H   SFRSYM    DATA     BYTE      WDT_CONTR
      000000DFH   SFRSYM    DATA     BYTE      IP3
      000000F4H   SFRSYM    DATA     BYTE      USBCON
      000000B5H   SFRSYM    DATA     BYTE      IP2
      000000FFH   SFRSYM    DATA     BYTE      RSTCFG
      000000C7H   SFRSYM    DATA     BYTE      IAP_CONTR
      0000008EH   SFRSYM    DATA     BYTE      AUXR
      000000AFH   SFRSYM    DATA     BYTE      IE2
      00000088H   SFRSYM    DATA     BYTE      TCON
      00000089H   SFRSYM    DATA     BYTE      TMOD
      00000098H   SFRSYM    DATA     BYTE      SCON
      00000087H   SFRSYM    DATA     BYTE      PCON
      000000BCH   SFRSYM    DATA     BYTE      ADC_CONTR
      000000D1H   SFRSYM    DATA     BYTE      PSW1
      000000E7H   SFRSYM    DATA     BYTE      CMPCR2
      000000E6H   SFRSYM    DATA     BYTE      CMPCR1
      000000DEH   SFRSYM    DATA     BYTE      ADCCFG
      000000B8H   SFRSYM    DATA     BYTE      IP
      0000008FH   SFRSYM    DATA     BYTE      INTCLKO
      000000EEH   SFRSYM    DATA     BYTE      IP3H
      000000B6H   SFRSYM    DATA     BYTE      IP2H
      000000BFH   SFRSYM    DATA     BYTE      P_SW4
      000000A8H   SFRSYM    DATA     BYTE      IE
      000000BBH   SFRSYM    DATA     BYTE      P_SW3
      000000BAH   SFRSYM    DATA     BYTE      P_SW2
      000000A2H   SFRSYM    DATA     BYTE      P_SW1
      000000CEH   SFRSYM    DATA     BYTE      SPCTL
      000000F8H   SFRSYM    DATA     BYTE      P7
L251 LINKER/LOCATER V4.66.93.0                                                        05/06/2025  18:54:37  PAGE 48


      000000E8H   SFRSYM    DATA     BYTE      P6
      000000C8H   SFRSYM    DATA     BYTE      P5
      000000C0H   SFRSYM    DATA     BYTE      P4
      000000ABH   SFRSYM    DATA     BYTE      WKTCH
      000000B0H   SFRSYM    DATA     BYTE      P3
      000000A0H   SFRSYM    DATA     BYTE      P2
      00000090H   SFRSYM    DATA     BYTE      P1
      00000080H   SFRSYM    DATA     BYTE      P0
      00FFB280H   SYMBOL    CODE     ---       number_conversion_ascii
      00FFC993H   SYMBOL    CODE     ---       printf_reverse_order
      00FFF002H   SYMBOL    HCONST   ---       ?tpl?0001
      000112C2H   SYMBOL    XDATA    DWORD     num1
      000112C6H   SYMBOL    XDATA    DWORD     num2
      00011424H   SYMBOL    XDATA    LONG      t

      00FFC470H   BLOCK     CODE     ---       LVL=0
      0001127EH   SYMBOL    XDATA    ---       str
      00FFC47AH   BLOCK     CODE     NEAR LAB  LVL=1
      00011282H   SYMBOL    XDATA    BYTE      sign
      00011283H   SYMBOL    XDATA    LONG      temp
      ---         BLOCKEND  ---      ---       LVL=1
      00FFC470H   LINE      CODE     ---       #84
      00FFC47AH   LINE      CODE     ---       #85
      00FFC47AH   LINE      CODE     ---       #86
      00FFC47FH   LINE      CODE     ---       #87
      00FFC48BH   LINE      CODE     ---       #89
      00FFC48BH   LINE      CODE     ---       #91
      00FFC49CH   LINE      CODE     ---       #93
      00FFC49CH   LINE      CODE     ---       #94
      00FFC49CH   LINE      CODE     ---       #96
      00FFC4ACH   LINE      CODE     ---       #98
      00FFC4B2H   LINE      CODE     ---       #99
      00FFC4C5H   LINE      CODE     ---       #100
      00FFC4C7H   LINE      CODE     ---       #101
      00FFC4D7H   LINE      CODE     ---       #103
      00FFC4EAH   LINE      CODE     ---       #104
      00FFC4EAH   LINE      CODE     ---       #106
      00FFC4ECH   LINE      CODE     ---       #108
      00FFC51EH   LINE      CODE     ---       #109
      00FFC531H   LINE      CODE     ---       #110
      00FFC555H   LINE      CODE     ---       #112
      00FFC55BH   LINE      CODE     ---       #114
      00FFC579H   LINE      CODE     ---       #115
      00FFC579H   LINE      CODE     ---       #117
      00FFC583H   LINE      CODE     ---       #118
      ---         BLOCKEND  ---      ---       LVL=0
      00010B46H   SYMBOL    XDATA    ---       str
      00010B4AH   SYMBOL    XDATA    LONG      number
      00010B4EH   SYMBOL    XDATA    ---       data_temp
      00010B5EH   SYMBOL    XDATA    BYTE      temp_bit
      00010B5FH   SYMBOL    XDATA    LONG      number_temp
      000112CAH   SYMBOL    XDATA    ---       str
      000112CEH   SYMBOL    XDATA    DWORD     temp
      00010B9CH   SYMBOL    XDATA    ---       str
      00010BA0H   SYMBOL    XDATA    DWORD     number
      00010BA4H   SYMBOL    XDATA    ---       data_temp
      00010BB4H   SYMBOL    XDATA    BYTE      temp_bit
      00010CE1H   SYMBOL    XDATA    ---       str
      00010CE5H   SYMBOL    XDATA    BYTE      sign
      00010CE6H   SYMBOL    XDATA    FLOAT     temp
      00010CEAH   SYMBOL    XDATA    FLOAT     temp_point
      00010CEEH   SYMBOL    XDATA    FLOAT     point_bit
      00010A71H   SYMBOL    XDATA    ---       str
      00010A75H   SYMBOL    XDATA    FLOAT     number
      00010A79H   SYMBOL    XDATA    BYTE      point_bit
L251 LINKER/LOCATER V4.66.93.0                                                        05/06/2025  18:54:37  PAGE 49


      00010A7AH   SYMBOL    XDATA    INT       data_int
      00010A7CH   SYMBOL    XDATA    INT       data_float
      00010A7EH   SYMBOL    XDATA    ---       data_temp
      00010A8EH   SYMBOL    XDATA    ---       data_temp_point
      00010A9AH   SYMBOL    XDATA    BYTE      temp_bit

      00FF885BH   BLOCK     CODE     ---       LVL=0
      00010B63H   SYMBOL    XDATA    ---       str
      00FF8865H   BLOCK     CODE     NEAR LAB  LVL=1
      00010B67H   SYMBOL    XDATA    BYTE      sign
      00010B68H   SYMBOL    XDATA    DOUBLE    temp
      00010B70H   SYMBOL    XDATA    DOUBLE    temp_point
      00010B78H   SYMBOL    XDATA    DOUBLE    point_bit
      ---         BLOCKEND  ---      ---       LVL=1
      00FF885BH   LINE      CODE     ---       #391
      00FF8865H   LINE      CODE     ---       #392
      00FF8865H   LINE      CODE     ---       #393
      00FF886AH   LINE      CODE     ---       #394
      00FF8880H   LINE      CODE     ---       #395
      00FF8896H   LINE      CODE     ---       #396
      00FF88B0H   LINE      CODE     ---       #400
      00FF88B0H   LINE      CODE     ---       #402
      00FF88C1H   LINE      CODE     ---       #404
      00FF88C1H   LINE      CODE     ---       #405
      00FF88C1H   LINE      CODE     ---       #407
      00FF88D1H   LINE      CODE     ---       #409
      00FF88D7H   LINE      CODE     ---       #410
      00FF88EAH   LINE      CODE     ---       #411
      00FF88ECH   LINE      CODE     ---       #412
      00FF88FCH   LINE      CODE     ---       #414
      00FF890FH   LINE      CODE     ---       #415
      00FF890FH   LINE      CODE     ---       #418
      00FF8911H   LINE      CODE     ---       #420
      00FF895FH   LINE      CODE     ---       #421
      00FF8972H   LINE      CODE     ---       #422
      00FF8999H   LINE      CODE     ---       #423
      00FF89AEH   LINE      CODE     ---       #425
      00FF89C1H   LINE      CODE     ---       #426
      00FF89C4H   LINE      CODE     ---       #428
      00FF8A12H   LINE      CODE     ---       #429
      00FF8A3EH   LINE      CODE     ---       #430
      00FF8A51H   LINE      CODE     ---       #431
      00FF8A99H   LINE      CODE     ---       #432
      00FF8ACFH   LINE      CODE     ---       #433
      00FF8ACFH   LINE      CODE     ---       #434
      00FF8B05H   LINE      CODE     ---       #436
      00FF8B0BH   LINE      CODE     ---       #438
      00FF8B32H   LINE      CODE     ---       #439
      00FF8B32H   LINE      CODE     ---       #441
      00FF8B44H   LINE      CODE     ---       #443
      ---         BLOCKEND  ---      ---       LVL=0
      00010926H   SYMBOL    XDATA    ---       str
      0001092AH   SYMBOL    XDATA    DOUBLE    number
      00010932H   SYMBOL    XDATA    BYTE      point_bit
      00010933H   SYMBOL    XDATA    INT       data_int
      00010935H   SYMBOL    XDATA    INT       data_float
      00010937H   SYMBOL    XDATA    ---       data_temp
      0001094FH   SYMBOL    XDATA    ---       data_temp_point
      00010961H   SYMBOL    XDATA    BYTE      temp_bit

      00FFA40EH   BLOCK     CODE     ---       LVL=0
      00010D21H   SYMBOL    XDATA    ---       str
      00FFA418H   BLOCK     CODE     NEAR LAB  LVL=1
      00010D25H   SYMBOL    XDATA    DWORD     str_len
      00010D29H   SYMBOL    XDATA    DWORD     result_data
L251 LINKER/LOCATER V4.66.93.0                                                        05/06/2025  18:54:37  PAGE 50


      00010D2DH   SYMBOL    XDATA    BYTE      temp
      00010D2EH   SYMBOL    XDATA    BYTE      flag
      ---         BLOCKEND  ---      ---       LVL=1
      00FFA40EH   LINE      CODE     ---       #538
      00FFA418H   LINE      CODE     ---       #539
      00FFA418H   LINE      CODE     ---       #540
      00FFA431H   LINE      CODE     ---       #541
      00FFA43DH   LINE      CODE     ---       #542
      00FFA442H   LINE      CODE     ---       #543
      00FFA447H   LINE      CODE     ---       #547
      00FFA447H   LINE      CODE     ---       #549
      00FFA458H   LINE      CODE     ---       #551
      00FFA458H   LINE      CODE     ---       #552
      00FFA458H   LINE      CODE     ---       #554
      00FFA461H   LINE      CODE     ---       #556
      00FFA485H   LINE      CODE     ---       #558
      00FFA49CH   LINE      CODE     ---       #559
      00FFA49EH   LINE      CODE     ---       #560
      00FFA4C2H   LINE      CODE     ---       #562
      00FFA4D9H   LINE      CODE     ---       #563
      00FFA4DBH   LINE      CODE     ---       #564
      00FFA505H   LINE      CODE     ---       #566
      00FFA51CH   LINE      CODE     ---       #567
      00FFA51CH   LINE      CODE     ---       #570
      00FFA51CH   LINE      CODE     ---       #571
      00FFA51CH   LINE      CODE     ---       #572
      00FFA545H   LINE      CODE     ---       #573
      00FFA547H   LINE      CODE     ---       #577
      00FFA568H   LINE      CODE     ---       #579
      00FFA57BH   LINE      CODE     ---       #580
      00FFA581H   LINE      CODE     ---       #581
      00FFA581H   LINE      CODE     ---       #583
      00FFA594H   LINE      CODE     ---       #584
      00FFA5B0H   LINE      CODE     ---       #586
      00FFA5BAH   LINE      CODE     ---       #587
      ---         BLOCKEND  ---      ---       LVL=0
      00010AC3H   SYMBOL    XDATA    ---       str
      00010AC7H   SYMBOL    XDATA    DWORD     number
      00010ACBH   SYMBOL    XDATA    ---       hex_index
      00010ADBH   SYMBOL    XDATA    ---       data_temp
      00010AE7H   SYMBOL    XDATA    BYTE      temp_bit

      00FFB280H   BLOCK     CODE     ---       LVL=0
      00010C46H   SYMBOL    XDATA    DWORD     dat
      00010C4AH   SYMBOL    XDATA    ---       p
      00010C4EH   SYMBOL    XDATA    BYTE      neg_type
      00010C4FH   SYMBOL    XDATA    BYTE      radix
      00FFB298H   BLOCK     CODE     NEAR LAB  LVL=1
      00010C50H   SYMBOL    XDATA    LONG      neg_dat
      00010C54H   SYMBOL    XDATA    DWORD     pos_dat
      00010C58H   SYMBOL    XDATA    BYTE      temp_data
      00010C59H   SYMBOL    XDATA    BYTE      valid_num
      ---         BLOCKEND  ---      ---       LVL=1
      00FFB280H   LINE      CODE     ---       #647
      00FFB298H   LINE      CODE     ---       #648
      00FFB298H   LINE      CODE     ---       #651
      00FFB29DH   LINE      CODE     ---       #652
      00FFB2A2H   LINE      CODE     ---       #654
      00FFB2ABH   LINE      CODE     ---       #656
      00FFB2BFH   LINE      CODE     ---       #657
      00FFB2CFH   LINE      CODE     ---       #659
      00FFB2EDH   LINE      CODE     ---       #660
      00FFB2EDH   LINE      CODE     ---       #661
      00FFB2EDH   LINE      CODE     ---       #663
      00FFB313H   LINE      CODE     ---       #664
L251 LINKER/LOCATER V4.66.93.0                                                        05/06/2025  18:54:37  PAGE 51


      00FFB32FH   LINE      CODE     ---       #665
      00FFB335H   LINE      CODE     ---       #667
      00FFB343H   LINE      CODE     ---       #669
      00FFB343H   LINE      CODE     ---       #670
      00FFB343H   LINE      CODE     ---       #671
      00FFB356H   LINE      CODE     ---       #672
      00FFB358H   LINE      CODE     ---       #673
      00FFB35BH   LINE      CODE     ---       #676
      00FFB36FH   LINE      CODE     ---       #677
      00FFB36FH   LINE      CODE     ---       #679
      00FFB38AH   LINE      CODE     ---       #680
      00FFB393H   LINE      CODE     ---       #682
      00FFB39AH   LINE      CODE     ---       #683
      00FFB39CH   LINE      CODE     ---       #686
      00FFB3A3H   LINE      CODE     ---       #687
      00FFB3A3H   LINE      CODE     ---       #689
      00FFB3B4H   LINE      CODE     ---       #691
      00FFB3D0H   LINE      CODE     ---       #692
      00FFB3D6H   LINE      CODE     ---       #694
      00FFB3E4H   LINE      CODE     ---       #696
      00FFB3E4H   LINE      CODE     ---       #697
      00FFB3E4H   LINE      CODE     ---       #698
      00FFB3F7H   LINE      CODE     ---       #699
      00FFB3FAH   LINE      CODE     ---       #700
      00FFB3FAH   LINE      CODE     ---       #701
      00FFB3FEH   LINE      CODE     ---       #702
      ---         BLOCKEND  ---      ---       LVL=0

      00FFC993H   BLOCK     CODE     ---       LVL=0
      00010D83H   SYMBOL    XDATA    ---       d_buff
      00010D87H   SYMBOL    XDATA    DWORD     len
      00FFC9A7H   BLOCK     CODE     NEAR LAB  LVL=1
      00010D8BH   SYMBOL    XDATA    DWORD     i
      00010D8FH   SYMBOL    XDATA    CHAR      temp_data
      ---         BLOCKEND  ---      ---       LVL=1
      00FFC993H   LINE      CODE     ---       #712
      00FFC9A7H   LINE      CODE     ---       #713
      00FFC9A7H   LINE      CODE     ---       #716
      00FFC9B6H   LINE      CODE     ---       #718
      00FFC9E3H   LINE      CODE     ---       #719
      00FFCA27H   LINE      CODE     ---       #720
      00FFCA46H   LINE      CODE     ---       #721
      00FFCA7FH   LINE      CODE     ---       #722
      ---         BLOCKEND  ---      ---       LVL=0

      00FF3951H   BLOCK     CODE     ---       LVL=0
      000106C1H   SYMBOL    XDATA    ---       buff
      000106C5H   SYMBOL    XDATA    ---       format
      00FF3965H   BLOCK     CODE     NEAR LAB  LVL=1
      000106C9H   SYMBOL    XDATA    DWORD     buff_len
      000106CDH   SYMBOL    XDATA    ---       arg
      00FF3986H   BLOCK     CODE     NEAR LAB  LVL=2
      000106D1H   SYMBOL    XDATA    CHAR      ret
      00FF3ACAH   BLOCK     CODE     NEAR LAB  LVL=3
      000106D2H   SYMBOL    XDATA    CHAR      ch
      ---         BLOCKEND  ---      ---       LVL=3
      00FF3B2CH   BLOCK     CODE     NEAR LAB  LVL=3
      000106D2H   SYMBOL    XDATA    ---       vstr
      000106F3H   SYMBOL    XDATA    LONG      ival
      000106F7H   SYMBOL    XDATA    BYTE      vlen
      ---         BLOCKEND  ---      ---       LVL=3
      00FF3C10H   BLOCK     CODE     NEAR LAB  LVL=3
      000106D2H   SYMBOL    XDATA    ---       vstr
      000106F3H   SYMBOL    XDATA    DOUBLE    ival
      000106FBH   SYMBOL    XDATA    BYTE      vlen
L251 LINKER/LOCATER V4.66.93.0                                                        05/06/2025  18:54:37  PAGE 52


      ---         BLOCKEND  ---      ---       LVL=3
      00FF3E8DH   BLOCK     CODE     NEAR LAB  LVL=3
      000106D2H   SYMBOL    XDATA    ---       vstr
      000106F3H   SYMBOL    XDATA    DWORD     ival
      000106F7H   SYMBOL    XDATA    BYTE      vlen
      ---         BLOCKEND  ---      ---       LVL=3
      00FF3F44H   BLOCK     CODE     NEAR LAB  LVL=3
      000106D2H   SYMBOL    XDATA    ---       vstr
      000106F3H   SYMBOL    XDATA    DWORD     ival
      000106F7H   SYMBOL    XDATA    BYTE      vlen
      ---         BLOCKEND  ---      ---       LVL=3
      00FF3FFBH   BLOCK     CODE     NEAR LAB  LVL=3
      000106D2H   SYMBOL    XDATA    ---       vstr
      000106F3H   SYMBOL    XDATA    DWORD     ival
      000106F7H   SYMBOL    XDATA    BYTE      vlen
      ---         BLOCKEND  ---      ---       LVL=3
      00FF40B2H   BLOCK     CODE     NEAR LAB  LVL=3
      000106D2H   SYMBOL    XDATA    ---       pc
      ---         BLOCKEND  ---      ---       LVL=3
      00FF4147H   BLOCK     CODE     NEAR LAB  LVL=3
      000106D2H   SYMBOL    XDATA    ---       vstr
      000106F3H   SYMBOL    XDATA    DWORD     ival
      ---         BLOCKEND  ---      ---       LVL=3
      ---         BLOCKEND  ---      ---       LVL=2
      ---         BLOCKEND  ---      ---       LVL=1
      00FF3951H   LINE      CODE     ---       #733
      00FF3965H   LINE      CODE     ---       #734
      00FF3965H   LINE      CODE     ---       #735
      00FF3971H   LINE      CODE     ---       #737
      00FF3983H   LINE      CODE     ---       #739
      00FF3986H   LINE      CODE     ---       #740
      00FF3986H   LINE      CODE     ---       #741
      00FF3997H   LINE      CODE     ---       #742
      00FF39A3H   LINE      CODE     ---       #744
      00FF3AC7H   LINE      CODE     ---       #746
      00FF3AC7H   LINE      CODE     ---       #749
      00FF3ACAH   LINE      CODE     ---       #751
      00FF3ACAH   LINE      CODE     ---       #752
      00FF3ACAH   LINE      CODE     ---       #753
      00FF3AF2H   LINE      CODE     ---       #754
      00FF3B03H   LINE      CODE     ---       #755
      00FF3B16H   LINE      CODE     ---       #756
      00FF3B29H   LINE      CODE     ---       #758
      00FF3B2CH   LINE      CODE     ---       #760
      00FF3B2CH   LINE      CODE     ---       #761
      00FF3B2CH   LINE      CODE     ---       #762
      00FF3B2CH   LINE      CODE     ---       #764
      00FF3B5AH   LINE      CODE     ---       #765
      00FF3B7BH   LINE      CODE     ---       #767
      00FF3B8BH   LINE      CODE     ---       #769
      00FF3BA1H   LINE      CODE     ---       #770
      00FF3BA7H   LINE      CODE     ---       #771
      00FF3BA7H   LINE      CODE     ---       #772
      00FF3BBAH   LINE      CODE     ---       #773
      00FF3BD9H   LINE      CODE     ---       #774
      00FF3BF2H   LINE      CODE     ---       #775
      00FF3C0DH   LINE      CODE     ---       #777
      00FF3C10H   LINE      CODE     ---       #779
      00FF3C10H   LINE      CODE     ---       #780
      00FF3C10H   LINE      CODE     ---       #781
      00FF3C10H   LINE      CODE     ---       #783
      00FF3C50H   LINE      CODE     ---       #784
      00FF3C7CH   LINE      CODE     ---       #786
      00FF3C97H   LINE      CODE     ---       #788
      00FF3CADH   LINE      CODE     ---       #789
L251 LINKER/LOCATER V4.66.93.0                                                        05/06/2025  18:54:37  PAGE 53


      00FF3CB3H   LINE      CODE     ---       #790
      00FF3CB3H   LINE      CODE     ---       #791
      00FF3CC6H   LINE      CODE     ---       #792
      00FF3CE5H   LINE      CODE     ---       #793
      00FF3CFEH   LINE      CODE     ---       #794
      00FF3D19H   LINE      CODE     ---       #796
      00FF3D6BH   LINE      CODE     ---       #797
      00FF3D89H   LINE      CODE     ---       #799
      00FF3DB5H   LINE      CODE     ---       #800
      00FF3DB7H   LINE      CODE     ---       #803
      00FF3DDBH   LINE      CODE     ---       #804
      00FF3DE1H   LINE      CODE     ---       #805
      00FF3DE1H   LINE      CODE     ---       #807
      00FF3DE3H   LINE      CODE     ---       #809
      00FF3DF9H   LINE      CODE     ---       #810
      00FF3DFFH   LINE      CODE     ---       #811
      00FF3E08H   LINE      CODE     ---       #813
      00FF3E1EH   LINE      CODE     ---       #814
      00FF3E24H   LINE      CODE     ---       #816
      00FF3E37H   LINE      CODE     ---       #817
      00FF3E56H   LINE      CODE     ---       #818
      00FF3E6FH   LINE      CODE     ---       #819
      00FF3E8AH   LINE      CODE     ---       #821
      00FF3E8DH   LINE      CODE     ---       #823
      00FF3E8DH   LINE      CODE     ---       #824
      00FF3E8DH   LINE      CODE     ---       #826
      00FF3EBBH   LINE      CODE     ---       #827
      00FF3EDBH   LINE      CODE     ---       #829
      00FF3EEEH   LINE      CODE     ---       #830
      00FF3F0DH   LINE      CODE     ---       #831
      00FF3F26H   LINE      CODE     ---       #832
      00FF3F41H   LINE      CODE     ---       #834
      00FF3F44H   LINE      CODE     ---       #836
      00FF3F44H   LINE      CODE     ---       #837
      00FF3F44H   LINE      CODE     ---       #839
      00FF3F72H   LINE      CODE     ---       #840
      00FF3F92H   LINE      CODE     ---       #842
      00FF3FA5H   LINE      CODE     ---       #843
      00FF3FC4H   LINE      CODE     ---       #844
      00FF3FDDH   LINE      CODE     ---       #845
      00FF3FF8H   LINE      CODE     ---       #848
      00FF3FFBH   LINE      CODE     ---       #850
      00FF3FFBH   LINE      CODE     ---       #851
      00FF3FFBH   LINE      CODE     ---       #852
      00FF3FFBH   LINE      CODE     ---       #854
      00FF4029H   LINE      CODE     ---       #855
      00FF4049H   LINE      CODE     ---       #857
      00FF405CH   LINE      CODE     ---       #858
      00FF407BH   LINE      CODE     ---       #859
      00FF4094H   LINE      CODE     ---       #860
      00FF40AFH   LINE      CODE     ---       #862
      00FF40B2H   LINE      CODE     ---       #864
      00FF40B2H   LINE      CODE     ---       #865
      00FF40B2H   LINE      CODE     ---       #866
      00FF40E0H   LINE      CODE     ---       #867
      00FF40E2H   LINE      CODE     ---       #869
      00FF40FCH   LINE      CODE     ---       #870
      00FF410FH   LINE      CODE     ---       #871
      00FF4122H   LINE      CODE     ---       #872
      00FF4135H   LINE      CODE     ---       #873
      00FF4144H   LINE      CODE     ---       #875
      00FF4147H   LINE      CODE     ---       #877
      00FF4147H   LINE      CODE     ---       #878
      00FF4147H   LINE      CODE     ---       #880
      00FF4175H   LINE      CODE     ---       #882
L251 LINKER/LOCATER V4.66.93.0                                                        05/06/2025  18:54:37  PAGE 54


      00FF4191H   LINE      CODE     ---       #883
      00FF41A0H   LINE      CODE     ---       #884
      00FF41BDH   LINE      CODE     ---       #885
      00FF41D2H   LINE      CODE     ---       #886
      00FF41E7H   LINE      CODE     ---       #888
      00FF41E9H   LINE      CODE     ---       #890
      00FF41E9H   LINE      CODE     ---       #892
      00FF41F8H   LINE      CODE     ---       #893
      00FF420BH   LINE      CODE     ---       #894
      00FF421EH   LINE      CODE     ---       #896
      00FF4220H   LINE      CODE     ---       #898
      00FF4220H   LINE      CODE     ---       #899
      00FF4220H   LINE      CODE     ---       #900
      00FF4220H   LINE      CODE     ---       #901
      00FF4220H   LINE      CODE     ---       #904
      00FF423AH   LINE      CODE     ---       #905
      00FF424DH   LINE      CODE     ---       #906
      00FF4260H   LINE      CODE     ---       #907
      00FF4260H   LINE      CODE     ---       #908
      00FF4273H   LINE      CODE     ---       #909
      00FF4285H   LINE      CODE     ---       #912
      00FF428FH   LINE      CODE     ---       #913
      ---         BLOCKEND  ---      ---       LVL=0

      ---         MODULE    ---      ---       zf_common_typedef
      00010B28H   PUBLIC    XDATA    ---       tim11_irq_handler
      00010B2AH   PUBLIC    XDATA    ---       uart1_irq_handler
      00010B2CH   PUBLIC    XDATA    ---       uart2_irq_handler
      00010B2EH   PUBLIC    XDATA    ---       uart3_irq_handler
      00010B30H   PUBLIC    XDATA    ---       uart4_irq_handler
      00010B32H   PUBLIC    XDATA    ---       tim0_irq_handler
      00010B34H   PUBLIC    XDATA    ---       int0_irq_handler
      00010B36H   PUBLIC    XDATA    ---       tim1_irq_handler
      00010B38H   PUBLIC    XDATA    ---       int1_irq_handler
      00010B3AH   PUBLIC    XDATA    ---       tim2_irq_handler
      00010B3CH   PUBLIC    XDATA    ---       int2_irq_handler
      00010B3EH   PUBLIC    XDATA    ---       tim3_irq_handler
      00010B40H   PUBLIC    XDATA    ---       int3_irq_handler
      00010B42H   PUBLIC    XDATA    ---       tim4_irq_handler
      00010B44H   PUBLIC    XDATA    ---       int4_irq_handler
      000000D0H   SFRSYM    DATA     BYTE      PSW
      0000009DH   SFRSYM    DATA     BYTE      IRCBAND
      00000097H   SFRSYM    DATA     BYTE      AUXR2
      000000EFH   SFRSYM    DATA     BYTE      AUXINTIF
      000000FDH   SFRSYM    DATA     BYTE      S4CON
      000000ACH   SFRSYM    DATA     BYTE      S3CON
      0000009AH   SFRSYM    DATA     BYTE      S2CON
      000000B7H   SFRSYM    DATA     BYTE      IPH
      000000CDH   SFRSYM    DATA     BYTE      SPSTAT
      000000DDH   SFRSYM    DATA     BYTE      T4T3M
      000000C1H   SFRSYM    DATA     BYTE      WDT_CONTR
      000000DFH   SFRSYM    DATA     BYTE      IP3
      000000F4H   SFRSYM    DATA     BYTE      USBCON
      000000B5H   SFRSYM    DATA     BYTE      IP2
      000000FFH   SFRSYM    DATA     BYTE      RSTCFG
      000000C7H   SFRSYM    DATA     BYTE      IAP_CONTR
      0000008EH   SFRSYM    DATA     BYTE      AUXR
      000000AFH   SFRSYM    DATA     BYTE      IE2
      00000088H   SFRSYM    DATA     BYTE      TCON
      00000089H   SFRSYM    DATA     BYTE      TMOD
      00000098H   SFRSYM    DATA     BYTE      SCON
      00000087H   SFRSYM    DATA     BYTE      PCON
      000000BCH   SFRSYM    DATA     BYTE      ADC_CONTR
      000000D1H   SFRSYM    DATA     BYTE      PSW1
      000000E7H   SFRSYM    DATA     BYTE      CMPCR2
L251 LINKER/LOCATER V4.66.93.0                                                        05/06/2025  18:54:37  PAGE 55


      000000E6H   SFRSYM    DATA     BYTE      CMPCR1
      000000DEH   SFRSYM    DATA     BYTE      ADCCFG
      000000B8H   SFRSYM    DATA     BYTE      IP
      0000008FH   SFRSYM    DATA     BYTE      INTCLKO
      000000EEH   SFRSYM    DATA     BYTE      IP3H
      000000B6H   SFRSYM    DATA     BYTE      IP2H
      000000BFH   SFRSYM    DATA     BYTE      P_SW4
      000000A8H   SFRSYM    DATA     BYTE      IE
      000000BBH   SFRSYM    DATA     BYTE      P_SW3
      000000BAH   SFRSYM    DATA     BYTE      P_SW2
      000000A2H   SFRSYM    DATA     BYTE      P_SW1
      000000CEH   SFRSYM    DATA     BYTE      SPCTL
      000000F8H   SFRSYM    DATA     BYTE      P7
      000000E8H   SFRSYM    DATA     BYTE      P6
      000000C8H   SFRSYM    DATA     BYTE      P5
      000000C0H   SFRSYM    DATA     BYTE      P4
      000000ABH   SFRSYM    DATA     BYTE      WKTCH
      000000B0H   SFRSYM    DATA     BYTE      P3
      000000A0H   SFRSYM    DATA     BYTE      P2
      00000090H   SFRSYM    DATA     BYTE      P1
      00000080H   SFRSYM    DATA     BYTE      P0

      ---         MODULE    ---      ---       zf_common_interrupt
      00FF001EH   PUBLIC    CODE     ---       interrupt_global_enable
      000000D0H   SFRSYM    DATA     BYTE      PSW
      0000009DH   SFRSYM    DATA     BYTE      IRCBAND
      00000097H   SFRSYM    DATA     BYTE      AUXR2
      000000EFH   SFRSYM    DATA     BYTE      AUXINTIF
      000000FDH   SFRSYM    DATA     BYTE      S4CON
      000000ACH   SFRSYM    DATA     BYTE      S3CON
      0000009AH   SFRSYM    DATA     BYTE      S2CON
      000000B7H   SFRSYM    DATA     BYTE      IPH
      000000CDH   SFRSYM    DATA     BYTE      SPSTAT
      000000DDH   SFRSYM    DATA     BYTE      T4T3M
      000000C1H   SFRSYM    DATA     BYTE      WDT_CONTR
      000000DFH   SFRSYM    DATA     BYTE      IP3
      000000F4H   SFRSYM    DATA     BYTE      USBCON
      000000B5H   SFRSYM    DATA     BYTE      IP2
      000000FFH   SFRSYM    DATA     BYTE      RSTCFG
      000000C7H   SFRSYM    DATA     BYTE      IAP_CONTR
      0000008EH   SFRSYM    DATA     BYTE      AUXR
      000000AFH   SFRSYM    DATA     BYTE      IE2
      00000088H   SFRSYM    DATA     BYTE      TCON
      00000089H   SFRSYM    DATA     BYTE      TMOD
      00000098H   SFRSYM    DATA     BYTE      SCON
      00000087H   SFRSYM    DATA     BYTE      PCON
      000000BCH   SFRSYM    DATA     BYTE      ADC_CONTR
      000000D1H   SFRSYM    DATA     BYTE      PSW1
      000000E7H   SFRSYM    DATA     BYTE      CMPCR2
      000000E6H   SFRSYM    DATA     BYTE      CMPCR1
      000000DEH   SFRSYM    DATA     BYTE      ADCCFG
      000000B8H   SFRSYM    DATA     BYTE      IP
      0000008FH   SFRSYM    DATA     BYTE      INTCLKO
      000000EEH   SFRSYM    DATA     BYTE      IP3H
      000000B6H   SFRSYM    DATA     BYTE      IP2H
      000000BFH   SFRSYM    DATA     BYTE      P_SW4
      000000A8H   SFRSYM    DATA     BYTE      IE
      000000BBH   SFRSYM    DATA     BYTE      P_SW3
      000000BAH   SFRSYM    DATA     BYTE      P_SW2
      000000A2H   SFRSYM    DATA     BYTE      P_SW1
      000000CEH   SFRSYM    DATA     BYTE      SPCTL
      000000F8H   SFRSYM    DATA     BYTE      P7
      000000A8H.7 SFRSYM    DATA     BIT       EA
      000000E8H   SFRSYM    DATA     BYTE      P6
      000000C8H   SFRSYM    DATA     BYTE      P5
L251 LINKER/LOCATER V4.66.93.0                                                        05/06/2025  18:54:37  PAGE 56


      000000C0H   SFRSYM    DATA     BYTE      P4
      000000ABH   SFRSYM    DATA     BYTE      WKTCH
      000000B0H   SFRSYM    DATA     BYTE      P3
      000000A0H   SFRSYM    DATA     BYTE      P2
      00000090H   SFRSYM    DATA     BYTE      P1
      00000080H   SFRSYM    DATA     BYTE      P0
      000114C8H   SYMBOL    XDATA    INT       irqn
      000114CAH   SYMBOL    XDATA    BYTE      priority

      00FF001EH   BLOCK     CODE     ---       LVL=0
      00FF001EH   LINE      CODE     ---       #88
      00FF001EH   LINE      CODE     ---       #90
      00FF0020H   LINE      CODE     ---       #91
      ---         BLOCKEND  ---      ---       LVL=0

      ---         MODULE    ---      ---       ?C_START
      00FF0000H   PUBLIC    CODE     ---       ?C?STARTUP
      00FF0000H   PUBLIC    CODE     ---       ?C_STARTUP
      000000D0H.6 SFRSYM    DATA     BIT       AC
      000000E0H   SFRSYM    DATA     BYTE      ACC
      000000F0H   SFRSYM    DATA     BYTE      B
      000000FAH   SFRSYM    DATA     BYTE      CCAP0H
      000000EAH   SFRSYM    DATA     BYTE      CCAP0L
      000000FBH   SFRSYM    DATA     BYTE      CCAP1H
      000000EBH   SFRSYM    DATA     BYTE      CCAP1L
      000000FCH   SFRSYM    DATA     BYTE      CCAP2H
      000000ECH   SFRSYM    DATA     BYTE      CCAP2L
      000000FDH   SFRSYM    DATA     BYTE      CCAP3H
      000000EDH   SFRSYM    DATA     BYTE      CCAP3L
      000000FEH   SFRSYM    DATA     BYTE      CCAP4H
      000000EEH   SFRSYM    DATA     BYTE      CCAP4L
      000000DAH   SFRSYM    DATA     BYTE      CCAPM0
      000000DBH   SFRSYM    DATA     BYTE      CCAPM1
      000000DCH   SFRSYM    DATA     BYTE      CCAPM2
      000000DDH   SFRSYM    DATA     BYTE      CCAPM3
      000000DEH   SFRSYM    DATA     BYTE      CCAPM4
      000000D8H.0 SFRSYM    DATA     BIT       CCF0
      000000D8H.1 SFRSYM    DATA     BIT       CCF1
      000000D8H.2 SFRSYM    DATA     BIT       CCF2
      000000D8H.3 SFRSYM    DATA     BIT       CCF3
      000000D8H.4 SFRSYM    DATA     BIT       CCF4
      000000D8H   SFRSYM    DATA     BYTE      CCON
      00000090H.3 SFRSYM    DATA     BIT       CEX0
      00000090H.4 SFRSYM    DATA     BIT       CEX1
      00000090H.5 SFRSYM    DATA     BIT       CEX2
      00000090H.6 SFRSYM    DATA     BIT       CEX3
      00000090H.7 SFRSYM    DATA     BIT       CEX4
      000000D8H.7 SFRSYM    DATA     BIT       CF
      000000F9H   SFRSYM    DATA     BYTE      CH
      000000E9H   SFRSYM    DATA     BYTE      CL
      000000D9H   SFRSYM    DATA     BYTE      CMOD
      000000C8H.0 SFRSYM    DATA     BIT       CP_RL2
      000000D8H.6 SFRSYM    DATA     BIT       CR
      000000D0H.7 SFRSYM    DATA     BIT       CY
      000000C8H.1 SFRSYM    DATA     BIT       C_T2
      00000083H   SFRSYM    DATA     BYTE      DPH
      00000082H   SFRSYM    DATA     BYTE      DPL
      00000084H   SFRSYM    DATA     BYTE      DPXL
      000000A8H.7 SFRSYM    DATA     BIT       EA
      000000A8H.6 SFRSYM    DATA     BIT       EC
      00000090H.2 SFRSYM    DATA     BIT       ECI
      000000A8H.4 SFRSYM    DATA     BIT       ES
      000000A8H.1 SFRSYM    DATA     BIT       ET0
      000000A8H.3 SFRSYM    DATA     BIT       ET1
      000000A8H.5 SFRSYM    DATA     BIT       ET2
L251 LINKER/LOCATER V4.66.93.0                                                        05/06/2025  18:54:37  PAGE 57


      000000A8H.0 SFRSYM    DATA     BIT       EX0
      000000A8H.2 SFRSYM    DATA     BIT       EX1
      000000C8H.3 SFRSYM    DATA     BIT       EXEN2
      000000C8H.6 SFRSYM    DATA     BIT       EXF2
      000000D0H.5 SFRSYM    DATA     BIT       F0
      00000098H.7 SFRSYM    DATA     BIT       FE
      000000A8H   SFRSYM    DATA     BYTE      IE0
      00000088H.1 SFRSYM    DATA     BIT       IE0_
      000000B1H   SFRSYM    DATA     BYTE      IE1
      00000088H.3 SFRSYM    DATA     BIT       IE1_
      000000B0H.2 SFRSYM    DATA     BIT       INT0
      000000B0H.3 SFRSYM    DATA     BIT       INT1
      000000B7H   SFRSYM    DATA     BYTE      IPH0
      000000B8H   SFRSYM    DATA     BYTE      IPL0
      00000088H.0 SFRSYM    DATA     BIT       IT0
      00000088H.2 SFRSYM    DATA     BIT       IT1
      000000D0H.2 SFRSYM    DATA     BIT       OV
      000000D0H.0 SFRSYM    DATA     BIT       P
      00000080H   SFRSYM    DATA     BYTE      P0
      00000090H   SFRSYM    DATA     BYTE      P1
      000000A0H   SFRSYM    DATA     BYTE      P2
      000000B0H   SFRSYM    DATA     BYTE      P3
      00000087H   SFRSYM    DATA     BYTE      PCON
      000000B8H.6 SFRSYM    DATA     BIT       PPC
      000000B8H.4 SFRSYM    DATA     BIT       PS
      000000D0H   SFRSYM    DATA     BYTE      PSW
      000000D1H   SFRSYM    DATA     BYTE      PSW1
      000000B8H.1 SFRSYM    DATA     BIT       PT0
      000000B8H.3 SFRSYM    DATA     BIT       PT1
      000000B8H.5 SFRSYM    DATA     BIT       PT2
      000000B8H.0 SFRSYM    DATA     BIT       PX0
      000000B8H.2 SFRSYM    DATA     BIT       PX1
      00000098H.2 SFRSYM    DATA     BIT       RB8
      000000CBH   SFRSYM    DATA     BYTE      RCAP2H
      000000CAH   SFRSYM    DATA     BYTE      RCAP2L
      000000C8H.5 SFRSYM    DATA     BIT       RCLK
      000000B0H.7 SFRSYM    DATA     BIT       RD
      00000098H.4 SFRSYM    DATA     BIT       REN
      00000098H.0 SFRSYM    DATA     BIT       RI
      000000D0H.3 SFRSYM    DATA     BIT       RS0
      000000D0H.4 SFRSYM    DATA     BIT       RS1
      000000B0H.0 SFRSYM    DATA     BIT       RXD
      000000A9H   SFRSYM    DATA     BYTE      SADDR
      000000B9H   SFRSYM    DATA     BYTE      SADEN
      00000099H   SFRSYM    DATA     BYTE      SBUF
      00000098H   SFRSYM    DATA     BYTE      SCON
      00000098H.7 SFRSYM    DATA     BIT       SM0
      00000098H.6 SFRSYM    DATA     BIT       SM1
      00000098H.5 SFRSYM    DATA     BIT       SM2
      00000081H   SFRSYM    DATA     BYTE      SP
      000000BEH   SFRSYM    DATA     BYTE      SPH
      000000B0H.4 SFRSYM    DATA     BIT       T0
      000000B0H.5 SFRSYM    DATA     BIT       T1
      00000090H.0 SFRSYM    DATA     BIT       T2
      000000C8H   SFRSYM    DATA     BYTE      T2CON
      00000090H.1 SFRSYM    DATA     BIT       T2EX
      000000C9H   SFRSYM    DATA     BYTE      T2MOD
      00000098H.3 SFRSYM    DATA     BIT       TB8
      000000C8H.4 SFRSYM    DATA     BIT       TCLK
      00000088H   SFRSYM    DATA     BYTE      TCON
      00000088H.5 SFRSYM    DATA     BIT       TF0
      00000088H.7 SFRSYM    DATA     BIT       TF1
      000000C8H.7 SFRSYM    DATA     BIT       TF2
      0000008CH   SFRSYM    DATA     BYTE      TH0
      0000008DH   SFRSYM    DATA     BYTE      TH1
L251 LINKER/LOCATER V4.66.93.0                                                        05/06/2025  18:54:37  PAGE 58


      000000CDH   SFRSYM    DATA     BYTE      TH2
      00000098H.1 SFRSYM    DATA     BIT       TI
      0000008AH   SFRSYM    DATA     BYTE      TL0
      0000008BH   SFRSYM    DATA     BYTE      TL1
      000000CCH   SFRSYM    DATA     BYTE      TL2
      00000089H   SFRSYM    DATA     BYTE      TMOD
      00000088H.4 SFRSYM    DATA     BIT       TR0
      00000088H.6 SFRSYM    DATA     BIT       TR1
      000000C8H.2 SFRSYM    DATA     BIT       TR2
      000000B0H.1 SFRSYM    DATA     BIT       TXD
      000000A6H   SFRSYM    DATA     BYTE      WDTRST
      000000B0H.6 SFRSYM    DATA     BIT       WR
      00000800H   SYMBOL    NUMBER   ---       EDATALEN
      00FFE1FBH   SYMBOL    CODE     ---       EDATALOOP
      00000001H   SYMBOL    NUMBER   ---       EDF
      00000001H   SYMBOL    NUMBER   ---       EMAP
      00000000H   SYMBOL    NUMBER   ---       HDATALEN
      00010000H   SYMBOL    NUMBER   ---       HDATASTART
      00000000H   SYMBOL    NUMBER   ---       IBPSTACK
      00000100H   SYMBOL    NUMBER   ---       IBPSTACKTOP
      00000001H   SYMBOL    NUMBER   ---       INTR
      00000001H   SYMBOL    NUMBER   ---       PAGM
      00000003H   SYMBOL    NUMBER   ---       RDRG
      00000001H   SYMBOL    NUMBER   ---       SRCM
      00000700H   SYMBOL    NUMBER   ---       STACKSIZE
      00FFE1F3H   SYMBOL    CODE     ---       STARTUP1
      00000003H   SYMBOL    NUMBER   ---       WSA
      00000003H   SYMBOL    NUMBER   ---       WSB
      00000001H   SYMBOL    NUMBER   ---       XALE
      00000000H   SYMBOL    NUMBER   ---       XBPSTACK
      00010000H   SYMBOL    NUMBER   ---       XBPSTACKTOP
      00008000H   SYMBOL    NUMBER   ---       XDATALEN
      00FFE20AH   SYMBOL    CODE     ---       XDATALOOP
      00010000H   SYMBOL    NUMBER   ---       XDATASTART

      00FF0000H   BLOCK     CODE     NEAR LAB  LVL=0
      00FF0000H   LINE      CODE     ---       #183
      ---         BLOCKEND  ---      ---       LVL=0

      00FFE1F3H   BLOCK     CODE     NEAR LAB  LVL=0
      00FFE1F3H   LINE      CODE     ---       #188
      00FFE1F6H   LINE      CODE     ---       #191
      00FFE1FAH   LINE      CODE     ---       #192
      00FFE1FBH   LINE      CODE     ---       #193
      00FFE1FEH   LINE      CODE     ---       #194
      00FFE200H   LINE      CODE     ---       #195
      00FFE202H   LINE      CODE     ---       #199
      00FFE205H   LINE      CODE     ---       #200
      00FFE209H   LINE      CODE     ---       #201
      00FFE20AH   LINE      CODE     ---       #202
      00FFE20BH   LINE      CODE     ---       #203
      00FFE20CH   LINE      CODE     ---       #204
      00FFE20EH   LINE      CODE     ---       #205
      00FFE210H   LINE      CODE     ---       #235
      ---         BLOCKEND  ---      ---       LVL=0

      00FFE24BH   BLOCK     CODE     NEAR LAB  LVL=0
      00FFE24BH   LINE      CODE     ---       #238
      ---         BLOCKEND  ---      ---       LVL=0

      ---         MODULE    ---      ---       zf_driver_adc
      00000094H   SFRSYM    DATA     BYTE      P0M0
      000000D0H   SFRSYM    DATA     BYTE      PSW
      0000009DH   SFRSYM    DATA     BYTE      IRCBAND
      00000097H   SFRSYM    DATA     BYTE      AUXR2
L251 LINKER/LOCATER V4.66.93.0                                                        05/06/2025  18:54:37  PAGE 59


      000000EFH   SFRSYM    DATA     BYTE      AUXINTIF
      000000FDH   SFRSYM    DATA     BYTE      S4CON
      000000ACH   SFRSYM    DATA     BYTE      S3CON
      0000009AH   SFRSYM    DATA     BYTE      S2CON
      000000B7H   SFRSYM    DATA     BYTE      IPH
      000000CDH   SFRSYM    DATA     BYTE      SPSTAT
      000000BEH   SFRSYM    DATA     BYTE      ADC_RESL
      000000DDH   SFRSYM    DATA     BYTE      T4T3M
      000000C1H   SFRSYM    DATA     BYTE      WDT_CONTR
      000000DFH   SFRSYM    DATA     BYTE      IP3
      000000F4H   SFRSYM    DATA     BYTE      USBCON
      000000B5H   SFRSYM    DATA     BYTE      IP2
      000000FFH   SFRSYM    DATA     BYTE      RSTCFG
      000000C7H   SFRSYM    DATA     BYTE      IAP_CONTR
      0000008EH   SFRSYM    DATA     BYTE      AUXR
      000000AFH   SFRSYM    DATA     BYTE      IE2
      00000088H   SFRSYM    DATA     BYTE      TCON
      00000089H   SFRSYM    DATA     BYTE      TMOD
      00000098H   SFRSYM    DATA     BYTE      SCON
      00000087H   SFRSYM    DATA     BYTE      PCON
      000000BCH   SFRSYM    DATA     BYTE      ADC_CONTR
      000000D1H   SFRSYM    DATA     BYTE      PSW1
      000000E7H   SFRSYM    DATA     BYTE      CMPCR2
      000000E6H   SFRSYM    DATA     BYTE      CMPCR1
      000000DEH   SFRSYM    DATA     BYTE      ADCCFG
      000000B8H   SFRSYM    DATA     BYTE      IP
      0000008FH   SFRSYM    DATA     BYTE      INTCLKO
      000000EEH   SFRSYM    DATA     BYTE      IP3H
      000000B6H   SFRSYM    DATA     BYTE      IP2H
      000000BDH   SFRSYM    DATA     BYTE      ADC_RES
      000000BFH   SFRSYM    DATA     BYTE      P_SW4
      000000A8H   SFRSYM    DATA     BYTE      IE
      000000BBH   SFRSYM    DATA     BYTE      P_SW3
      000000BAH   SFRSYM    DATA     BYTE      P_SW2
      000000A2H   SFRSYM    DATA     BYTE      P_SW1
      000000CEH   SFRSYM    DATA     BYTE      SPCTL
      000000F8H   SFRSYM    DATA     BYTE      P7
      000000E8H   SFRSYM    DATA     BYTE      P6
      000000C8H   SFRSYM    DATA     BYTE      P5
      000000C0H   SFRSYM    DATA     BYTE      P4
      000000ABH   SFRSYM    DATA     BYTE      WKTCH
      000000B0H   SFRSYM    DATA     BYTE      P3
      000000A0H   SFRSYM    DATA     BYTE      P2
      00000090H   SFRSYM    DATA     BYTE      P1
      00000080H   SFRSYM    DATA     BYTE      P0
      00000091H   SFRSYM    DATA     BYTE      P1M1
      00000092H   SFRSYM    DATA     BYTE      P1M0
      00000093H   SFRSYM    DATA     BYTE      P0M1
      0001150DH   SYMBOL    XDATA    BYTE      adc_resolution
      000112D2H   SYMBOL    XDATA    INT       ch
      000112D4H   SYMBOL    XDATA    BYTE      count
      000112D5H   SYMBOL    XDATA    BYTE      i
      000112D6H   SYMBOL    XDATA    DWORD     sum
      00011428H   SYMBOL    XDATA    INT       ch
      0001142AH   SYMBOL    XDATA    WORD      adc_value
      0001142CH   SYMBOL    XDATA    INT       ch
      0001142EH   SYMBOL    XDATA    INT       resolution

      ---         MODULE    ---      ---       zf_driver_delay
      00FFE0DDH   PUBLIC    CODE     ---       system_delay_init
      00FFDB7CH   PUBLIC    CODE     ---       system_delay_ms
      000000D0H   SFRSYM    DATA     BYTE      PSW
      0000009DH   SFRSYM    DATA     BYTE      IRCBAND
      00000097H   SFRSYM    DATA     BYTE      AUXR2
      000000EFH   SFRSYM    DATA     BYTE      AUXINTIF
L251 LINKER/LOCATER V4.66.93.0                                                        05/06/2025  18:54:37  PAGE 60


      000000FDH   SFRSYM    DATA     BYTE      S4CON
      000000ACH   SFRSYM    DATA     BYTE      S3CON
      0000009AH   SFRSYM    DATA     BYTE      S2CON
      000000B7H   SFRSYM    DATA     BYTE      IPH
      000000CDH   SFRSYM    DATA     BYTE      SPSTAT
      000000DDH   SFRSYM    DATA     BYTE      T4T3M
      000000C1H   SFRSYM    DATA     BYTE      WDT_CONTR
      000000DFH   SFRSYM    DATA     BYTE      IP3
      000000F4H   SFRSYM    DATA     BYTE      USBCON
      000000B5H   SFRSYM    DATA     BYTE      IP2
      000000FFH   SFRSYM    DATA     BYTE      RSTCFG
      000000C7H   SFRSYM    DATA     BYTE      IAP_CONTR
      0000008EH   SFRSYM    DATA     BYTE      AUXR
      000000AFH   SFRSYM    DATA     BYTE      IE2
      00000088H   SFRSYM    DATA     BYTE      TCON
      00000089H   SFRSYM    DATA     BYTE      TMOD
      00000098H   SFRSYM    DATA     BYTE      SCON
      00000087H   SFRSYM    DATA     BYTE      PCON
      000000BCH   SFRSYM    DATA     BYTE      ADC_CONTR
      000000D1H   SFRSYM    DATA     BYTE      PSW1
      000000E7H   SFRSYM    DATA     BYTE      CMPCR2
      000000E6H   SFRSYM    DATA     BYTE      CMPCR1
      000000DEH   SFRSYM    DATA     BYTE      ADCCFG
      000000B8H   SFRSYM    DATA     BYTE      IP
      0000008FH   SFRSYM    DATA     BYTE      INTCLKO
      000000EEH   SFRSYM    DATA     BYTE      IP3H
      000000B6H   SFRSYM    DATA     BYTE      IP2H
      000000BFH   SFRSYM    DATA     BYTE      P_SW4
      000000A8H   SFRSYM    DATA     BYTE      IE
      000000BBH   SFRSYM    DATA     BYTE      P_SW3
      000000BAH   SFRSYM    DATA     BYTE      P_SW2
      000000A2H   SFRSYM    DATA     BYTE      P_SW1
      000000CEH   SFRSYM    DATA     BYTE      SPCTL
      000000F8H   SFRSYM    DATA     BYTE      P7
      000000E8H   SFRSYM    DATA     BYTE      P6
      000000C8H   SFRSYM    DATA     BYTE      P5
      000000C0H   SFRSYM    DATA     BYTE      P4
      000000ABH   SFRSYM    DATA     BYTE      WKTCH
      000000B0H   SFRSYM    DATA     BYTE      P3
      000000A0H   SFRSYM    DATA     BYTE      P2
      00000090H   SFRSYM    DATA     BYTE      P1
      00000080H   SFRSYM    DATA     BYTE      P0
      00011430H   SYMBOL    XDATA    WORD      pca_delay_1ms
      00011432H   SYMBOL    XDATA    WORD      pca_delay_1us

      00FFE0DDH   BLOCK     CODE     ---       LVL=0
      00FFE0DDH   LINE      CODE     ---       #48
      00FFE0DDH   LINE      CODE     ---       #50
      00FFE0F4H   LINE      CODE     ---       #51
      00FFE10FH   LINE      CODE     ---       #53
      00FFE11CH   LINE      CODE     ---       #54
      00FFE129H   LINE      CODE     ---       #55
      00FFE139H   LINE      CODE     ---       #57
      ---         BLOCKEND  ---      ---       LVL=0

      00FFDB7CH   BLOCK     CODE     ---       LVL=0
      00011434H   SYMBOL    XDATA    WORD      ms
      00FFDB82H   BLOCK     CODE     NEAR LAB  LVL=1
      00011436H   SYMBOL    XDATA    WORD      temp
      ---         BLOCKEND  ---      ---       LVL=1
      00FFDB7CH   LINE      CODE     ---       #65
      00FFDB82H   LINE      CODE     ---       #66
      00FFDB82H   LINE      CODE     ---       #69
      00FFDB84H   LINE      CODE     ---       #71
      00FFDBAEH   LINE      CODE     ---       #73
L251 LINKER/LOCATER V4.66.93.0                                                        05/06/2025  18:54:37  PAGE 61


      00FFDBBFH   LINE      CODE     ---       #74
      00FFDBD4H   LINE      CODE     ---       #76
      00FFDBE2H   LINE      CODE     ---       #77
      00FFDBF2H   LINE      CODE     ---       #78
      00FFDC03H   LINE      CODE     ---       #79
      ---         BLOCKEND  ---      ---       LVL=0
      00011438H   SYMBOL    XDATA    WORD      ms
      0001143AH   SYMBOL    XDATA    WORD      temp

      ---         MODULE    ---      ---       zf_driver_encoder
      000000D0H   SFRSYM    DATA     BYTE      PSW
      0000009DH   SFRSYM    DATA     BYTE      IRCBAND
      00000097H   SFRSYM    DATA     BYTE      AUXR2
      000000EFH   SFRSYM    DATA     BYTE      AUXINTIF
      000000FDH   SFRSYM    DATA     BYTE      S4CON
      000000ACH   SFRSYM    DATA     BYTE      S3CON
      0000009AH   SFRSYM    DATA     BYTE      S2CON
      000000B7H   SFRSYM    DATA     BYTE      IPH
      000000CDH   SFRSYM    DATA     BYTE      SPSTAT
      000000DDH   SFRSYM    DATA     BYTE      T4T3M
      000000C1H   SFRSYM    DATA     BYTE      WDT_CONTR
      00000088H.6 SFRSYM    DATA     BIT       TR1
      00000088H.4 SFRSYM    DATA     BIT       TR0
      000000D3H   SFRSYM    DATA     BYTE      T4L
      000000D5H   SFRSYM    DATA     BYTE      T3L
      000000D7H   SFRSYM    DATA     BYTE      T2L
      0000008BH   SFRSYM    DATA     BYTE      TL1
      0000008AH   SFRSYM    DATA     BYTE      TL0
      000000D2H   SFRSYM    DATA     BYTE      T4H
      000000D4H   SFRSYM    DATA     BYTE      T3H
      000000D6H   SFRSYM    DATA     BYTE      T2H
      0000008DH   SFRSYM    DATA     BYTE      TH1
      0000008CH   SFRSYM    DATA     BYTE      TH0
      000000DFH   SFRSYM    DATA     BYTE      IP3
      000000F4H   SFRSYM    DATA     BYTE      USBCON
      000000B5H   SFRSYM    DATA     BYTE      IP2
      000000FFH   SFRSYM    DATA     BYTE      RSTCFG
      000000C7H   SFRSYM    DATA     BYTE      IAP_CONTR
      0000008EH   SFRSYM    DATA     BYTE      AUXR
      000000AFH   SFRSYM    DATA     BYTE      IE2
      00000088H   SFRSYM    DATA     BYTE      TCON
      00000089H   SFRSYM    DATA     BYTE      TMOD
      00000098H   SFRSYM    DATA     BYTE      SCON
      00000087H   SFRSYM    DATA     BYTE      PCON
      000000BCH   SFRSYM    DATA     BYTE      ADC_CONTR
      000000D1H   SFRSYM    DATA     BYTE      PSW1
      000000E7H   SFRSYM    DATA     BYTE      CMPCR2
      000000E6H   SFRSYM    DATA     BYTE      CMPCR1
      000000DEH   SFRSYM    DATA     BYTE      ADCCFG
      000000B8H   SFRSYM    DATA     BYTE      IP
      0000008FH   SFRSYM    DATA     BYTE      INTCLKO
      000000EEH   SFRSYM    DATA     BYTE      IP3H
      000000B6H   SFRSYM    DATA     BYTE      IP2H
      000000BFH   SFRSYM    DATA     BYTE      P_SW4
      000000A8H   SFRSYM    DATA     BYTE      IE
      000000BBH   SFRSYM    DATA     BYTE      P_SW3
      000000BAH   SFRSYM    DATA     BYTE      P_SW2
      000000A2H   SFRSYM    DATA     BYTE      P_SW1
      000000CEH   SFRSYM    DATA     BYTE      SPCTL
      000000F8H   SFRSYM    DATA     BYTE      P7
      000000E8H   SFRSYM    DATA     BYTE      P6
      000000C8H   SFRSYM    DATA     BYTE      P5
      000000C0H   SFRSYM    DATA     BYTE      P4
      000000ABH   SFRSYM    DATA     BYTE      WKTCH
      000000B0H   SFRSYM    DATA     BYTE      P3
L251 LINKER/LOCATER V4.66.93.0                                                        05/06/2025  18:54:37  PAGE 62


      000000A0H   SFRSYM    DATA     BYTE      P2
      00000090H   SFRSYM    DATA     BYTE      P1
      00000080H   SFRSYM    DATA     BYTE      P0
      0001135BH   SYMBOL    XDATA    ---       encoder_dir_pin
      0001143CH   SYMBOL    XDATA    INT       encoder_n
      0001143EH   SYMBOL    XDATA    INT       dat
      000114ECH   SYMBOL    XDATA    INT       encoder_n
      00011361H   SYMBOL    XDATA    INT       encoder_n
      00011363H   SYMBOL    XDATA    INT       dir_pin
      00011365H   SYMBOL    XDATA    INT       lsb_pin

      ---         MODULE    ---      ---       zf_driver_exti
      000000D0H   SFRSYM    DATA     BYTE      PSW
      0000009DH   SFRSYM    DATA     BYTE      IRCBAND
      00000097H   SFRSYM    DATA     BYTE      AUXR2
      000000EFH   SFRSYM    DATA     BYTE      AUXINTIF
      000000FDH   SFRSYM    DATA     BYTE      S4CON
      000000ACH   SFRSYM    DATA     BYTE      S3CON
      0000009AH   SFRSYM    DATA     BYTE      S2CON
      000000B7H   SFRSYM    DATA     BYTE      IPH
      000000CDH   SFRSYM    DATA     BYTE      SPSTAT
      000000DDH   SFRSYM    DATA     BYTE      T4T3M
      000000C1H   SFRSYM    DATA     BYTE      WDT_CONTR
      000000DFH   SFRSYM    DATA     BYTE      IP3
      000000F4H   SFRSYM    DATA     BYTE      USBCON
      000000B5H   SFRSYM    DATA     BYTE      IP2
      000000FFH   SFRSYM    DATA     BYTE      RSTCFG
      000000C7H   SFRSYM    DATA     BYTE      IAP_CONTR
      0000008EH   SFRSYM    DATA     BYTE      AUXR
      000000AFH   SFRSYM    DATA     BYTE      IE2
      00000088H   SFRSYM    DATA     BYTE      TCON
      00000089H   SFRSYM    DATA     BYTE      TMOD
      00000098H   SFRSYM    DATA     BYTE      SCON
      00000087H   SFRSYM    DATA     BYTE      PCON
      000000BCH   SFRSYM    DATA     BYTE      ADC_CONTR
      000000D1H   SFRSYM    DATA     BYTE      PSW1
      000000E7H   SFRSYM    DATA     BYTE      CMPCR2
      000000E6H   SFRSYM    DATA     BYTE      CMPCR1
      000000DEH   SFRSYM    DATA     BYTE      ADCCFG
      000000B8H   SFRSYM    DATA     BYTE      IP
      0000008FH   SFRSYM    DATA     BYTE      INTCLKO
      000000EEH   SFRSYM    DATA     BYTE      IP3H
      000000B6H   SFRSYM    DATA     BYTE      IP2H
      000000BFH   SFRSYM    DATA     BYTE      P_SW4
      000000A8H   SFRSYM    DATA     BYTE      IE
      000000BBH   SFRSYM    DATA     BYTE      P_SW3
      000000BAH   SFRSYM    DATA     BYTE      P_SW2
      000000A2H   SFRSYM    DATA     BYTE      P_SW1
      000000CEH   SFRSYM    DATA     BYTE      SPCTL
      000000F8H   SFRSYM    DATA     BYTE      P7
      000000E8H   SFRSYM    DATA     BYTE      P6
      000000C8H   SFRSYM    DATA     BYTE      P5
      000000C0H   SFRSYM    DATA     BYTE      P4
      000000ABH   SFRSYM    DATA     BYTE      WKTCH
      000000B0H   SFRSYM    DATA     BYTE      P3
      000000A0H   SFRSYM    DATA     BYTE      P2
      00000090H   SFRSYM    DATA     BYTE      P1
      00000080H   SFRSYM    DATA     BYTE      P0

      ---         MODULE    ---      ---       zf_driver_gpio
      00FFCC55H   PUBLIC    CODE     ---       gpio_init
      00FFC68DH   PUBLIC    CODE     ---       gpio_get_level
      00FF8B45H   PUBLIC    CODE     ---       gpio_set_level_speed
      00FFA912H   PUBLIC    CODE     ---       gpio_set_level
      00FFB3FFH   PUBLIC    CODE     ---       gpio_set_impedance
L251 LINKER/LOCATER V4.66.93.0                                                        05/06/2025  18:54:37  PAGE 63


      00000094H   SFRSYM    DATA     BYTE      P0M0
      000000D0H   SFRSYM    DATA     BYTE      PSW
      0000009DH   SFRSYM    DATA     BYTE      IRCBAND
      00000097H   SFRSYM    DATA     BYTE      AUXR2
      000000EFH   SFRSYM    DATA     BYTE      AUXINTIF
      000000FDH   SFRSYM    DATA     BYTE      S4CON
      000000ACH   SFRSYM    DATA     BYTE      S3CON
      0000009AH   SFRSYM    DATA     BYTE      S2CON
      000000B7H   SFRSYM    DATA     BYTE      IPH
      000000CDH   SFRSYM    DATA     BYTE      SPSTAT
      000000DDH   SFRSYM    DATA     BYTE      T4T3M
      000000C1H   SFRSYM    DATA     BYTE      WDT_CONTR
      000000DFH   SFRSYM    DATA     BYTE      IP3
      000000F4H   SFRSYM    DATA     BYTE      USBCON
      000000B5H   SFRSYM    DATA     BYTE      IP2
      000000FFH   SFRSYM    DATA     BYTE      RSTCFG
      000000C7H   SFRSYM    DATA     BYTE      IAP_CONTR
      0000008EH   SFRSYM    DATA     BYTE      AUXR
      000000AFH   SFRSYM    DATA     BYTE      IE2
      00000088H   SFRSYM    DATA     BYTE      TCON
      00000089H   SFRSYM    DATA     BYTE      TMOD
      00000098H   SFRSYM    DATA     BYTE      SCON
      00000087H   SFRSYM    DATA     BYTE      PCON
      000000BCH   SFRSYM    DATA     BYTE      ADC_CONTR
      000000D1H   SFRSYM    DATA     BYTE      PSW1
      000000E7H   SFRSYM    DATA     BYTE      CMPCR2
      000000E6H   SFRSYM    DATA     BYTE      CMPCR1
      000000DEH   SFRSYM    DATA     BYTE      ADCCFG
      000000B8H   SFRSYM    DATA     BYTE      IP
      0000008FH   SFRSYM    DATA     BYTE      INTCLKO
      000000EEH   SFRSYM    DATA     BYTE      IP3H
      000000B6H   SFRSYM    DATA     BYTE      IP2H
      000000BFH   SFRSYM    DATA     BYTE      P_SW4
      000000A8H   SFRSYM    DATA     BYTE      IE
      000000BBH   SFRSYM    DATA     BYTE      P_SW3
      000000BAH   SFRSYM    DATA     BYTE      P_SW2
      000000A2H   SFRSYM    DATA     BYTE      P_SW1
      000000CEH   SFRSYM    DATA     BYTE      SPCTL
      000000F8H   SFRSYM    DATA     BYTE      P7
      000000E8H   SFRSYM    DATA     BYTE      P6
      000000C8H   SFRSYM    DATA     BYTE      P5
      000000C0H   SFRSYM    DATA     BYTE      P4
      000000C9H   SFRSYM    DATA     BYTE      P5M1
      000000ABH   SFRSYM    DATA     BYTE      WKTCH
      000000B0H   SFRSYM    DATA     BYTE      P3
      000000B3H   SFRSYM    DATA     BYTE      P4M1
      000000CAH   SFRSYM    DATA     BYTE      P5M0
      000000A0H   SFRSYM    DATA     BYTE      P2
      000000B1H   SFRSYM    DATA     BYTE      P3M1
      000000B4H   SFRSYM    DATA     BYTE      P4M0
      00000090H   SFRSYM    DATA     BYTE      P1
      00000095H   SFRSYM    DATA     BYTE      P2M1
      000000B2H   SFRSYM    DATA     BYTE      P3M0
      00000080H   SFRSYM    DATA     BYTE      P0
      00000091H   SFRSYM    DATA     BYTE      P1M1
      00000096H   SFRSYM    DATA     BYTE      P2M0
      00000092H   SFRSYM    DATA     BYTE      P1M0
      00000093H   SFRSYM    DATA     BYTE      P0M1
      00FF751AH   SYMBOL    CODE     ---       gpio_set_dir
      00FF8E0CH   SYMBOL    CODE     ---       gpio_set_mode

      00FF8E0CH   BLOCK     CODE     ---       LVL=0
      00011440H   SYMBOL    XDATA    INT       pin
      00011442H   SYMBOL    XDATA    INT       mode
      00FF8E0CH   LINE      CODE     ---       #45
L251 LINKER/LOCATER V4.66.93.0                                                        05/06/2025  18:54:37  PAGE 64


      00FF8E18H   LINE      CODE     ---       #51
      00FF8E30H   LINE      CODE     ---       #53
      00FF8E67H   LINE      CODE     ---       #54
      00FF8E9EH   LINE      CODE     ---       #55
      00FF8EA1H   LINE      CODE     ---       #56
      00FF8EADH   LINE      CODE     ---       #58
      00FF8EE2H   LINE      CODE     ---       #59
      00FF8EE5H   LINE      CODE     ---       #60
      00FF8EFDH   LINE      CODE     ---       #62
      00FF8F32H   LINE      CODE     ---       #63
      00FF8F35H   LINE      CODE     ---       #64
      00FF8F44H   LINE      CODE     ---       #66
      00FF8F81H   LINE      CODE     ---       #68
      00FF8F81H   LINE      CODE     ---       #70
      00FF8F98H   LINE      CODE     ---       #71
      00FF8FAFH   LINE      CODE     ---       #73
      00FF8FB2H   LINE      CODE     ---       #75
      00FF8FB2H   LINE      CODE     ---       #77
      00FF8FC9H   LINE      CODE     ---       #78
      00FF8FE0H   LINE      CODE     ---       #80
      00FF8FE3H   LINE      CODE     ---       #82
      00FF8FE3H   LINE      CODE     ---       #84
      00FF8FFAH   LINE      CODE     ---       #85
      00FF9011H   LINE      CODE     ---       #87
      00FF9014H   LINE      CODE     ---       #89
      00FF9014H   LINE      CODE     ---       #91
      00FF902BH   LINE      CODE     ---       #92
      00FF9042H   LINE      CODE     ---       #94
      00FF9044H   LINE      CODE     ---       #96
      00FF9044H   LINE      CODE     ---       #98
      00FF905BH   LINE      CODE     ---       #99
      00FF9072H   LINE      CODE     ---       #101
      00FF9074H   LINE      CODE     ---       #103
      00FF9074H   LINE      CODE     ---       #105
      00FF908BH   LINE      CODE     ---       #106
      00FF90A2H   LINE      CODE     ---       #108
      00FF90A2H   LINE      CODE     ---       #109
      00FF90A2H   LINE      CODE     ---       #112
      00FF90A2H   LINE      CODE     ---       #113
      00FF90A2H   LINE      CODE     ---       #114
      00FF90A2H   LINE      CODE     ---       #119
      00FF90A2H   LINE      CODE     ---       #120
      ---         BLOCKEND  ---      ---       LVL=0

      00FF8B45H   BLOCK     CODE     ---       LVL=0
      00011444H   SYMBOL    XDATA    INT       pin
      00011446H   SYMBOL    XDATA    INT       speed
      00FF8B45H   LINE      CODE     ---       #123
      00FF8B51H   LINE      CODE     ---       #125
      00FF8B91H   LINE      CODE     ---       #127
      00FF8B91H   LINE      CODE     ---       #129
      00FF8B9BH   LINE      CODE     ---       #131
      00FF8BC2H   LINE      CODE     ---       #132
      00FF8BC5H   LINE      CODE     ---       #133
      00FF8BD4H   LINE      CODE     ---       #135
      00FF8BF9H   LINE      CODE     ---       #136
      00FF8BFCH   LINE      CODE     ---       #141
      00FF8BFCH   LINE      CODE     ---       #143
      00FF8BFCH   LINE      CODE     ---       #145
      00FF8BFCH   LINE      CODE     ---       #147
      00FF8C06H   LINE      CODE     ---       #149
      00FF8C2DH   LINE      CODE     ---       #150
      00FF8C30H   LINE      CODE     ---       #151
      00FF8C3FH   LINE      CODE     ---       #153
      00FF8C64H   LINE      CODE     ---       #154
L251 LINKER/LOCATER V4.66.93.0                                                        05/06/2025  18:54:37  PAGE 65


      00FF8C67H   LINE      CODE     ---       #159
      00FF8C67H   LINE      CODE     ---       #161
      00FF8C67H   LINE      CODE     ---       #163
      00FF8C67H   LINE      CODE     ---       #165
      00FF8C71H   LINE      CODE     ---       #167
      00FF8C98H   LINE      CODE     ---       #168
      00FF8C9BH   LINE      CODE     ---       #169
      00FF8CAAH   LINE      CODE     ---       #171
      00FF8CCFH   LINE      CODE     ---       #172
      00FF8CD2H   LINE      CODE     ---       #177
      00FF8CD2H   LINE      CODE     ---       #179
      00FF8CD2H   LINE      CODE     ---       #181
      00FF8CD2H   LINE      CODE     ---       #183
      00FF8CDCH   LINE      CODE     ---       #185
      00FF8D03H   LINE      CODE     ---       #186
      00FF8D06H   LINE      CODE     ---       #187
      00FF8D15H   LINE      CODE     ---       #189
      00FF8D3AH   LINE      CODE     ---       #190
      00FF8D3DH   LINE      CODE     ---       #195
      00FF8D3DH   LINE      CODE     ---       #197
      00FF8D3DH   LINE      CODE     ---       #199
      00FF8D3DH   LINE      CODE     ---       #201
      00FF8D47H   LINE      CODE     ---       #203
      00FF8D6EH   LINE      CODE     ---       #204
      00FF8D71H   LINE      CODE     ---       #205
      00FF8D80H   LINE      CODE     ---       #207
      00FF8DA5H   LINE      CODE     ---       #208
      00FF8DA7H   LINE      CODE     ---       #213
      00FF8DA7H   LINE      CODE     ---       #215
      00FF8DA7H   LINE      CODE     ---       #217
      00FF8DA7H   LINE      CODE     ---       #219
      00FF8DB1H   LINE      CODE     ---       #221
      00FF8DD8H   LINE      CODE     ---       #222
      00FF8DDAH   LINE      CODE     ---       #223
      00FF8DE6H   LINE      CODE     ---       #225
      00FF8E0BH   LINE      CODE     ---       #226
      00FF8E0BH   LINE      CODE     ---       #231
      00FF8E0BH   LINE      CODE     ---       #233
      00FF8E0BH   LINE      CODE     ---       #235
      00FF8E0BH   LINE      CODE     ---       #239
      00FF8E0BH   LINE      CODE     ---       #240
      00FF8E0BH   LINE      CODE     ---       #241
      ---         BLOCKEND  ---      ---       LVL=0

      00FF751AH   BLOCK     CODE     ---       LVL=0
      00011448H   SYMBOL    XDATA    INT       pin
      0001144AH   SYMBOL    XDATA    INT       dir
      00FF751AH   LINE      CODE     ---       #245
      00FF7526H   LINE      CODE     ---       #247
      00FF7566H   LINE      CODE     ---       #249
      00FF7566H   LINE      CODE     ---       #251
      00FF7572H   LINE      CODE     ---       #253
      00FF758BH   LINE      CODE     ---       #254
      00FF75A4H   LINE      CODE     ---       #255
      00FF75A7H   LINE      CODE     ---       #261
      00FF75B3H   LINE      CODE     ---       #263
      00FF75CCH   LINE      CODE     ---       #264
      00FF75E3H   LINE      CODE     ---       #265
      00FF75E6H   LINE      CODE     ---       #266
      00FF75F3H   LINE      CODE     ---       #268
      00FF760AH   LINE      CODE     ---       #269
      00FF7623H   LINE      CODE     ---       #270
      00FF7623H   LINE      CODE     ---       #272
      00FF7626H   LINE      CODE     ---       #274
      00FF7626H   LINE      CODE     ---       #276
L251 LINKER/LOCATER V4.66.93.0                                                        05/06/2025  18:54:37  PAGE 66


      00FF7632H   LINE      CODE     ---       #278
      00FF764BH   LINE      CODE     ---       #279
      00FF7664H   LINE      CODE     ---       #280
      00FF7667H   LINE      CODE     ---       #286
      00FF7673H   LINE      CODE     ---       #288
      00FF768CH   LINE      CODE     ---       #289
      00FF76A3H   LINE      CODE     ---       #290
      00FF76A6H   LINE      CODE     ---       #291
      00FF76B3H   LINE      CODE     ---       #293
      00FF76CAH   LINE      CODE     ---       #294
      00FF76E3H   LINE      CODE     ---       #295
      00FF76E3H   LINE      CODE     ---       #297
      00FF76E6H   LINE      CODE     ---       #299
      00FF76E6H   LINE      CODE     ---       #301
      00FF76F2H   LINE      CODE     ---       #303
      00FF770BH   LINE      CODE     ---       #304
      00FF7724H   LINE      CODE     ---       #305
      00FF7727H   LINE      CODE     ---       #311
      00FF7733H   LINE      CODE     ---       #313
      00FF774CH   LINE      CODE     ---       #314
      00FF7763H   LINE      CODE     ---       #315
      00FF7766H   LINE      CODE     ---       #316
      00FF7773H   LINE      CODE     ---       #318
      00FF778AH   LINE      CODE     ---       #319
      00FF77A3H   LINE      CODE     ---       #320
      00FF77A3H   LINE      CODE     ---       #322
      00FF77A6H   LINE      CODE     ---       #324
      00FF77A6H   LINE      CODE     ---       #326
      00FF77B2H   LINE      CODE     ---       #328
      00FF77CBH   LINE      CODE     ---       #329
      00FF77E4H   LINE      CODE     ---       #330
      00FF77E7H   LINE      CODE     ---       #336
      00FF77F3H   LINE      CODE     ---       #338
      00FF780CH   LINE      CODE     ---       #339
      00FF7823H   LINE      CODE     ---       #340
      00FF7826H   LINE      CODE     ---       #341
      00FF7833H   LINE      CODE     ---       #343
      00FF784AH   LINE      CODE     ---       #344
      00FF7863H   LINE      CODE     ---       #345
      00FF7863H   LINE      CODE     ---       #347
      00FF7866H   LINE      CODE     ---       #349
      00FF7866H   LINE      CODE     ---       #351
      00FF7872H   LINE      CODE     ---       #353
      00FF788BH   LINE      CODE     ---       #354
      00FF78A4H   LINE      CODE     ---       #355
      00FF78A7H   LINE      CODE     ---       #361
      00FF78B3H   LINE      CODE     ---       #363
      00FF78CCH   LINE      CODE     ---       #364
      00FF78E3H   LINE      CODE     ---       #365
      00FF78E6H   LINE      CODE     ---       #366
      00FF78F3H   LINE      CODE     ---       #368
      00FF790AH   LINE      CODE     ---       #369
      00FF7923H   LINE      CODE     ---       #370
      00FF7923H   LINE      CODE     ---       #372
      00FF7926H   LINE      CODE     ---       #374
      00FF7926H   LINE      CODE     ---       #376
      00FF7932H   LINE      CODE     ---       #378
      00FF794BH   LINE      CODE     ---       #379
      00FF7964H   LINE      CODE     ---       #380
      00FF7966H   LINE      CODE     ---       #386
      00FF7972H   LINE      CODE     ---       #388
      00FF798BH   LINE      CODE     ---       #389
      00FF79A2H   LINE      CODE     ---       #390
      00FF79A4H   LINE      CODE     ---       #391
      00FF79AEH   LINE      CODE     ---       #393
L251 LINKER/LOCATER V4.66.93.0                                                        05/06/2025  18:54:37  PAGE 67


      00FF79C5H   LINE      CODE     ---       #394
      00FF79DEH   LINE      CODE     ---       #395
      00FF79DEH   LINE      CODE     ---       #397
      00FF79DEH   LINE      CODE     ---       #399
      00FF79DEH   LINE      CODE     ---       #403
      00FF79DEH   LINE      CODE     ---       #404
      00FF79DEH   LINE      CODE     ---       #405
      ---         BLOCKEND  ---      ---       LVL=0

      00FFC68DH   BLOCK     CODE     ---       LVL=0
      000114CBH   SYMBOL    XDATA    INT       pin
      00FFC693H   BLOCK     CODE     NEAR LAB  LVL=1
      000114CDH   SYMBOL    XDATA    BYTE      status
      ---         BLOCKEND  ---      ---       LVL=1
      00FFC68DH   LINE      CODE     ---       #413
      00FFC693H   LINE      CODE     ---       #414
      00FFC693H   LINE      CODE     ---       #415
      00FFC698H   LINE      CODE     ---       #417
      00FFC6CFH   LINE      CODE     ---       #419
      00FFC6CFH   LINE      CODE     ---       #421
      00FFC6ECH   LINE      CODE     ---       #423
      00FFC6EFH   LINE      CODE     ---       #425
      00FFC6EFH   LINE      CODE     ---       #427
      00FFC70CH   LINE      CODE     ---       #429
      00FFC70EH   LINE      CODE     ---       #431
      00FFC70EH   LINE      CODE     ---       #433
      00FFC72BH   LINE      CODE     ---       #435
      00FFC72DH   LINE      CODE     ---       #437
      00FFC72DH   LINE      CODE     ---       #439
      00FFC74AH   LINE      CODE     ---       #441
      00FFC74CH   LINE      CODE     ---       #443
      00FFC74CH   LINE      CODE     ---       #445
      00FFC769H   LINE      CODE     ---       #447
      00FFC76BH   LINE      CODE     ---       #449
      00FFC76BH   LINE      CODE     ---       #451
      00FFC788H   LINE      CODE     ---       #453
      00FFC788H   LINE      CODE     ---       #455
      00FFC788H   LINE      CODE     ---       #459
      00FFC788H   LINE      CODE     ---       #460
      00FFC788H   LINE      CODE     ---       #462
      00FFC793H   LINE      CODE     ---       #463
      ---         BLOCKEND  ---      ---       LVL=0

      00FFA912H   BLOCK     CODE     ---       LVL=0
      000114CEH   SYMBOL    XDATA    INT       pin
      000114D0H   SYMBOL    XDATA    BYTE      dat
      00FFA912H   LINE      CODE     ---       #472
      00FFA91CH   LINE      CODE     ---       #474
      00FFA959H   LINE      CODE     ---       #476
      00FFA959H   LINE      CODE     ---       #478
      00FFA95FH   LINE      CODE     ---       #480
      00FFA976H   LINE      CODE     ---       #481
      00FFA979H   LINE      CODE     ---       #484
      00FFA992H   LINE      CODE     ---       #485
      00FFA992H   LINE      CODE     ---       #487
      00FFA995H   LINE      CODE     ---       #489
      00FFA995H   LINE      CODE     ---       #491
      00FFA99BH   LINE      CODE     ---       #493
      00FFA9B2H   LINE      CODE     ---       #494
      00FFA9B5H   LINE      CODE     ---       #497
      00FFA9CEH   LINE      CODE     ---       #498
      00FFA9CEH   LINE      CODE     ---       #500
      00FFA9D1H   LINE      CODE     ---       #502
      00FFA9D1H   LINE      CODE     ---       #504
      00FFA9D7H   LINE      CODE     ---       #506
L251 LINKER/LOCATER V4.66.93.0                                                        05/06/2025  18:54:37  PAGE 68


      00FFA9EEH   LINE      CODE     ---       #507
      00FFA9F1H   LINE      CODE     ---       #510
      00FFAA0AH   LINE      CODE     ---       #511
      00FFAA0AH   LINE      CODE     ---       #513
      00FFAA0DH   LINE      CODE     ---       #515
      00FFAA0DH   LINE      CODE     ---       #517
      00FFAA13H   LINE      CODE     ---       #519
      00FFAA2AH   LINE      CODE     ---       #520
      00FFAA2DH   LINE      CODE     ---       #523
      00FFAA46H   LINE      CODE     ---       #524
      00FFAA46H   LINE      CODE     ---       #526
      00FFAA48H   LINE      CODE     ---       #528
      00FFAA48H   LINE      CODE     ---       #530
      00FFAA4EH   LINE      CODE     ---       #532
      00FFAA65H   LINE      CODE     ---       #533
      00FFAA67H   LINE      CODE     ---       #536
      00FFAA80H   LINE      CODE     ---       #537
      00FFAA80H   LINE      CODE     ---       #539
      00FFAA82H   LINE      CODE     ---       #541
      00FFAA82H   LINE      CODE     ---       #543
      00FFAA88H   LINE      CODE     ---       #545
      00FFAA9FH   LINE      CODE     ---       #546
      00FFAAA1H   LINE      CODE     ---       #549
      00FFAABAH   LINE      CODE     ---       #550
      00FFAABAH   LINE      CODE     ---       #552
      00FFAABAH   LINE      CODE     ---       #554
      00FFAABAH   LINE      CODE     ---       #558
      00FFAABAH   LINE      CODE     ---       #559
      00FFAABAH   LINE      CODE     ---       #560
      ---         BLOCKEND  ---      ---       LVL=0
      000114EEH   SYMBOL    XDATA    INT       pin

      00FFB3FFH   BLOCK     CODE     ---       LVL=0
      000114F0H   SYMBOL    XDATA    INT       pin
      00FFB3FFH   LINE      CODE     ---       #587
      00FFB405H   LINE      CODE     ---       #589
      00FFB442H   LINE      CODE     ---       #591
      00FFB442H   LINE      CODE     ---       #593
      00FFB459H   LINE      CODE     ---       #594
      00FFB472H   LINE      CODE     ---       #596
      00FFB475H   LINE      CODE     ---       #598
      00FFB475H   LINE      CODE     ---       #600
      00FFB48CH   LINE      CODE     ---       #601
      00FFB4A5H   LINE      CODE     ---       #603
      00FFB4A8H   LINE      CODE     ---       #605
      00FFB4A8H   LINE      CODE     ---       #607
      00FFB4BFH   LINE      CODE     ---       #608
      00FFB4D8H   LINE      CODE     ---       #610
      00FFB4DBH   LINE      CODE     ---       #612
      00FFB4DBH   LINE      CODE     ---       #614
      00FFB4F2H   LINE      CODE     ---       #615
      00FFB50BH   LINE      CODE     ---       #617
      00FFB50DH   LINE      CODE     ---       #619
      00FFB50DH   LINE      CODE     ---       #621
      00FFB524H   LINE      CODE     ---       #622
      00FFB53DH   LINE      CODE     ---       #624
      00FFB53FH   LINE      CODE     ---       #626
      00FFB53FH   LINE      CODE     ---       #628
      00FFB556H   LINE      CODE     ---       #629
      00FFB56FH   LINE      CODE     ---       #631
      00FFB56FH   LINE      CODE     ---       #633
      00FFB56FH   LINE      CODE     ---       #637
      00FFB56FH   LINE      CODE     ---       #638
      00FFB56FH   LINE      CODE     ---       #639
      ---         BLOCKEND  ---      ---       LVL=0
L251 LINKER/LOCATER V4.66.93.0                                                        05/06/2025  18:54:37  PAGE 69



      00FFCC55H   BLOCK     CODE     ---       LVL=0
      00011332H   SYMBOL    XDATA    INT       pin
      00011334H   SYMBOL    XDATA    INT       dir
      00011336H   SYMBOL    XDATA    BYTE      dat
      00011337H   SYMBOL    XDATA    INT       mode
      00FFCC55H   LINE      CODE     ---       #650
      00FFCC6BH   LINE      CODE     ---       #654
      00FFCC77H   LINE      CODE     ---       #656
      00FFCC84H   LINE      CODE     ---       #657
      00FFCC93H   LINE      CODE     ---       #658
      00FFCC96H   LINE      CODE     ---       #659
      00FFCCA0H   LINE      CODE     ---       #661
      00FFCCAAH   LINE      CODE     ---       #663
      00FFCCB3H   LINE      CODE     ---       #664
      00FFCCB5H   LINE      CODE     ---       #667
      00FFCCC0H   LINE      CODE     ---       #668
      00FFCCCFH   LINE      CODE     ---       #669
      00FFCCCFH   LINE      CODE     ---       #670
      00FFCCD1H   LINE      CODE     ---       #671
      00FFCCDDH   LINE      CODE     ---       #673
      00FFCCE9H   LINE      CODE     ---       #675
      00FFCCF6H   LINE      CODE     ---       #676
      00FFCD03H   LINE      CODE     ---       #677
      00FFCD05H   LINE      CODE     ---       #678
      00FFCD11H   LINE      CODE     ---       #680
      00FFCD1EH   LINE      CODE     ---       #681
      00FFCD1EH   LINE      CODE     ---       #683
      00FFCD2BH   LINE      CODE     ---       #684
      ---         BLOCKEND  ---      ---       LVL=0

      ---         MODULE    ---      ---       zf_driver_pit
      00FF8568H   PUBLIC    CODE     ---       pit_init
      000000D0H   SFRSYM    DATA     BYTE      PSW
      0000009DH   SFRSYM    DATA     BYTE      IRCBAND
      00000097H   SFRSYM    DATA     BYTE      AUXR2
      000000EFH   SFRSYM    DATA     BYTE      AUXINTIF
      000000FDH   SFRSYM    DATA     BYTE      S4CON
      000000ACH   SFRSYM    DATA     BYTE      S3CON
      0000009AH   SFRSYM    DATA     BYTE      S2CON
      000000B7H   SFRSYM    DATA     BYTE      IPH
      000000CDH   SFRSYM    DATA     BYTE      SPSTAT
      000000DDH   SFRSYM    DATA     BYTE      T4T3M
      000000C1H   SFRSYM    DATA     BYTE      WDT_CONTR
      00000088H.6 SFRSYM    DATA     BIT       TR1
      00000088H.4 SFRSYM    DATA     BIT       TR0
      000000D3H   SFRSYM    DATA     BYTE      T4L
      000000D5H   SFRSYM    DATA     BYTE      T3L
      000000D7H   SFRSYM    DATA     BYTE      T2L
      0000008BH   SFRSYM    DATA     BYTE      TL1
      0000008AH   SFRSYM    DATA     BYTE      TL0
      000000D2H   SFRSYM    DATA     BYTE      T4H
      000000D4H   SFRSYM    DATA     BYTE      T3H
      000000D6H   SFRSYM    DATA     BYTE      T2H
      0000008DH   SFRSYM    DATA     BYTE      TH1
      0000008CH   SFRSYM    DATA     BYTE      TH0
      000000DFH   SFRSYM    DATA     BYTE      IP3
      000000F4H   SFRSYM    DATA     BYTE      USBCON
      000000B5H   SFRSYM    DATA     BYTE      IP2
      000000FFH   SFRSYM    DATA     BYTE      RSTCFG
      000000A8H.3 SFRSYM    DATA     BIT       ET1
      000000A8H.1 SFRSYM    DATA     BIT       ET0
      000000C7H   SFRSYM    DATA     BYTE      IAP_CONTR
      0000008EH   SFRSYM    DATA     BYTE      AUXR
      000000AFH   SFRSYM    DATA     BYTE      IE2
L251 LINKER/LOCATER V4.66.93.0                                                        05/06/2025  18:54:37  PAGE 70


      00000088H   SFRSYM    DATA     BYTE      TCON
      00000089H   SFRSYM    DATA     BYTE      TMOD
      00000098H   SFRSYM    DATA     BYTE      SCON
      00000087H   SFRSYM    DATA     BYTE      PCON
      000000BCH   SFRSYM    DATA     BYTE      ADC_CONTR
      000000D1H   SFRSYM    DATA     BYTE      PSW1
      000000E7H   SFRSYM    DATA     BYTE      CMPCR2
      000000E6H   SFRSYM    DATA     BYTE      CMPCR1
      000000DEH   SFRSYM    DATA     BYTE      ADCCFG
      000000B8H   SFRSYM    DATA     BYTE      IP
      0000008FH   SFRSYM    DATA     BYTE      INTCLKO
      000000EEH   SFRSYM    DATA     BYTE      IP3H
      000000B6H   SFRSYM    DATA     BYTE      IP2H
      000000BFH   SFRSYM    DATA     BYTE      P_SW4
      000000A8H   SFRSYM    DATA     BYTE      IE
      000000BBH   SFRSYM    DATA     BYTE      P_SW3
      000000BAH   SFRSYM    DATA     BYTE      P_SW2
      000000A2H   SFRSYM    DATA     BYTE      P_SW1
      000000CEH   SFRSYM    DATA     BYTE      SPCTL
      000000F8H   SFRSYM    DATA     BYTE      P7
      000000E8H   SFRSYM    DATA     BYTE      P6
      000000C8H   SFRSYM    DATA     BYTE      P5
      000000C0H   SFRSYM    DATA     BYTE      P4
      000000ABH   SFRSYM    DATA     BYTE      WKTCH
      000000B0H   SFRSYM    DATA     BYTE      P3
      000000A0H   SFRSYM    DATA     BYTE      P2
      00000090H   SFRSYM    DATA     BYTE      P1
      00000080H   SFRSYM    DATA     BYTE      P0

      00FF8568H   BLOCK     CODE     ---       LVL=0
      00010FC2H   SYMBOL    XDATA    INT       pit_n
      00010FC4H   SYMBOL    XDATA    DWORD     period
      00FF8578H   BLOCK     CODE     NEAR LAB  LVL=1
      00010FC8H   SYMBOL    XDATA    BYTE      freq_div
      00010FC9H   SYMBOL    XDATA    WORD      period_temp
      00010FCBH   SYMBOL    XDATA    WORD      temp
      ---         BLOCKEND  ---      ---       LVL=1
      00FF8568H   LINE      CODE     ---       #50
      00FF8578H   LINE      CODE     ---       #51
      00FF8578H   LINE      CODE     ---       #52
      00FF857DH   LINE      CODE     ---       #53
      00FF8585H   LINE      CODE     ---       #54
      00FF858DH   LINE      CODE     ---       #57
      00FF85A6H   LINE      CODE     ---       #60
      00FF85BEH   LINE      CODE     ---       #62
      00FF85C8H   LINE      CODE     ---       #64
      00FF85CBH   LINE      CODE     ---       #65
      00FF85CEH   LINE      CODE     ---       #66
      00FF85DAH   LINE      CODE     ---       #68
      00FF85DDH   LINE      CODE     ---       #69
      00FF85E0H   LINE      CODE     ---       #70
      00FF85ECH   LINE      CODE     ---       #72
      00FF85EFH   LINE      CODE     ---       #73
      00FF85F2H   LINE      CODE     ---       #74
      00FF85FEH   LINE      CODE     ---       #76
      00FF8601H   LINE      CODE     ---       #77
      00FF8604H   LINE      CODE     ---       #78
      00FF8610H   LINE      CODE     ---       #80
      00FF8613H   LINE      CODE     ---       #81
      00FF8616H   LINE      CODE     ---       #82
      00FF8625H   LINE      CODE     ---       #84
      00FF8635H   LINE      CODE     ---       #85
      00FF8637H   LINE      CODE     ---       #91
      00FF8641H   LINE      CODE     ---       #93
      00FF8644H   LINE      CODE     ---       #94
L251 LINKER/LOCATER V4.66.93.0                                                        05/06/2025  18:54:37  PAGE 71


      00FF8646H   LINE      CODE     ---       #95
      00FF8652H   LINE      CODE     ---       #97
      00FF8655H   LINE      CODE     ---       #98
      00FF8657H   LINE      CODE     ---       #99
      00FF8663H   LINE      CODE     ---       #101
      00FF8666H   LINE      CODE     ---       #102
      00FF8668H   LINE      CODE     ---       #103
      00FF8674H   LINE      CODE     ---       #105
      00FF8677H   LINE      CODE     ---       #106
      00FF8679H   LINE      CODE     ---       #107
      00FF8685H   LINE      CODE     ---       #109
      00FF8688H   LINE      CODE     ---       #110
      00FF868AH   LINE      CODE     ---       #111
      00FF8696H   LINE      CODE     ---       #113
      00FF86A6H   LINE      CODE     ---       #114
      00FF86A6H   LINE      CODE     ---       #118
      00FF86C4H   LINE      CODE     ---       #119
      00FF86E1H   LINE      CODE     ---       #121
      00FF86F3H   LINE      CODE     ---       #123
      00FF86FDH   LINE      CODE     ---       #125
      00FF870CH   LINE      CODE     ---       #126
      00FF8710H   LINE      CODE     ---       #127
      00FF8718H   LINE      CODE     ---       #128
      00FF8724H   LINE      CODE     ---       #129
      00FF8726H   LINE      CODE     ---       #130
      00FF8728H   LINE      CODE     ---       #131
      00FF872BH   LINE      CODE     ---       #132
      00FF8737H   LINE      CODE     ---       #134
      00FF8746H   LINE      CODE     ---       #135
      00FF874AH   LINE      CODE     ---       #136
      00FF8752H   LINE      CODE     ---       #137
      00FF875EH   LINE      CODE     ---       #138
      00FF8760H   LINE      CODE     ---       #139
      00FF8762H   LINE      CODE     ---       #140
      00FF8765H   LINE      CODE     ---       #141
      00FF8771H   LINE      CODE     ---       #143
      00FF8780H   LINE      CODE     ---       #144
      00FF8788H   LINE      CODE     ---       #145
      00FF8794H   LINE      CODE     ---       #146
      00FF8797H   LINE      CODE     ---       #147
      00FF879AH   LINE      CODE     ---       #148
      00FF879DH   LINE      CODE     ---       #149
      00FF87A9H   LINE      CODE     ---       #151
      00FF87B8H   LINE      CODE     ---       #152
      00FF87C0H   LINE      CODE     ---       #153
      00FF87CCH   LINE      CODE     ---       #154
      00FF87CFH   LINE      CODE     ---       #155
      00FF87D2H   LINE      CODE     ---       #156
      00FF87D5H   LINE      CODE     ---       #157
      00FF87E1H   LINE      CODE     ---       #159
      00FF87F0H   LINE      CODE     ---       #160
      00FF87F8H   LINE      CODE     ---       #161
      00FF8804H   LINE      CODE     ---       #162
      00FF8807H   LINE      CODE     ---       #163
      00FF880AH   LINE      CODE     ---       #164
      00FF880CH   LINE      CODE     ---       #165
      00FF8818H   LINE      CODE     ---       #167
      00FF8827H   LINE      CODE     ---       #168
      00FF8838H   LINE      CODE     ---       #169
      00FF884DH   LINE      CODE     ---       #170
      00FF885AH   LINE      CODE     ---       #172
      ---         BLOCKEND  ---      ---       LVL=0

      ---         MODULE    ---      ---       zf_driver_pwm
      00FFADEFH   PUBLIC    CODE     ---       pwm_set_duty
L251 LINKER/LOCATER V4.66.93.0                                                        05/06/2025  18:54:37  PAGE 72


      00FF5A58H   PUBLIC    CODE     ---       pwm_init
      00FFEF1BH   PUBLIC    HCONST   ---       PWM_PSCR_ADDR
      00FFEF23H   PUBLIC    HCONST   ---       PWM_CCR_ADDR
      00FFEF43H   PUBLIC    HCONST   ---       PWM_ARR_ADDR
      00FFEF4BH   PUBLIC    HCONST   ---       PWM_CCER_ADDR
      00FFEF5BH   PUBLIC    HCONST   ---       PWM_CCMR_ADDR
      00010C5AH   PUBLIC    XDATA    BYTE      ?pwm_set_freq?BYTE
      00010CCFH   PUBLIC    XDATA    BYTE      ?pwm_init?BYTE
      000000D0H   SFRSYM    DATA     BYTE      PSW
      0000009DH   SFRSYM    DATA     BYTE      IRCBAND
      00000097H   SFRSYM    DATA     BYTE      AUXR2
      000000EFH   SFRSYM    DATA     BYTE      AUXINTIF
      000000FDH   SFRSYM    DATA     BYTE      S4CON
      000000ACH   SFRSYM    DATA     BYTE      S3CON
      0000009AH   SFRSYM    DATA     BYTE      S2CON
      000000B7H   SFRSYM    DATA     BYTE      IPH
      000000CDH   SFRSYM    DATA     BYTE      SPSTAT
      000000DDH   SFRSYM    DATA     BYTE      T4T3M
      000000C1H   SFRSYM    DATA     BYTE      WDT_CONTR
      000000DFH   SFRSYM    DATA     BYTE      IP3
      000000F4H   SFRSYM    DATA     BYTE      USBCON
      000000B5H   SFRSYM    DATA     BYTE      IP2
      000000FFH   SFRSYM    DATA     BYTE      RSTCFG
      000000C7H   SFRSYM    DATA     BYTE      IAP_CONTR
      0000008EH   SFRSYM    DATA     BYTE      AUXR
      000000AFH   SFRSYM    DATA     BYTE      IE2
      00000088H   SFRSYM    DATA     BYTE      TCON
      00000089H   SFRSYM    DATA     BYTE      TMOD
      00000098H   SFRSYM    DATA     BYTE      SCON
      00000087H   SFRSYM    DATA     BYTE      PCON
      000000BCH   SFRSYM    DATA     BYTE      ADC_CONTR
      000000D1H   SFRSYM    DATA     BYTE      PSW1
      000000E7H   SFRSYM    DATA     BYTE      CMPCR2
      000000E6H   SFRSYM    DATA     BYTE      CMPCR1
      000000DEH   SFRSYM    DATA     BYTE      ADCCFG
      000000B8H   SFRSYM    DATA     BYTE      IP
      0000008FH   SFRSYM    DATA     BYTE      INTCLKO
      000000EEH   SFRSYM    DATA     BYTE      IP3H
      000000B6H   SFRSYM    DATA     BYTE      IP2H
      000000BFH   SFRSYM    DATA     BYTE      P_SW4
      000000A8H   SFRSYM    DATA     BYTE      IE
      000000BBH   SFRSYM    DATA     BYTE      P_SW3
      000000BAH   SFRSYM    DATA     BYTE      P_SW2
      000000A2H   SFRSYM    DATA     BYTE      P_SW1
      000000CEH   SFRSYM    DATA     BYTE      SPCTL
      000000F8H   SFRSYM    DATA     BYTE      P7
      000000E8H   SFRSYM    DATA     BYTE      P6
      000000C8H   SFRSYM    DATA     BYTE      P5
      000000C0H   SFRSYM    DATA     BYTE      P4
      000000ABH   SFRSYM    DATA     BYTE      WKTCH
      000000B0H   SFRSYM    DATA     BYTE      P3
      000000A0H   SFRSYM    DATA     BYTE      P2
      00000090H   SFRSYM    DATA     BYTE      P1
      00000080H   SFRSYM    DATA     BYTE      P0
      00010C5AH   SYMBOL    XDATA    INT       pin
      00010C5CH   SYMBOL    XDATA    DWORD     freq
      00010C60H   SYMBOL    XDATA    DWORD     duty
      00010C64H   SYMBOL    XDATA    DWORD     match_temp
      00010C68H   SYMBOL    XDATA    DWORD     period_temp
      00010C6CH   SYMBOL    XDATA    WORD      freq_div

      00FFADEFH   BLOCK     CODE     ---       LVL=0
      00010D2FH   SYMBOL    XDATA    INT       pin
      00010D31H   SYMBOL    XDATA    DWORD     duty
      00FFADFFH   BLOCK     CODE     NEAR LAB  LVL=1
L251 LINKER/LOCATER V4.66.93.0                                                        05/06/2025  18:54:37  PAGE 73


      00010D35H   SYMBOL    XDATA    DWORD     match_temp
      00010D39H   SYMBOL    XDATA    DWORD     arr
      ---         BLOCKEND  ---      ---       LVL=1
      00FFADEFH   LINE      CODE     ---       #132
      00FFADFFH   LINE      CODE     ---       #133
      00FFADFFH   LINE      CODE     ---       #135
      00FFAE69H   LINE      CODE     ---       #140
      00FFAE79H   LINE      CODE     ---       #142
      00FFAEB2H   LINE      CODE     ---       #143
      00FFAEB4H   LINE      CODE     ---       #146
      00FFAECAH   LINE      CODE     ---       #147
      00FFAECAH   LINE      CODE     ---       #150
      00FFAF20H   LINE      CODE     ---       #151
      00FFAF76H   LINE      CODE     ---       #153
      ---         BLOCKEND  ---      ---       LVL=0

      00FF5A58H   BLOCK     CODE     ---       LVL=0
      00010CCFH   SYMBOL    XDATA    INT       pin
      00010CD1H   SYMBOL    XDATA    DWORD     freq
      00010CD5H   SYMBOL    XDATA    DWORD     duty
      00FF5A68H   BLOCK     CODE     NEAR LAB  LVL=1
      00010CD9H   SYMBOL    XDATA    WORD      match_temp
      00010CDBH   SYMBOL    XDATA    DWORD     period_temp
      00010CDFH   SYMBOL    XDATA    WORD      freq_div
      ---         BLOCKEND  ---      ---       LVL=1
      00FF5A58H   LINE      CODE     ---       #164
      00FF5A68H   LINE      CODE     ---       #165
      00FF5A68H   LINE      CODE     ---       #167
      00FF5A70H   LINE      CODE     ---       #168
      00FF5A7CH   LINE      CODE     ---       #169
      00FF5A84H   LINE      CODE     ---       #174
      00FF5A9AH   LINE      CODE     ---       #178
      00FF5ABBH   LINE      CODE     ---       #179
      00FF5ADCH   LINE      CODE     ---       #180
      00FF5AFDH   LINE      CODE     ---       #182
      00FF5B0DH   LINE      CODE     ---       #184
      00FF5B42H   LINE      CODE     ---       #185
      00FF5B44H   LINE      CODE     ---       #188
      00FF5B56H   LINE      CODE     ---       #189
      00FF5B56H   LINE      CODE     ---       #191
      00FF5B8AH   LINE      CODE     ---       #192
      00FF5BBCH   LINE      CODE     ---       #194
      00FF5BF2H   LINE      CODE     ---       #195
      00FF5C28H   LINE      CODE     ---       #197
      00FF5C7CH   LINE      CODE     ---       #198
      00FF5CCEH   LINE      CODE     ---       #200
      00FF5CE1H   LINE      CODE     ---       #202
      00FF5D2AH   LINE      CODE     ---       #203
      00FF5D69H   LINE      CODE     ---       #204
      00FF5DF9H   LINE      CODE     ---       #206
      00FF5E06H   LINE      CODE     ---       #207
      00FF5E13H   LINE      CODE     ---       #208
      00FF5E16H   LINE      CODE     ---       #209
      00FF5E2DH   LINE      CODE     ---       #211
      00FF5E76H   LINE      CODE     ---       #212
      00FF5EB5H   LINE      CODE     ---       #213
      00FF5F2FH   LINE      CODE     ---       #215
      00FF5F3CH   LINE      CODE     ---       #216
      00FF5F49H   LINE      CODE     ---       #217
      00FF5F49H   LINE      CODE     ---       #219
      00FF5F98H   LINE      CODE     ---       #220
      00FF5FE7H   LINE      CODE     ---       #221
      ---         BLOCKEND  ---      ---       LVL=0

      ---         MODULE    ---      ---       zf_driver_soft_iic
L251 LINKER/LOCATER V4.66.93.0                                                        05/06/2025  18:54:37  PAGE 74


      00010E12H   PUBLIC    XDATA    BYTE      ?soft_iic_write_8bit_array?BYTE
      00010E1EH   PUBLIC    XDATA    BYTE      ?soft_iic_write_16bit_array?BYTE
      00010D90H   PUBLIC    XDATA    BYTE      ?soft_iic_write_8bit_registers?BYTE
      00010D3DH   PUBLIC    XDATA    BYTE      ?soft_iic_write_16bit_registers?BYTE
      00010E2AH   PUBLIC    XDATA    BYTE      ?soft_iic_read_8bit_array?BYTE
      00010E36H   PUBLIC    XDATA    BYTE      ?soft_iic_read_16bit_array?BYTE
      00010D9DH   PUBLIC    XDATA    BYTE      ?soft_iic_read_8bit_registers?BYTE
      00010D4BH   PUBLIC    XDATA    BYTE      ?soft_iic_read_16bit_registers?BYTE
      00010C6EH   PUBLIC    XDATA    BYTE      ?soft_iic_transfer_8bit_array?BYTE
      00010C82H   PUBLIC    XDATA    BYTE      ?soft_iic_transfer_16bit_array?BYTE
      00010DAAH   PUBLIC    XDATA    BYTE      ?soft_iic_init?BYTE
      000000D0H   SFRSYM    DATA     BYTE      PSW
      0000009DH   SFRSYM    DATA     BYTE      IRCBAND
      00000097H   SFRSYM    DATA     BYTE      AUXR2
      000000EFH   SFRSYM    DATA     BYTE      AUXINTIF
      000000FDH   SFRSYM    DATA     BYTE      S4CON
      000000ACH   SFRSYM    DATA     BYTE      S3CON
      0000009AH   SFRSYM    DATA     BYTE      S2CON
      000000B7H   SFRSYM    DATA     BYTE      IPH
      000000CDH   SFRSYM    DATA     BYTE      SPSTAT
      000000DDH   SFRSYM    DATA     BYTE      T4T3M
      000000C1H   SFRSYM    DATA     BYTE      WDT_CONTR
      000000DFH   SFRSYM    DATA     BYTE      IP3
      000000F4H   SFRSYM    DATA     BYTE      USBCON
      000000B5H   SFRSYM    DATA     BYTE      IP2
      000000FFH   SFRSYM    DATA     BYTE      RSTCFG
      000000C7H   SFRSYM    DATA     BYTE      IAP_CONTR
      0000008EH   SFRSYM    DATA     BYTE      AUXR
      000000AFH   SFRSYM    DATA     BYTE      IE2
      00000088H   SFRSYM    DATA     BYTE      TCON
      00000089H   SFRSYM    DATA     BYTE      TMOD
      00000098H   SFRSYM    DATA     BYTE      SCON
      00000087H   SFRSYM    DATA     BYTE      PCON
      000000BCH   SFRSYM    DATA     BYTE      ADC_CONTR
      000000D1H   SFRSYM    DATA     BYTE      PSW1
      000000E7H   SFRSYM    DATA     BYTE      CMPCR2
      000000E6H   SFRSYM    DATA     BYTE      CMPCR1
      000000DEH   SFRSYM    DATA     BYTE      ADCCFG
      000000B8H   SFRSYM    DATA     BYTE      IP
      0000008FH   SFRSYM    DATA     BYTE      INTCLKO
      000000EEH   SFRSYM    DATA     BYTE      IP3H
      000000B6H   SFRSYM    DATA     BYTE      IP2H
      000000BFH   SFRSYM    DATA     BYTE      P_SW4
      000000A8H   SFRSYM    DATA     BYTE      IE
      000000BBH   SFRSYM    DATA     BYTE      P_SW3
      000000BAH   SFRSYM    DATA     BYTE      P_SW2
      000000A2H   SFRSYM    DATA     BYTE      P_SW1
      000000CEH   SFRSYM    DATA     BYTE      SPCTL
      000000F8H   SFRSYM    DATA     BYTE      P7
      000000E8H   SFRSYM    DATA     BYTE      P6
      000000C8H   SFRSYM    DATA     BYTE      P5
      000000C0H   SFRSYM    DATA     BYTE      P4
      000000ABH   SFRSYM    DATA     BYTE      WKTCH
      000000B0H   SFRSYM    DATA     BYTE      P3
      000000A0H   SFRSYM    DATA     BYTE      P2
      00000090H   SFRSYM    DATA     BYTE      P1
      00000080H   SFRSYM    DATA     BYTE      P0
      000112DAH   SYMBOL    XDATA    DWORD     delay
      000112DEH   SYMBOL    XDATA    DWORD     count
      0001144CH   SYMBOL    XDATA    ---       soft_iic_obj
      00011450H   SYMBOL    XDATA    ---       soft_iic_obj
      000113CDH   SYMBOL    XDATA    ---       soft_iic_obj
      000113D1H   SYMBOL    XDATA    BYTE      ack
      000113D2H   SYMBOL    XDATA    ---       soft_iic_obj
      000113D6H   SYMBOL    XDATA    BYTE      temp
L251 LINKER/LOCATER V4.66.93.0                                                        05/06/2025  18:54:37  PAGE 75


      00011367H   SYMBOL    XDATA    ---       soft_iic_obj
      0001136BH   SYMBOL    XDATA    BYTE      dat
      0001136CH   SYMBOL    XDATA    BYTE      temp
      00011339H   SYMBOL    XDATA    ---       soft_iic_obj
      0001133DH   SYMBOL    XDATA    BYTE      ack
      0001133EH   SYMBOL    XDATA    BYTE      dat
      0001133FH   SYMBOL    XDATA    BYTE      temp
      000113D7H   SYMBOL    XDATA    ---       soft_iic_obj
      000113DBH   SYMBOL    XDATA    BYTE      dat
      00010E12H   SYMBOL    XDATA    ---       soft_iic_obj
      00010E16H   SYMBOL    XDATA    ---       dat
      00010E1AH   SYMBOL    XDATA    DWORD     len
      0001136DH   SYMBOL    XDATA    ---       soft_iic_obj
      00011371H   SYMBOL    XDATA    WORD      dat
      00010E1EH   SYMBOL    XDATA    ---       soft_iic_obj
      00010E22H   SYMBOL    XDATA    ---       dat
      00010E26H   SYMBOL    XDATA    DWORD     len
      00011373H   SYMBOL    XDATA    ---       soft_iic_obj
      00011377H   SYMBOL    XDATA    BYTE      register_name
      00011378H   SYMBOL    XDATA    BYTE      dat
      00010D90H   SYMBOL    XDATA    ---       soft_iic_obj
      00010D94H   SYMBOL    XDATA    BYTE      register_name
      00010D95H   SYMBOL    XDATA    ---       dat
      00010D99H   SYMBOL    XDATA    DWORD     len
      000112E2H   SYMBOL    XDATA    ---       soft_iic_obj
      000112E6H   SYMBOL    XDATA    WORD      register_name
      000112E8H   SYMBOL    XDATA    WORD      dat
      00010D3DH   SYMBOL    XDATA    ---       soft_iic_obj
      00010D41H   SYMBOL    XDATA    WORD      register_name
      00010D43H   SYMBOL    XDATA    ---       dat
      00010D47H   SYMBOL    XDATA    DWORD     len
      000113DCH   SYMBOL    XDATA    ---       soft_iic_obj
      000113E0H   SYMBOL    XDATA    BYTE      temp
      00010E2AH   SYMBOL    XDATA    ---       soft_iic_obj
      00010E2EH   SYMBOL    XDATA    ---       dat
      00010E32H   SYMBOL    XDATA    DWORD     len
      00011379H   SYMBOL    XDATA    ---       soft_iic_obj
      0001137DH   SYMBOL    XDATA    WORD      temp
      00010E36H   SYMBOL    XDATA    ---       soft_iic_obj
      00010E3AH   SYMBOL    XDATA    ---       dat
      00010E3EH   SYMBOL    XDATA    DWORD     len
      0001137FH   SYMBOL    XDATA    ---       soft_iic_obj
      00011383H   SYMBOL    XDATA    BYTE      register_name
      00011384H   SYMBOL    XDATA    BYTE      temp
      00010D9DH   SYMBOL    XDATA    ---       soft_iic_obj
      00010DA1H   SYMBOL    XDATA    BYTE      register_name
      00010DA2H   SYMBOL    XDATA    ---       dat
      00010DA6H   SYMBOL    XDATA    DWORD     len
      000112EAH   SYMBOL    XDATA    ---       soft_iic_obj
      000112EEH   SYMBOL    XDATA    WORD      register_name
      000112F0H   SYMBOL    XDATA    WORD      temp
      00010D4BH   SYMBOL    XDATA    ---       soft_iic_obj
      00010D4FH   SYMBOL    XDATA    WORD      register_name
      00010D51H   SYMBOL    XDATA    ---       dat
      00010D55H   SYMBOL    XDATA    DWORD     len
      00010C6EH   SYMBOL    XDATA    ---       soft_iic_obj
      00010C72H   SYMBOL    XDATA    ---       write_data
      00010C76H   SYMBOL    XDATA    DWORD     write_len
      00010C7AH   SYMBOL    XDATA    ---       read_data
      00010C7EH   SYMBOL    XDATA    DWORD     read_len
      00010C82H   SYMBOL    XDATA    ---       soft_iic_obj
      00010C86H   SYMBOL    XDATA    ---       write_data
      00010C8AH   SYMBOL    XDATA    DWORD     write_len
      00010C8EH   SYMBOL    XDATA    ---       read_data
      00010C92H   SYMBOL    XDATA    DWORD     read_len
L251 LINKER/LOCATER V4.66.93.0                                                        05/06/2025  18:54:37  PAGE 76


      00011385H   SYMBOL    XDATA    ---       soft_iic_obj
      00011389H   SYMBOL    XDATA    BYTE      register_name
      0001138AH   SYMBOL    XDATA    BYTE      dat
      0001138BH   SYMBOL    XDATA    ---       soft_iic_obj
      0001138FH   SYMBOL    XDATA    BYTE      register_name
      00011390H   SYMBOL    XDATA    BYTE      temp
      00010DAAH   SYMBOL    XDATA    ---       soft_iic_obj
      00010DAEH   SYMBOL    XDATA    BYTE      addr
      00010DAFH   SYMBOL    XDATA    DWORD     delay
      00010DB3H   SYMBOL    XDATA    INT       scl_pin
      00010DB5H   SYMBOL    XDATA    INT       sda_pin

      ---         MODULE    ---      ---       zf_driver_spi
      00FFE7F4H   PUBLIC    CODE     ---       spi_write_8bit_register
      00FFE91AH   PUBLIC    CODE     ---       spi_write_8bit
      00FF79DFH   PUBLIC    CODE     ---       spi_init
      00FFDEE6H   PUBLIC    CODE     ---       spi_read_8bit_registers
      00FFE731H   PUBLIC    CODE     ---       spi_write_16bit
      00FFDFB9H   PUBLIC    CODE     ---       spi_read_dat
      00FFE197H   PUBLIC    CODE     ---       spi_write_8bit_registers
      00FFE496H   PUBLIC    CODE     ---       spi_write_dat
      0001117AH   PUBLIC    XDATA    BYTE      ?spi_write_8bit_array?BYTE
      00011184H   PUBLIC    XDATA    BYTE      ?spi_write_16bit_array?BYTE
      00010FCDH   PUBLIC    XDATA    BYTE      ?spi_write_8bit_registers?BYTE
      00010E42H   PUBLIC    XDATA    BYTE      ?spi_write_16bit_registers?BYTE
      0001118EH   PUBLIC    XDATA    BYTE      ?spi_read_8bit_array?BYTE
      00011198H   PUBLIC    XDATA    BYTE      ?spi_read_16bit_array?BYTE
      00010FD8H   PUBLIC    XDATA    BYTE      ?spi_read_8bit_registers?BYTE
      00010E4EH   PUBLIC    XDATA    BYTE      ?spi_read_16bit_registers?BYTE
      00010D59H   PUBLIC    XDATA    BYTE      ?spi_transfer_8bit?BYTE
      00010D67H   PUBLIC    XDATA    BYTE      ?spi_transfer_16bit?BYTE
      00010C96H   PUBLIC    XDATA    BYTE      ?spi_init?BYTE
      000000CFH   SFRSYM    DATA     BYTE      SPDAT
      000000D0H   SFRSYM    DATA     BYTE      PSW
      0000009DH   SFRSYM    DATA     BYTE      IRCBAND
      00000097H   SFRSYM    DATA     BYTE      AUXR2
      000000EFH   SFRSYM    DATA     BYTE      AUXINTIF
      000000FDH   SFRSYM    DATA     BYTE      S4CON
      000000ACH   SFRSYM    DATA     BYTE      S3CON
      0000009AH   SFRSYM    DATA     BYTE      S2CON
      0000009BH   SFRSYM    DATA     BYTE      S2BUF
      000000B7H   SFRSYM    DATA     BYTE      IPH
      000000CDH   SFRSYM    DATA     BYTE      SPSTAT
      000000DDH   SFRSYM    DATA     BYTE      T4T3M
      000000C1H   SFRSYM    DATA     BYTE      WDT_CONTR
      000000DFH   SFRSYM    DATA     BYTE      IP3
      000000F4H   SFRSYM    DATA     BYTE      USBCON
      000000B5H   SFRSYM    DATA     BYTE      IP2
      000000FFH   SFRSYM    DATA     BYTE      RSTCFG
      000000C7H   SFRSYM    DATA     BYTE      IAP_CONTR
      0000008EH   SFRSYM    DATA     BYTE      AUXR
      000000AFH   SFRSYM    DATA     BYTE      IE2
      00000088H   SFRSYM    DATA     BYTE      TCON
      00000089H   SFRSYM    DATA     BYTE      TMOD
      00000098H   SFRSYM    DATA     BYTE      SCON
      00000087H   SFRSYM    DATA     BYTE      PCON
      00000099H   SFRSYM    DATA     BYTE      SBUF
      000000BCH   SFRSYM    DATA     BYTE      ADC_CONTR
      000000D1H   SFRSYM    DATA     BYTE      PSW1
      000000E7H   SFRSYM    DATA     BYTE      CMPCR2
      000000E6H   SFRSYM    DATA     BYTE      CMPCR1
      0000009AH.1 SFRSYM    DATA     BIT       S2TI
      00000098H.1 SFRSYM    DATA     BIT       TI
      000000DEH   SFRSYM    DATA     BYTE      ADCCFG
      000000B8H   SFRSYM    DATA     BYTE      IP
L251 LINKER/LOCATER V4.66.93.0                                                        05/06/2025  18:54:37  PAGE 77


      0000008FH   SFRSYM    DATA     BYTE      INTCLKO
      000000EEH   SFRSYM    DATA     BYTE      IP3H
      000000B6H   SFRSYM    DATA     BYTE      IP2H
      000000BFH   SFRSYM    DATA     BYTE      P_SW4
      000000A8H   SFRSYM    DATA     BYTE      IE
      000000BBH   SFRSYM    DATA     BYTE      P_SW3
      000000BAH   SFRSYM    DATA     BYTE      P_SW2
      000000A2H   SFRSYM    DATA     BYTE      P_SW1
      000000CEH   SFRSYM    DATA     BYTE      SPCTL
      000000F8H   SFRSYM    DATA     BYTE      P7
      000000E8H   SFRSYM    DATA     BYTE      P6
      000000C8H   SFRSYM    DATA     BYTE      P5
      000000C0H   SFRSYM    DATA     BYTE      P4
      000000ABH   SFRSYM    DATA     BYTE      WKTCH
      000000B0H   SFRSYM    DATA     BYTE      P3
      000000A0H   SFRSYM    DATA     BYTE      P2
      00000090H   SFRSYM    DATA     BYTE      P1
      00000080H   SFRSYM    DATA     BYTE      P0

      00FFE496H   BLOCK     CODE     ---       LVL=0
      000114D1H   SYMBOL    XDATA    INT       spi_n
      000114D3H   SYMBOL    XDATA    BYTE      dat
      00FFE496H   LINE      CODE     ---       #81
      00FFE4A0H   LINE      CODE     ---       #83
      00FFE4B2H   LINE      CODE     ---       #85
      00FFE4B2H   LINE      CODE     ---       #86
      00FFE4B5H   LINE      CODE     ---       #87
      00FFE4BBH   LINE      CODE     ---       #88
      00FFE4C0H   LINE      CODE     ---       #89
      00FFE4C2H   LINE      CODE     ---       #90
      00FFE4C2H   LINE      CODE     ---       #91
      00FFE4C4H   LINE      CODE     ---       #92
      00FFE4CAH   LINE      CODE     ---       #93
      00FFE4CDH   LINE      CODE     ---       #94
      00FFE4CFH   LINE      CODE     ---       #95
      00FFE4CFH   LINE      CODE     ---       #96
      00FFE4D2H   LINE      CODE     ---       #97
      00FFE4D8H   LINE      CODE     ---       #98
      00FFE4DCH   LINE      CODE     ---       #99
      00FFE4DCH   LINE      CODE     ---       #100
      00FFE4DCH   LINE      CODE     ---       #102
      00FFE4DCH   LINE      CODE     ---       #103
      00FFE4DCH   LINE      CODE     ---       #104
      ---         BLOCKEND  ---      ---       LVL=0

      00FFDFB9H   BLOCK     CODE     ---       LVL=0
      00011454H   SYMBOL    XDATA    INT       spi_n
      00011456H   SYMBOL    XDATA    BYTE      dat
      00FFDFC3H   BLOCK     CODE     NEAR LAB  LVL=1
      00011457H   SYMBOL    XDATA    BYTE      ret
      ---         BLOCKEND  ---      ---       LVL=1
      00FFDFB9H   LINE      CODE     ---       #107
      00FFDFC3H   LINE      CODE     ---       #108
      00FFDFC3H   LINE      CODE     ---       #109
      00FFDFC9H   LINE      CODE     ---       #110
      00FFDFDBH   LINE      CODE     ---       #112
      00FFDFDBH   LINE      CODE     ---       #113
      00FFDFDEH   LINE      CODE     ---       #114
      00FFDFE4H   LINE      CODE     ---       #115
      00FFDFE9H   LINE      CODE     ---       #116
      00FFDFEFH   LINE      CODE     ---       #117
      00FFDFF1H   LINE      CODE     ---       #118
      00FFDFF1H   LINE      CODE     ---       #119
      00FFDFF3H   LINE      CODE     ---       #120
      00FFDFF9H   LINE      CODE     ---       #121
L251 LINKER/LOCATER V4.66.93.0                                                        05/06/2025  18:54:37  PAGE 78


      00FFDFFCH   LINE      CODE     ---       #122
      00FFE002H   LINE      CODE     ---       #123
      00FFE004H   LINE      CODE     ---       #124
      00FFE004H   LINE      CODE     ---       #125
      00FFE007H   LINE      CODE     ---       #126
      00FFE00DH   LINE      CODE     ---       #127
      00FFE011H   LINE      CODE     ---       #128
      00FFE017H   LINE      CODE     ---       #129
      00FFE017H   LINE      CODE     ---       #130
      00FFE017H   LINE      CODE     ---       #132
      00FFE017H   LINE      CODE     ---       #133
      00FFE017H   LINE      CODE     ---       #135
      00FFE01BH   LINE      CODE     ---       #136
      ---         BLOCKEND  ---      ---       LVL=0

      00FFE91AH   BLOCK     CODE     ---       LVL=0
      000114D4H   SYMBOL    XDATA    INT       spi_n
      000114D6H   SYMBOL    XDATA    BYTE      dat
      00FFE91AH   LINE      CODE     ---       #147
      00FFE924H   LINE      CODE     ---       #149
      00FFE931H   LINE      CODE     ---       #150
      ---         BLOCKEND  ---      ---       LVL=0
      0001117AH   SYMBOL    XDATA    INT       spi_n
      0001117CH   SYMBOL    XDATA    ---       dat
      00011180H   SYMBOL    XDATA    DWORD     len

      00FFE731H   BLOCK     CODE     ---       LVL=0
      00011458H   SYMBOL    XDATA    INT       spi_n
      0001145AH   SYMBOL    XDATA    WORD      dat
      00FFE731H   LINE      CODE     ---       #175
      00FFE73DH   LINE      CODE     ---       #177
      00FFE753H   LINE      CODE     ---       #178
      00FFE765H   LINE      CODE     ---       #179
      ---         BLOCKEND  ---      ---       LVL=0
      00011184H   SYMBOL    XDATA    INT       spi_n
      00011186H   SYMBOL    XDATA    ---       dat
      0001118AH   SYMBOL    XDATA    DWORD     len

      00FFE7F4H   BLOCK     CODE     ---       LVL=0
      0001145CH   SYMBOL    XDATA    INT       spi_n
      0001145EH   SYMBOL    XDATA    BYTE      register_name
      0001145FH   SYMBOL    XDATA    BYTE      dat
      00FFE7F4H   LINE      CODE     ---       #206
      00FFE804H   LINE      CODE     ---       #208
      00FFE811H   LINE      CODE     ---       #209
      00FFE81EH   LINE      CODE     ---       #210
      ---         BLOCKEND  ---      ---       LVL=0

      00FFE197H   BLOCK     CODE     ---       LVL=0
      00010FCDH   SYMBOL    XDATA    INT       spi_n
      00010FCFH   SYMBOL    XDATA    BYTE      register_name
      00010FD0H   SYMBOL    XDATA    ---       dat
      00010FD4H   SYMBOL    XDATA    DWORD     len
      00FFE197H   LINE      CODE     ---       #222
      00FFE1ABH   LINE      CODE     ---       #224
      00FFE1B8H   LINE      CODE     ---       #225
      00FFE1BAH   LINE      CODE     ---       #227
      00FFE1D9H   LINE      CODE     ---       #228
      00FFE1F2H   LINE      CODE     ---       #229
      ---         BLOCKEND  ---      ---       LVL=0
      00011391H   SYMBOL    XDATA    INT       spi_n
      00011393H   SYMBOL    XDATA    WORD      register_name
      00011395H   SYMBOL    XDATA    WORD      dat
      00010E42H   SYMBOL    XDATA    INT       spi_n
      00010E44H   SYMBOL    XDATA    WORD      register_name
L251 LINKER/LOCATER V4.66.93.0                                                        05/06/2025  18:54:37  PAGE 79


      00010E46H   SYMBOL    XDATA    ---       dat
      000114F2H   SYMBOL    XDATA    INT       spi_n
      0001118EH   SYMBOL    XDATA    INT       spi_n
      00011190H   SYMBOL    XDATA    ---       dat
      00011194H   SYMBOL    XDATA    DWORD     len
      00011460H   SYMBOL    XDATA    INT       spi_n
      00011462H   SYMBOL    XDATA    WORD      dat
      00011198H   SYMBOL    XDATA    INT       spi_n
      0001119AH   SYMBOL    XDATA    ---       dat
      0001119EH   SYMBOL    XDATA    DWORD     len
      000114D7H   SYMBOL    XDATA    INT       spi_n
      000114D9H   SYMBOL    XDATA    BYTE      register_name

      00FFDEE6H   BLOCK     CODE     ---       LVL=0
      00010FD8H   SYMBOL    XDATA    INT       spi_n
      00010FDAH   SYMBOL    XDATA    BYTE      register_name
      00010FDBH   SYMBOL    XDATA    ---       dat
      00010FDFH   SYMBOL    XDATA    DWORD     len
      00FFDEE6H   LINE      CODE     ---       #350
      00FFDEFAH   LINE      CODE     ---       #352
      00FFDF07H   LINE      CODE     ---       #353
      00FFDF09H   LINE      CODE     ---       #355
      00FFDF36H   LINE      CODE     ---       #356
      00FFDF4FH   LINE      CODE     ---       #357
      ---         BLOCKEND  ---      ---       LVL=0
      00011397H   SYMBOL    XDATA    INT       spi_n
      00011399H   SYMBOL    XDATA    WORD      register_name
      0001139BH   SYMBOL    XDATA    WORD      dat
      00010E4EH   SYMBOL    XDATA    INT       spi_n
      00010E50H   SYMBOL    XDATA    WORD      register_name
      00010E52H   SYMBOL    XDATA    ---       dat
      00010E56H   SYMBOL    XDATA    DWORD     len
      00010D59H   SYMBOL    XDATA    INT       spi_n
      00010D5BH   SYMBOL    XDATA    ---       write_buffer
      00010D5FH   SYMBOL    XDATA    ---       read_buffer
      00010D63H   SYMBOL    XDATA    DWORD     len
      00010D67H   SYMBOL    XDATA    INT       spi_n
      00010D69H   SYMBOL    XDATA    ---       write_buffer
      00010D6DH   SYMBOL    XDATA    ---       read_buffer
      00010D71H   SYMBOL    XDATA    DWORD     len

      00FF79DFH   BLOCK     CODE     ---       LVL=0
      00010C96H   SYMBOL    XDATA    INT       spi_n
      00010C98H   SYMBOL    XDATA    INT       mode
      00010C9AH   SYMBOL    XDATA    DWORD     baud
      00010C9EH   SYMBOL    XDATA    INT       sck_pin
      00010CA0H   SYMBOL    XDATA    INT       mosi_pin
      00010CA2H   SYMBOL    XDATA    INT       miso_pin
      00010CA4H   SYMBOL    XDATA    INT       cs_pin
      00FF79F5H   BLOCK     CODE     NEAR LAB  LVL=1
      00010CA6H   SYMBOL    XDATA    DWORD     spi_psc
      ---         BLOCKEND  ---      ---       LVL=1
      00FF79DFH   LINE      CODE     ---       #465
      00FF79F5H   LINE      CODE     ---       #466
      00FF79F5H   LINE      CODE     ---       #467
      00FF7A01H   LINE      CODE     ---       #469
      00FF7A01H   LINE      CODE     ---       #473
      00FF7A01H   LINE      CODE     ---       #475
      00FF7A17H   LINE      CODE     ---       #476
      00FF7A2DH   LINE      CODE     ---       #478
      00FF7A39H   LINE      CODE     ---       #480
      00FF7A4FH   LINE      CODE     ---       #481
      00FF7A4FH   LINE      CODE     ---       #483
      00FF7A5BH   LINE      CODE     ---       #485
      00FF7A70H   LINE      CODE     ---       #486
L251 LINKER/LOCATER V4.66.93.0                                                        05/06/2025  18:54:37  PAGE 80


      00FF7A70H   LINE      CODE     ---       #489
      00FF7A80H   LINE      CODE     ---       #491
      00FF7A8EH   LINE      CODE     ---       #492
      00FF7A9CH   LINE      CODE     ---       #493
      00FF7AA8H   LINE      CODE     ---       #495
      00FF7AB6H   LINE      CODE     ---       #496
      00FF7AB6H   LINE      CODE     ---       #497
      00FF7AC2H   LINE      CODE     ---       #499
      00FF7AD0H   LINE      CODE     ---       #500
      00FF7AD0H   LINE      CODE     ---       #504
      00FF7ADDH   LINE      CODE     ---       #506
      00FF7AE0H   LINE      CODE     ---       #508
      00FF7AFEH   LINE      CODE     ---       #510
      00FF7AFEH   LINE      CODE     ---       #511
      00FF7B02H   LINE      CODE     ---       #512
      00FF7B04H   LINE      CODE     ---       #514
      00FF7B04H   LINE      CODE     ---       #515
      00FF7B07H   LINE      CODE     ---       #516
      00FF7B09H   LINE      CODE     ---       #518
      00FF7B09H   LINE      CODE     ---       #519
      00FF7B0CH   LINE      CODE     ---       #520
      00FF7B0EH   LINE      CODE     ---       #522
      00FF7B0EH   LINE      CODE     ---       #523
      00FF7B11H   LINE      CODE     ---       #524
      00FF7B11H   LINE      CODE     ---       #525
      00FF7B11H   LINE      CODE     ---       #527
      00FF7B14H   LINE      CODE     ---       #528
      00FF7B17H   LINE      CODE     ---       #529
      00FF7B1AH   LINE      CODE     ---       #532
      00FF7B3BH   LINE      CODE     ---       #534
      00FF7B3EH   LINE      CODE     ---       #536
      00FF7B4EH   LINE      CODE     ---       #538
      00FF7B51H   LINE      CODE     ---       #539
      00FF7B53H   LINE      CODE     ---       #540
      00FF7B63H   LINE      CODE     ---       #542
      00FF7B66H   LINE      CODE     ---       #543
      00FF7B68H   LINE      CODE     ---       #544
      00FF7B78H   LINE      CODE     ---       #546
      00FF7B7CH   LINE      CODE     ---       #547
      00FF7B7EH   LINE      CODE     ---       #550
      00FF7B81H   LINE      CODE     ---       #551
      00FF7B81H   LINE      CODE     ---       #554
      00FF7B95H   LINE      CODE     ---       #556
      00FF7B95H   LINE      CODE     ---       #557
      00FF7B97H   LINE      CODE     ---       #559
      00FF7B97H   LINE      CODE     ---       #560
      00FF7B9AH   LINE      CODE     ---       #561
      00FF7B9CH   LINE      CODE     ---       #563
      00FF7B9CH   LINE      CODE     ---       #564
      00FF7B9FH   LINE      CODE     ---       #565
      00FF7BA1H   LINE      CODE     ---       #567
      00FF7BA1H   LINE      CODE     ---       #568
      00FF7BA4H   LINE      CODE     ---       #569
      00FF7BA4H   LINE      CODE     ---       #570
      00FF7BA4H   LINE      CODE     ---       #572
      00FF7BA7H   LINE      CODE     ---       #573
      00FF7BAAH   LINE      CODE     ---       #574
      00FF7BB9H   LINE      CODE     ---       #586
      00FF7BBCH   LINE      CODE     ---       #588
      00FF7BDAH   LINE      CODE     ---       #590
      00FF7BDAH   LINE      CODE     ---       #591
      00FF7BDEH   LINE      CODE     ---       #592
      00FF7BE0H   LINE      CODE     ---       #594
      00FF7BE0H   LINE      CODE     ---       #595
      00FF7BE3H   LINE      CODE     ---       #596
L251 LINKER/LOCATER V4.66.93.0                                                        05/06/2025  18:54:37  PAGE 81


      00FF7BE5H   LINE      CODE     ---       #598
      00FF7BE5H   LINE      CODE     ---       #599
      00FF7BE8H   LINE      CODE     ---       #600
      00FF7BEAH   LINE      CODE     ---       #602
      00FF7BEAH   LINE      CODE     ---       #603
      00FF7BEDH   LINE      CODE     ---       #604
      00FF7BEDH   LINE      CODE     ---       #605
      00FF7BEDH   LINE      CODE     ---       #607
      00FF7BF0H   LINE      CODE     ---       #608
      00FF7BFDH   LINE      CODE     ---       #612
      00FF7C1EH   LINE      CODE     ---       #616
      00FF7C2EH   LINE      CODE     ---       #618
      00FF7C3EH   LINE      CODE     ---       #619
      00FF7C40H   LINE      CODE     ---       #620
      00FF7C50H   LINE      CODE     ---       #622
      00FF7C60H   LINE      CODE     ---       #623
      00FF7C62H   LINE      CODE     ---       #624
      00FF7C72H   LINE      CODE     ---       #626
      00FF7C80H   LINE      CODE     ---       #627
      00FF7C82H   LINE      CODE     ---       #630
      00FF7C92H   LINE      CODE     ---       #631
      00FF7C92H   LINE      CODE     ---       #635
      00FF7CAAH   LINE      CODE     ---       #637
      00FF7CAAH   LINE      CODE     ---       #638
      00FF7CB8H   LINE      CODE     ---       #639
      00FF7CBAH   LINE      CODE     ---       #641
      00FF7CBAH   LINE      CODE     ---       #642
      00FF7CCAH   LINE      CODE     ---       #643
      00FF7CCCH   LINE      CODE     ---       #645
      00FF7CCCH   LINE      CODE     ---       #646
      00FF7CDCH   LINE      CODE     ---       #647
      00FF7CDEH   LINE      CODE     ---       #649
      00FF7CDEH   LINE      CODE     ---       #650
      00FF7CEEH   LINE      CODE     ---       #651
      00FF7CEEH   LINE      CODE     ---       #652
      00FF7CEEH   LINE      CODE     ---       #654
      00FF7CFEH   LINE      CODE     ---       #655
      00FF7D01H   LINE      CODE     ---       #656
      00FF7D10H   LINE      CODE     ---       #667
      00FF7D13H   LINE      CODE     ---       #669
      00FF7D31H   LINE      CODE     ---       #671
      00FF7D31H   LINE      CODE     ---       #672
      00FF7D35H   LINE      CODE     ---       #673
      00FF7D37H   LINE      CODE     ---       #675
      00FF7D37H   LINE      CODE     ---       #676
      00FF7D3AH   LINE      CODE     ---       #677
      00FF7D3CH   LINE      CODE     ---       #679
      00FF7D3CH   LINE      CODE     ---       #680
      00FF7D3FH   LINE      CODE     ---       #681
      00FF7D41H   LINE      CODE     ---       #683
      00FF7D41H   LINE      CODE     ---       #684
      00FF7D44H   LINE      CODE     ---       #685
      00FF7D44H   LINE      CODE     ---       #686
      00FF7D44H   LINE      CODE     ---       #688
      00FF7D47H   LINE      CODE     ---       #689
      00FF7D54H   LINE      CODE     ---       #693
      00FF7D75H   LINE      CODE     ---       #695
      00FF7D85H   LINE      CODE     ---       #697
      00FF7D95H   LINE      CODE     ---       #698
      00FF7D97H   LINE      CODE     ---       #699
      00FF7DA7H   LINE      CODE     ---       #701
      00FF7DB7H   LINE      CODE     ---       #702
      00FF7DB9H   LINE      CODE     ---       #703
      00FF7DC9H   LINE      CODE     ---       #705
      00FF7DD7H   LINE      CODE     ---       #706
L251 LINKER/LOCATER V4.66.93.0                                                        05/06/2025  18:54:37  PAGE 82


      00FF7DD9H   LINE      CODE     ---       #709
      00FF7DE9H   LINE      CODE     ---       #710
      00FF7DE9H   LINE      CODE     ---       #714
      00FF7E01H   LINE      CODE     ---       #716
      00FF7E01H   LINE      CODE     ---       #717
      00FF7E0FH   LINE      CODE     ---       #718
      00FF7E11H   LINE      CODE     ---       #720
      00FF7E11H   LINE      CODE     ---       #721
      00FF7E21H   LINE      CODE     ---       #722
      00FF7E23H   LINE      CODE     ---       #724
      00FF7E23H   LINE      CODE     ---       #725
      00FF7E33H   LINE      CODE     ---       #726
      00FF7E35H   LINE      CODE     ---       #728
      00FF7E35H   LINE      CODE     ---       #729
      00FF7E45H   LINE      CODE     ---       #730
      00FF7E45H   LINE      CODE     ---       #731
      00FF7E45H   LINE      CODE     ---       #733
      00FF7E55H   LINE      CODE     ---       #734
      ---         BLOCKEND  ---      ---       LVL=0

      ---         MODULE    ---      ---       zf_driver_timer
      000000D0H   SFRSYM    DATA     BYTE      PSW
      0000009DH   SFRSYM    DATA     BYTE      IRCBAND
      00000097H   SFRSYM    DATA     BYTE      AUXR2
      000000EFH   SFRSYM    DATA     BYTE      AUXINTIF
      000000FDH   SFRSYM    DATA     BYTE      S4CON
      000000ACH   SFRSYM    DATA     BYTE      S3CON
      0000009AH   SFRSYM    DATA     BYTE      S2CON
      000000B7H   SFRSYM    DATA     BYTE      IPH
      000000CDH   SFRSYM    DATA     BYTE      SPSTAT
      000000DDH   SFRSYM    DATA     BYTE      T4T3M
      000000C1H   SFRSYM    DATA     BYTE      WDT_CONTR
      000000DFH   SFRSYM    DATA     BYTE      IP3
      000000F4H   SFRSYM    DATA     BYTE      USBCON
      000000B5H   SFRSYM    DATA     BYTE      IP2
      000000FFH   SFRSYM    DATA     BYTE      RSTCFG
      000000C7H   SFRSYM    DATA     BYTE      IAP_CONTR
      0000008EH   SFRSYM    DATA     BYTE      AUXR
      000000AFH   SFRSYM    DATA     BYTE      IE2
      00000088H   SFRSYM    DATA     BYTE      TCON
      00000089H   SFRSYM    DATA     BYTE      TMOD
      00000098H   SFRSYM    DATA     BYTE      SCON
      00000087H   SFRSYM    DATA     BYTE      PCON
      000000BCH   SFRSYM    DATA     BYTE      ADC_CONTR
      000000D1H   SFRSYM    DATA     BYTE      PSW1
      000000E7H   SFRSYM    DATA     BYTE      CMPCR2
      000000E6H   SFRSYM    DATA     BYTE      CMPCR1
      000000DEH   SFRSYM    DATA     BYTE      ADCCFG
      000000B8H   SFRSYM    DATA     BYTE      IP
      0000008FH   SFRSYM    DATA     BYTE      INTCLKO
      000000EEH   SFRSYM    DATA     BYTE      IP3H
      000000B6H   SFRSYM    DATA     BYTE      IP2H
      000000BFH   SFRSYM    DATA     BYTE      P_SW4
      000000A8H   SFRSYM    DATA     BYTE      IE
      000000BBH   SFRSYM    DATA     BYTE      P_SW3
      000000BAH   SFRSYM    DATA     BYTE      P_SW2
      000000A2H   SFRSYM    DATA     BYTE      P_SW1
      000000CEH   SFRSYM    DATA     BYTE      SPCTL
      000000F8H   SFRSYM    DATA     BYTE      P7
      000000E8H   SFRSYM    DATA     BYTE      P6
      000000C8H   SFRSYM    DATA     BYTE      P5
      000000C0H   SFRSYM    DATA     BYTE      P4
      000000ABH   SFRSYM    DATA     BYTE      WKTCH
      000000B0H   SFRSYM    DATA     BYTE      P3
      000000A0H   SFRSYM    DATA     BYTE      P2
L251 LINKER/LOCATER V4.66.93.0                                                        05/06/2025  18:54:37  PAGE 83


      00000090H   SFRSYM    DATA     BYTE      P1
      00000080H   SFRSYM    DATA     BYTE      P0
      00010E5AH   SYMBOL    XDATA    ---       timer_function_state
      000113E1H   SYMBOL    XDATA    INT       index
      000113E3H   SYMBOL    XDATA    INT       mode
      000113E5H   SYMBOL    XDATA    BYTE      return_state

      ---         MODULE    ---      ---       zf_driver_uart
      00FFD019H   PUBLIC    CODE     ---       uart_rx_start_buff
      00FFBD68H   PUBLIC    CODE     ---       uart_write_buffer
      00FF9333H   PUBLIC    CODE     ---       uart_init
      00FFE2FCH   PUBLIC    CODE     ---       uart_rx_interrupt
      00FFE8DBH   PUBLIC    CODE     ---       uart_write_byte
      00FFAF77H   PUBLIC    CODE     ---       uart_dma_init
      00FFD8C6H   PUBLIC    CODE     ---       uart_query_byte
      00010E6EH   PUBLIC    XDATA    ---       uart_rx_buff
      00010E72H   PUBLIC    XDATA    BYTE      ?uart_init?BYTE
      000000D0H   SFRSYM    DATA     BYTE      PSW
      0000009DH   SFRSYM    DATA     BYTE      IRCBAND
      00000097H   SFRSYM    DATA     BYTE      AUXR2
      000000EFH   SFRSYM    DATA     BYTE      AUXINTIF
      000000FDH   SFRSYM    DATA     BYTE      S4CON
      000000ACH   SFRSYM    DATA     BYTE      S3CON
      0000009AH   SFRSYM    DATA     BYTE      S2CON
      000000B7H   SFRSYM    DATA     BYTE      IPH
      000000CDH   SFRSYM    DATA     BYTE      SPSTAT
      000000DDH   SFRSYM    DATA     BYTE      T4T3M
      000000C1H   SFRSYM    DATA     BYTE      WDT_CONTR
      00000088H.6 SFRSYM    DATA     BIT       TR1
      000000D7H   SFRSYM    DATA     BYTE      T2L
      000000D6H   SFRSYM    DATA     BYTE      T2H
      000000DFH   SFRSYM    DATA     BYTE      IP3
      000000F4H   SFRSYM    DATA     BYTE      USBCON
      000000B5H   SFRSYM    DATA     BYTE      IP2
      000000FFH   SFRSYM    DATA     BYTE      RSTCFG
      000000C7H   SFRSYM    DATA     BYTE      IAP_CONTR
      0000008EH   SFRSYM    DATA     BYTE      AUXR
      000000AFH   SFRSYM    DATA     BYTE      IE2
      00000088H   SFRSYM    DATA     BYTE      TCON
      00000089H   SFRSYM    DATA     BYTE      TMOD
      00000098H   SFRSYM    DATA     BYTE      SCON
      00000087H   SFRSYM    DATA     BYTE      PCON
      000000BCH   SFRSYM    DATA     BYTE      ADC_CONTR
      000000D1H   SFRSYM    DATA     BYTE      PSW1
      000000E7H   SFRSYM    DATA     BYTE      CMPCR2
      000000E6H   SFRSYM    DATA     BYTE      CMPCR1
      000000DEH   SFRSYM    DATA     BYTE      ADCCFG
      000000B8H   SFRSYM    DATA     BYTE      IP
      0000008FH   SFRSYM    DATA     BYTE      INTCLKO
      000000EEH   SFRSYM    DATA     BYTE      IP3H
      000000B6H   SFRSYM    DATA     BYTE      IP2H
      000000BFH   SFRSYM    DATA     BYTE      P_SW4
      000000A8H   SFRSYM    DATA     BYTE      IE
      000000BBH   SFRSYM    DATA     BYTE      P_SW3
      000000BAH   SFRSYM    DATA     BYTE      P_SW2
      000000A2H   SFRSYM    DATA     BYTE      P_SW1
      000000CEH   SFRSYM    DATA     BYTE      SPCTL
      000000F8H   SFRSYM    DATA     BYTE      P7
      000000E8H   SFRSYM    DATA     BYTE      P6
      000000C8H   SFRSYM    DATA     BYTE      P5
      000000C0H   SFRSYM    DATA     BYTE      P4
      000000ABH   SFRSYM    DATA     BYTE      WKTCH
      000000B0H   SFRSYM    DATA     BYTE      P3
      000000A0H   SFRSYM    DATA     BYTE      P2
      00000090H   SFRSYM    DATA     BYTE      P1
L251 LINKER/LOCATER V4.66.93.0                                                        05/06/2025  18:54:37  PAGE 84


      00000080H   SFRSYM    DATA     BYTE      P0
      00010E66H   SYMBOL    XDATA    ---       uart_function_state
      000113E6H   SYMBOL    XDATA    INT       index
      000113E8H   SYMBOL    XDATA    INT       mode
      000113EAH   SYMBOL    XDATA    BYTE      return_state

      00FFBD68H   BLOCK     CODE     ---       LVL=0
      000112F2H   SYMBOL    XDATA    INT       uart_n
      000112F4H   SYMBOL    XDATA    ---       buff
      000112F8H   SYMBOL    XDATA    WORD      len
      00FFBD68H   LINE      CODE     ---       #108
      00FFBD7EH   LINE      CODE     ---       #112
      00FFBD9CH   LINE      CODE     ---       #113
      00FFBDA7H   LINE      CODE     ---       #114
      00FFBDCBH   LINE      CODE     ---       #115
      00FFBDEEH   LINE      CODE     ---       #116
      00FFBE1AH   LINE      CODE     ---       #117
      00FFBE44H   LINE      CODE     ---       #118
      00FFBE63H   LINE      CODE     ---       #120
      00FFBE82H   LINE      CODE     ---       #122
      00FFBEA0H   LINE      CODE     ---       #124
      ---         BLOCKEND  ---      ---       LVL=0
      000103D2H   SYMBOL    XDATA    INT       uart_n
      000103D4H   SYMBOL    XDATA    ---       str
      000103D8H   SYMBOL    XDATA    WORD      len
      000103DAH   SYMBOL    XDATA    ---       buff

      00FFE8DBH   BLOCK     CODE     ---       LVL=0
      000114DAH   SYMBOL    XDATA    INT       uart_n
      000114DCH   SYMBOL    XDATA    BYTE      dat
      00FFE8DBH   LINE      CODE     ---       #154
      00FFE8E5H   LINE      CODE     ---       #156
      00FFE8FAH   LINE      CODE     ---       #157
      ---         BLOCKEND  ---      ---       LVL=0

      00FFD019H   BLOCK     CODE     ---       LVL=0
      000114F4H   SYMBOL    XDATA    INT       uart_n
      00FFD019H   LINE      CODE     ---       #165
      00FFD01FH   LINE      CODE     ---       #167
      00FFD03DH   LINE      CODE     ---       #168
      00FFD057H   LINE      CODE     ---       #169
      00FFD07FH   LINE      CODE     ---       #170
      00FFD0ABH   LINE      CODE     ---       #171
      00FFD0CAH   LINE      CODE     ---       #172
      ---         BLOCKEND  ---      ---       LVL=0

      00FFE2FCH   BLOCK     CODE     ---       LVL=0
      000114DDH   SYMBOL    XDATA    INT       uart_n
      000114DFH   SYMBOL    XDATA    BYTE      status
      00FFE2FCH   LINE      CODE     ---       #183
      00FFE306H   LINE      CODE     ---       #185
      00FFE30CH   LINE      CODE     ---       #187
      00FFE32DH   LINE      CODE     ---       #188
      00FFE32FH   LINE      CODE     ---       #191
      00FFE350H   LINE      CODE     ---       #192
      00FFE350H   LINE      CODE     ---       #193
      ---         BLOCKEND  ---      ---       LVL=0
      000114E0H   SYMBOL    XDATA    INT       uart_n
      000114E2H   SYMBOL    XDATA    BYTE      dat

      00FFD8C6H   BLOCK     CODE     ---       LVL=0
      00011340H   SYMBOL    XDATA    INT       uart_n
      00011342H   SYMBOL    XDATA    ---       dat
      00FFD8D6H   BLOCK     CODE     NEAR LAB  LVL=1
      00011346H   SYMBOL    XDATA    BYTE      ret
L251 LINKER/LOCATER V4.66.93.0                                                        05/06/2025  18:54:37  PAGE 85


      ---         BLOCKEND  ---      ---       LVL=1
      00FFD8C6H   LINE      CODE     ---       #227
      00FFD8D6H   LINE      CODE     ---       #228
      00FFD8D6H   LINE      CODE     ---       #229
      00FFD8DBH   LINE      CODE     ---       #232
      00FFD8F9H   LINE      CODE     ---       #234
      00FFD919H   LINE      CODE     ---       #236
      00FFD91FH   LINE      CODE     ---       #238
      00FFD940H   LINE      CODE     ---       #239
      00FFD942H   LINE      CODE     ---       #242
      00FFD947H   LINE      CODE     ---       #243
      00FFD947H   LINE      CODE     ---       #246
      00FFD950H   LINE      CODE     ---       #248
      00FFD954H   LINE      CODE     ---       #249
      ---         BLOCKEND  ---      ---       LVL=0

      00FFAF77H   BLOCK     CODE     ---       LVL=0
      000114F6H   SYMBOL    XDATA    INT       uart_n
      00FFAF77H   LINE      CODE     ---       #257
      00FFAF7DH   LINE      CODE     ---       #259
      00FFAF9BH   LINE      CODE     ---       #260
      00FFAFB9H   LINE      CODE     ---       #261
      00FFAFD7H   LINE      CODE     ---       #263
      00FFAFF5H   LINE      CODE     ---       #264
      00FFB013H   LINE      CODE     ---       #265
      00FFB031H   LINE      CODE     ---       #267
      00FFB04FH   LINE      CODE     ---       #268
      00FFB069H   LINE      CODE     ---       #269
      00FFB091H   LINE      CODE     ---       #270
      00FFB0BDH   LINE      CODE     ---       #271
      00FFB0DCH   LINE      CODE     ---       #272
      00FFB0FBH   LINE      CODE     ---       #274
      ---         BLOCKEND  ---      ---       LVL=0

      00FF9333H   BLOCK     CODE     ---       LVL=0
      00010E72H   SYMBOL    XDATA    INT       uart_n
      00010E74H   SYMBOL    XDATA    DWORD     baud
      00010E78H   SYMBOL    XDATA    INT       tx_pin
      00010E7AH   SYMBOL    XDATA    INT       rx_pin
      00FF9349H   BLOCK     CODE     NEAR LAB  LVL=1
      00010E7CH   SYMBOL    XDATA    WORD      brt
      ---         BLOCKEND  ---      ---       LVL=1
      00FF9333H   LINE      CODE     ---       #286
      00FF9349H   LINE      CODE     ---       #287
      00FF9349H   LINE      CODE     ---       #311
      00FF935FH   LINE      CODE     ---       #312
      00FF9373H   LINE      CODE     ---       #314
      00FF93AAH   LINE      CODE     ---       #316
      00FF93CEH   LINE      CODE     ---       #318
      00FF93CEH   LINE      CODE     ---       #332
      00FF93D1H   LINE      CODE     ---       #333
      00FF93D9H   LINE      CODE     ---       #334
      00FF93E5H   LINE      CODE     ---       #335
      00FF93E8H   LINE      CODE     ---       #336
      00FF93EAH   LINE      CODE     ---       #339
      00FF93EDH   LINE      CODE     ---       #341
      00FF9405H   LINE      CODE     ---       #343
      00FF9409H   LINE      CODE     ---       #344
      00FF940CH   LINE      CODE     ---       #345
      00FF9424H   LINE      CODE     ---       #347
      00FF9427H   LINE      CODE     ---       #348
      00FF942AH   LINE      CODE     ---       #349
      00FF9442H   LINE      CODE     ---       #351
      00FF9445H   LINE      CODE     ---       #352
      00FF9448H   LINE      CODE     ---       #353
L251 LINKER/LOCATER V4.66.93.0                                                        05/06/2025  18:54:37  PAGE 86


      00FF9466H   LINE      CODE     ---       #355
      00FF9469H   LINE      CODE     ---       #356
      00FF9469H   LINE      CODE     ---       #359
      00FF946CH   LINE      CODE     ---       #362
      00FF946CH   LINE      CODE     ---       #366
      00FF946FH   LINE      CODE     ---       #367
      00FF9477H   LINE      CODE     ---       #368
      00FF9483H   LINE      CODE     ---       #369
      00FF9486H   LINE      CODE     ---       #372
      00FF9489H   LINE      CODE     ---       #374
      00FF94A1H   LINE      CODE     ---       #376
      00FF94A5H   LINE      CODE     ---       #377
      00FF94A8H   LINE      CODE     ---       #378
      00FF94C6H   LINE      CODE     ---       #380
      00FF94C9H   LINE      CODE     ---       #381
      00FF94C9H   LINE      CODE     ---       #385
      00FF94CCH   LINE      CODE     ---       #388
      00FF94CCH   LINE      CODE     ---       #392
      00FF94CFH   LINE      CODE     ---       #393
      00FF94D7H   LINE      CODE     ---       #394
      00FF94E3H   LINE      CODE     ---       #395
      00FF94E6H   LINE      CODE     ---       #405
      00FF94E9H   LINE      CODE     ---       #407
      00FF9501H   LINE      CODE     ---       #409
      00FF9505H   LINE      CODE     ---       #410
      00FF9507H   LINE      CODE     ---       #411
      00FF951FH   LINE      CODE     ---       #413
      00FF9522H   LINE      CODE     ---       #414
      00FF9522H   LINE      CODE     ---       #418
      00FF9524H   LINE      CODE     ---       #421
      00FF9524H   LINE      CODE     ---       #425
      00FF9527H   LINE      CODE     ---       #426
      00FF952FH   LINE      CODE     ---       #427
      00FF953BH   LINE      CODE     ---       #428
      00FF953EH   LINE      CODE     ---       #438
      00FF9541H   LINE      CODE     ---       #440
      00FF9559H   LINE      CODE     ---       #442
      00FF955DH   LINE      CODE     ---       #443
      00FF955FH   LINE      CODE     ---       #444
      00FF9577H   LINE      CODE     ---       #448
      00FF957AH   LINE      CODE     ---       #449
      00FF957AH   LINE      CODE     ---       #453
      00FF957AH   LINE      CODE     ---       #456
      00FF957AH   LINE      CODE     ---       #459
      00FF9583H   LINE      CODE     ---       #461
      ---         BLOCKEND  ---      ---       LVL=0

      ---         MODULE    ---      ---       zf_device_config
      00FF021EH   PUBLIC    CODE     ---       imu660ra_config_file

      ---         MODULE    ---      ---       zf_device_ips114
      00FFA768H   PUBLIC    CODE     ---       ips114_show_float
      00FFDDFEH   PUBLIC    CODE     ---       ips114_show_string
      00FFCDEBH   PUBLIC    CODE     ---       ips114_show_char
      00FF0066H   PUBLIC    CODE     ---       ips114_set_color
      00FFE689H   PUBLIC    CODE     ---       ips114_set_dir
      00FFDE73H   PUBLIC    CODE     ---       ips114_clear
      00FFD70BH   PUBLIC    CODE     ---       ips114_show_uint8
      00FF97C7H   PUBLIC    CODE     ---       ips114_init
      000112FAH   PUBLIC    XDATA    WORD      ips114_pencolor
      000112FCH   PUBLIC    XDATA    WORD      ips114_bgcolor
      000112FEH   PUBLIC    XDATA    INT       ips114_display_dir
      00011300H   PUBLIC    XDATA    BYTE      ips114_x_max
      00011301H   PUBLIC    XDATA    BYTE      ips114_y_max
      00010A11H   PUBLIC    XDATA    BYTE      ?ips114_show_float?BYTE
L251 LINKER/LOCATER V4.66.93.0                                                        05/06/2025  18:54:37  PAGE 87


      00010AE8H   PUBLIC    XDATA    BYTE      ?ips114_show_wave?BYTE
      00010BB5H   PUBLIC    XDATA    BYTE      ?ips114_show_chinese?BYTE
      000000D0H   SFRSYM    DATA     BYTE      PSW
      0000009DH   SFRSYM    DATA     BYTE      IRCBAND
      00000097H   SFRSYM    DATA     BYTE      AUXR2
      000000EFH   SFRSYM    DATA     BYTE      AUXINTIF
      000000FDH   SFRSYM    DATA     BYTE      S4CON
      000000ACH   SFRSYM    DATA     BYTE      S3CON
      0000009AH   SFRSYM    DATA     BYTE      S2CON
      000000B7H   SFRSYM    DATA     BYTE      IPH
      000000CDH   SFRSYM    DATA     BYTE      SPSTAT
      000000DDH   SFRSYM    DATA     BYTE      T4T3M
      000000C1H   SFRSYM    DATA     BYTE      WDT_CONTR
      000000DFH   SFRSYM    DATA     BYTE      IP3
      000000F4H   SFRSYM    DATA     BYTE      USBCON
      000000B5H   SFRSYM    DATA     BYTE      IP2
      000000FFH   SFRSYM    DATA     BYTE      RSTCFG
      000000C7H   SFRSYM    DATA     BYTE      IAP_CONTR
      0000008EH   SFRSYM    DATA     BYTE      AUXR
      000000AFH   SFRSYM    DATA     BYTE      IE2
      00000088H   SFRSYM    DATA     BYTE      TCON
      00000089H   SFRSYM    DATA     BYTE      TMOD
      00000098H   SFRSYM    DATA     BYTE      SCON
      000000A0H.2 SFRSYM    DATA     BIT       P22
      000000A0H.1 SFRSYM    DATA     BIT       P21
      000000A0H.0 SFRSYM    DATA     BIT       P20
      00000087H   SFRSYM    DATA     BYTE      PCON
      000000BCH   SFRSYM    DATA     BYTE      ADC_CONTR
      000000D1H   SFRSYM    DATA     BYTE      PSW1
      000000E7H   SFRSYM    DATA     BYTE      CMPCR2
      000000E6H   SFRSYM    DATA     BYTE      CMPCR1
      000000DEH   SFRSYM    DATA     BYTE      ADCCFG
      000000B8H   SFRSYM    DATA     BYTE      IP
      0000008FH   SFRSYM    DATA     BYTE      INTCLKO
      000000EEH   SFRSYM    DATA     BYTE      IP3H
      000000B6H   SFRSYM    DATA     BYTE      IP2H
      000000BFH   SFRSYM    DATA     BYTE      P_SW4
      000000A8H   SFRSYM    DATA     BYTE      IE
      000000BBH   SFRSYM    DATA     BYTE      P_SW3
      000000BAH   SFRSYM    DATA     BYTE      P_SW2
      000000A2H   SFRSYM    DATA     BYTE      P_SW1
      000000CEH   SFRSYM    DATA     BYTE      SPCTL
      000000F8H   SFRSYM    DATA     BYTE      P7
      000000E8H   SFRSYM    DATA     BYTE      P6
      000000C8H   SFRSYM    DATA     BYTE      P5
      000000C0H   SFRSYM    DATA     BYTE      P4
      000000ABH   SFRSYM    DATA     BYTE      WKTCH
      000000B0H   SFRSYM    DATA     BYTE      P3
      000000A0H   SFRSYM    DATA     BYTE      P2
      00000090H   SFRSYM    DATA     BYTE      P1
      00000080H   SFRSYM    DATA     BYTE      P0
      00FF0046H   SYMBOL    CODE     ---       ips114_write_index
      00FFB570H   SYMBOL    CODE     ---       ips114_set_region

      00FF0046H   BLOCK     CODE     ---       LVL=0
      0001150EH   SYMBOL    XDATA    BYTE      dat
      00FF0046H   LINE      CODE     ---       #66
      00FF004AH   LINE      CODE     ---       #68
      00FF004CH   LINE      CODE     ---       #69
      00FF004EH   LINE      CODE     ---       #70
      00FF0050H   LINE      CODE     ---       #71
      00FF0059H   LINE      CODE     ---       #72
      00FF005BH   LINE      CODE     ---       #73
      00FF005DH   LINE      CODE     ---       #74
      00FF005FH   LINE      CODE     ---       #75
L251 LINKER/LOCATER V4.66.93.0                                                        05/06/2025  18:54:37  PAGE 88


      ---         BLOCKEND  ---      ---       LVL=0

      00FFB570H   BLOCK     CODE     ---       LVL=0
      00011302H   SYMBOL    XDATA    WORD      x1
      00011304H   SYMBOL    XDATA    WORD      y1
      00011306H   SYMBOL    XDATA    WORD      x2
      00011308H   SYMBOL    XDATA    WORD      y2
      00FFB570H   LINE      CODE     ---       #86
      00FFB588H   LINE      CODE     ---       #93
      00FFB592H   LINE      CODE     ---       #95
      00FFB597H   LINE      CODE     ---       #96
      00FFB5A6H   LINE      CODE     ---       #97
      00FFB5B5H   LINE      CODE     ---       #98
      00FFB5BAH   LINE      CODE     ---       #99
      00FFB5C9H   LINE      CODE     ---       #100
      00FFB5D8H   LINE      CODE     ---       #101
      00FFB5DDH   LINE      CODE     ---       #102
      00FFB5E0H   LINE      CODE     ---       #103
      00FFB5ECH   LINE      CODE     ---       #105
      00FFB5F1H   LINE      CODE     ---       #106
      00FFB600H   LINE      CODE     ---       #107
      00FFB60FH   LINE      CODE     ---       #108
      00FFB614H   LINE      CODE     ---       #109
      00FFB623H   LINE      CODE     ---       #110
      00FFB632H   LINE      CODE     ---       #111
      00FFB637H   LINE      CODE     ---       #112
      00FFB63AH   LINE      CODE     ---       #113
      00FFB646H   LINE      CODE     ---       #115
      00FFB64BH   LINE      CODE     ---       #116
      00FFB65AH   LINE      CODE     ---       #117
      00FFB669H   LINE      CODE     ---       #118
      00FFB66EH   LINE      CODE     ---       #119
      00FFB67DH   LINE      CODE     ---       #120
      00FFB68CH   LINE      CODE     ---       #121
      00FFB691H   LINE      CODE     ---       #122
      00FFB693H   LINE      CODE     ---       #125
      00FFB698H   LINE      CODE     ---       #126
      00FFB6A7H   LINE      CODE     ---       #127
      00FFB6B6H   LINE      CODE     ---       #128
      00FFB6BBH   LINE      CODE     ---       #129
      00FFB6CAH   LINE      CODE     ---       #130
      00FFB6D9H   LINE      CODE     ---       #131
      00FFB6DEH   LINE      CODE     ---       #132
      00FFB6DEH   LINE      CODE     ---       #133
      ---         BLOCKEND  ---      ---       LVL=0

      00FFDE73H   BLOCK     CODE     ---       LVL=0
      0001139DH   SYMBOL    XDATA    WORD      color
      00FFDE79H   BLOCK     CODE     NEAR LAB  LVL=1
      0001139FH   SYMBOL    XDATA    WORD      i
      000113A1H   SYMBOL    XDATA    WORD      j
      ---         BLOCKEND  ---      ---       LVL=1
      00FFDE73H   LINE      CODE     ---       #141
      00FFDE79H   LINE      CODE     ---       #142
      00FFDE79H   LINE      CODE     ---       #144
      00FFDE90H   LINE      CODE     ---       #146
      00FFDE9AH   LINE      CODE     ---       #148
      00FFDEA4H   LINE      CODE     ---       #150
      00FFDEAFH   LINE      CODE     ---       #151
      00FFDECAH   LINE      CODE     ---       #152
      00FFDEE5H   LINE      CODE     ---       #153
      ---         BLOCKEND  ---      ---       LVL=0

      00FFE689H   BLOCK     CODE     ---       LVL=0
      000114F8H   SYMBOL    XDATA    INT       dir
L251 LINKER/LOCATER V4.66.93.0                                                        05/06/2025  18:54:37  PAGE 89


      00FFE689H   LINE      CODE     ---       #161
      00FFE68FH   LINE      CODE     ---       #163
      00FFE69BH   LINE      CODE     ---       #164
      00FFE6A7H   LINE      CODE     ---       #166
      00FFE6ADH   LINE      CODE     ---       #167
      00FFE6B3H   LINE      CODE     ---       #168
      00FFE6B5H   LINE      CODE     ---       #171
      00FFE6BBH   LINE      CODE     ---       #172
      00FFE6C1H   LINE      CODE     ---       #173
      00FFE6C1H   LINE      CODE     ---       #174
      ---         BLOCKEND  ---      ---       LVL=0

      00FF0066H   BLOCK     CODE     ---       LVL=0
      00011464H   SYMBOL    XDATA    WORD      pen
      00011466H   SYMBOL    XDATA    WORD      bgcolor
      00FF0066H   LINE      CODE     ---       #183
      00FF0072H   LINE      CODE     ---       #185
      00FF007EH   LINE      CODE     ---       #186
      00FF008AH   LINE      CODE     ---       #187
      ---         BLOCKEND  ---      ---       LVL=0
      000113A3H   SYMBOL    XDATA    WORD      x
      000113A5H   SYMBOL    XDATA    WORD      y
      000113A7H   SYMBOL    XDATA    WORD      color

      00FFCDEBH   BLOCK     CODE     ---       LVL=0
      0001130AH   SYMBOL    XDATA    WORD      x
      0001130CH   SYMBOL    XDATA    WORD      y
      0001130EH   SYMBOL    XDATA    CHAR      dat
      00FFCDFBH   BLOCK     CODE     NEAR LAB  LVL=1
      0001130FH   SYMBOL    XDATA    BYTE      i
      00011310H   SYMBOL    XDATA    BYTE      j
      00011311H   SYMBOL    XDATA    BYTE      temp
      ---         BLOCKEND  ---      ---       LVL=1
      00FFCDEBH   LINE      CODE     ---       #214
      00FFCDFBH   LINE      CODE     ---       #215
      00FFCDFBH   LINE      CODE     ---       #222
      00FFCE03H   LINE      CODE     ---       #224
      00FFCE32H   LINE      CODE     ---       #225
      00FFCE58H   LINE      CODE     ---       #226
      00FFCE5FH   LINE      CODE     ---       #228
      00FFCE66H   LINE      CODE     ---       #229
      00FFCE73H   LINE      CODE     ---       #231
      00FFCE7EH   LINE      CODE     ---       #232
      00FFCE85H   LINE      CODE     ---       #233
      00FFCE94H   LINE      CODE     ---       #234
      00FFCEA6H   LINE      CODE     ---       #235
      ---         BLOCKEND  ---      ---       LVL=0

      00FFDDFEH   BLOCK     CODE     ---       LVL=0
      000111A2H   SYMBOL    XDATA    WORD      x
      000111A4H   SYMBOL    XDATA    WORD      y
      000111A6H   SYMBOL    XDATA    ---       dat
      00FFDE14H   BLOCK     CODE     NEAR LAB  LVL=1
      000111AAH   SYMBOL    XDATA    WORD      j
      ---         BLOCKEND  ---      ---       LVL=1
      00FFDDFEH   LINE      CODE     ---       #245
      00FFDE14H   LINE      CODE     ---       #246
      00FFDE14H   LINE      CODE     ---       #250
      00FFDE1CH   LINE      CODE     ---       #251
      00FFDE1EH   LINE      CODE     ---       #253
      00FFDE50H   LINE      CODE     ---       #254
      00FFDE5BH   LINE      CODE     ---       #255
      00FFDE72H   LINE      CODE     ---       #256
      ---         BLOCKEND  ---      ---       LVL=0
      00011287H   SYMBOL    XDATA    WORD      x
L251 LINKER/LOCATER V4.66.93.0                                                        05/06/2025  18:54:37  PAGE 90


      00011289H   SYMBOL    XDATA    WORD      y
      0001128BH   SYMBOL    XDATA    CHAR      dat
      0001128CH   SYMBOL    XDATA    ---       a
      0001128FH   SYMBOL    XDATA    BYTE      i

      00FFD70BH   BLOCK     CODE     ---       LVL=0
      00011290H   SYMBOL    XDATA    WORD      x
      00011292H   SYMBOL    XDATA    WORD      y
      00011294H   SYMBOL    XDATA    BYTE      dat
      00FFD71BH   BLOCK     CODE     NEAR LAB  LVL=1
      00011295H   SYMBOL    XDATA    ---       a
      00011298H   SYMBOL    XDATA    BYTE      i
      ---         BLOCKEND  ---      ---       LVL=1
      00FFD70BH   LINE      CODE     ---       #300
      00FFD71BH   LINE      CODE     ---       #301
      00FFD71BH   LINE      CODE     ---       #308
      00FFD72BH   LINE      CODE     ---       #309
      00FFD744H   LINE      CODE     ---       #310
      00FFD757H   LINE      CODE     ---       #311
      00FFD75CH   LINE      CODE     ---       #312
      00FFD75EH   LINE      CODE     ---       #314
      00FFD790H   LINE      CODE     ---       #315
      00FFD796H   LINE      CODE     ---       #316
      00FFD79FH   LINE      CODE     ---       #318
      ---         BLOCKEND  ---      ---       LVL=0
      00010E7EH   SYMBOL    XDATA    WORD      x
      00010E80H   SYMBOL    XDATA    WORD      y
      00010E82H   SYMBOL    XDATA    INT       dat
      00010E84H   SYMBOL    XDATA    ---       a
      00010E89H   SYMBOL    XDATA    BYTE      i
      00010E8AH   SYMBOL    XDATA    WORD      x
      00010E8CH   SYMBOL    XDATA    WORD      y
      00010E8EH   SYMBOL    XDATA    WORD      dat
      00010E90H   SYMBOL    XDATA    ---       a
      00010E95H   SYMBOL    XDATA    BYTE      i
      00010A45H   SYMBOL    XDATA    WORD      x
      00010A47H   SYMBOL    XDATA    WORD      y
      00010A49H   SYMBOL    XDATA    LONG      dat
      00010A4DH   SYMBOL    XDATA    BYTE      num
      00010A4EH   SYMBOL    XDATA    ---       buff
      00010A70H   SYMBOL    XDATA    BYTE      length

      00FFA768H   BLOCK     CODE     ---       LVL=0
      00010A11H   SYMBOL    XDATA    WORD      x
      00010A13H   SYMBOL    XDATA    WORD      y
      00010A15H   SYMBOL    XDATA    DOUBLE    dat
      00010A1DH   SYMBOL    XDATA    BYTE      num
      00010A1EH   SYMBOL    XDATA    BYTE      pointnum
      00FFA77EH   BLOCK     CODE     NEAR LAB  LVL=1
      00010A1FH   SYMBOL    XDATA    BYTE      length
      00010A20H   SYMBOL    XDATA    ---       buff
      00010A42H   SYMBOL    XDATA    CHAR      start
      00010A43H   SYMBOL    XDATA    CHAR      end
      00010A44H   SYMBOL    XDATA    CHAR      point
      ---         BLOCKEND  ---      ---       LVL=1
      00FFA768H   LINE      CODE     ---       #439
      00FFA77EH   LINE      CODE     ---       #440
      00FFA77EH   LINE      CODE     ---       #448
      00FFA78DH   LINE      CODE     ---       #449
      00FFA79CH   LINE      CODE     ---       #451
      00FFA7F6H   LINE      CODE     ---       #454
      00FFA833H   LINE      CODE     ---       #455
      00FFA839H   LINE      CODE     ---       #456
      00FFA839H   LINE      CODE     ---       #457
      00FFA847H   LINE      CODE     ---       #458
L251 LINKER/LOCATER V4.66.93.0                                                        05/06/2025  18:54:37  PAGE 91


      00FFA85BH   LINE      CODE     ---       #459
      00FFA86FH   LINE      CODE     ---       #460
      00FFA871H   LINE      CODE     ---       #462
      00FFA887H   LINE      CODE     ---       #463
      00FFA88DH   LINE      CODE     ---       #464
      00FFA893H   LINE      CODE     ---       #465
      00FFA89CH   LINE      CODE     ---       #467
      00FFA8CFH   LINE      CODE     ---       #468
      00FFA8E5H   LINE      CODE     ---       #470
      00FFA8FAH   LINE      CODE     ---       #472
      00FFA911H   LINE      CODE     ---       #473
      ---         BLOCKEND  ---      ---       LVL=0
      00010AE8H   SYMBOL    XDATA    WORD      x
      00010AEAH   SYMBOL    XDATA    WORD      y
      00010AECH   SYMBOL    XDATA    ---       p
      00010AF0H   SYMBOL    XDATA    WORD      width
      00010AF2H   SYMBOL    XDATA    WORD      value_max
      00010AF4H   SYMBOL    XDATA    WORD      dis_width
      00010AF6H   SYMBOL    XDATA    WORD      dis_value_max
      00010AF8H   SYMBOL    XDATA    DWORD     i
      00010AFCH   SYMBOL    XDATA    DWORD     j
      00010B00H   SYMBOL    XDATA    DWORD     width_index
      00010B04H   SYMBOL    XDATA    DWORD     value_max_index
      00010BB5H   SYMBOL    XDATA    WORD      x
      00010BB7H   SYMBOL    XDATA    WORD      y
      00010BB9H   SYMBOL    XDATA    BYTE      siz
      00010BBAH   SYMBOL    XDATA    ---       p
      00010BBEH   SYMBOL    XDATA    BYTE      number
      00010BBFH   SYMBOL    XDATA    WORD      color
      00010BC1H   SYMBOL    XDATA    INT       i
      00010BC3H   SYMBOL    XDATA    INT       j
      00010BC5H   SYMBOL    XDATA    INT       k
      00010BC7H   SYMBOL    XDATA    BYTE      temp
      00010BC8H   SYMBOL    XDATA    BYTE      temp1
      00010BC9H   SYMBOL    XDATA    BYTE      temp2
      00010BCAH   SYMBOL    XDATA    ---       p_data

      00FF97C7H   BLOCK     CODE     ---       LVL=0
      00FF97C7H   LINE      CODE     ---       #564
      00FF97C7H   LINE      CODE     ---       #571
      00FF97FEH   LINE      CODE     ---       #579
      00FF9807H   LINE      CODE     ---       #580
      00FF9816H   LINE      CODE     ---       #582
      00FF9818H   LINE      CODE     ---       #583
      00FF981FH   LINE      CODE     ---       #585
      00FF9821H   LINE      CODE     ---       #586
      00FF9828H   LINE      CODE     ---       #588
      00FF982DH   LINE      CODE     ---       #589
      00FF9834H   LINE      CODE     ---       #590
      00FF9846H   LINE      CODE     ---       #591
      00FF985BH   LINE      CODE     ---       #592
      00FF9870H   LINE      CODE     ---       #593
      00FF9877H   LINE      CODE     ---       #595
      00FF987CH   LINE      CODE     ---       #596
      00FF9883H   LINE      CODE     ---       #598
      00FF9888H   LINE      CODE     ---       #599
      00FF988FH   LINE      CODE     ---       #600
      00FF9896H   LINE      CODE     ---       #601
      00FF989CH   LINE      CODE     ---       #602
      00FF98A3H   LINE      CODE     ---       #603
      00FF98AAH   LINE      CODE     ---       #605
      00FF98AFH   LINE      CODE     ---       #606
      00FF98B6H   LINE      CODE     ---       #608
      00FF98BBH   LINE      CODE     ---       #609
      00FF98C2H   LINE      CODE     ---       #611
L251 LINKER/LOCATER V4.66.93.0                                                        05/06/2025  18:54:37  PAGE 92


      00FF98C7H   LINE      CODE     ---       #612
      00FF98CEH   LINE      CODE     ---       #614
      00FF98D3H   LINE      CODE     ---       #615
      00FF98DAH   LINE      CODE     ---       #617
      00FF98DFH   LINE      CODE     ---       #618
      00FF98E6H   LINE      CODE     ---       #620
      00FF98EBH   LINE      CODE     ---       #621
      00FF98F2H   LINE      CODE     ---       #623
      00FF98F7H   LINE      CODE     ---       #624
      00FF98FEH   LINE      CODE     ---       #626
      00FF9903H   LINE      CODE     ---       #627
      00FF990AH   LINE      CODE     ---       #628
      00FF9911H   LINE      CODE     ---       #630
      00FF9916H   LINE      CODE     ---       #631
      00FF991DH   LINE      CODE     ---       #632
      00FF9924H   LINE      CODE     ---       #633
      00FF992BH   LINE      CODE     ---       #634
      00FF9932H   LINE      CODE     ---       #635
      00FF9939H   LINE      CODE     ---       #636
      00FF9940H   LINE      CODE     ---       #637
      00FF9947H   LINE      CODE     ---       #638
      00FF994EH   LINE      CODE     ---       #639
      00FF9955H   LINE      CODE     ---       #640
      00FF995CH   LINE      CODE     ---       #641
      00FF9963H   LINE      CODE     ---       #642
      00FF996AH   LINE      CODE     ---       #643
      00FF9971H   LINE      CODE     ---       #644
      00FF9978H   LINE      CODE     ---       #646
      00FF997DH   LINE      CODE     ---       #647
      00FF9984H   LINE      CODE     ---       #648
      00FF998BH   LINE      CODE     ---       #649
      00FF9992H   LINE      CODE     ---       #650
      00FF9999H   LINE      CODE     ---       #651
      00FF99A0H   LINE      CODE     ---       #652
      00FF99A7H   LINE      CODE     ---       #653
      00FF99AEH   LINE      CODE     ---       #654
      00FF99B5H   LINE      CODE     ---       #655
      00FF99BCH   LINE      CODE     ---       #656
      00FF99C3H   LINE      CODE     ---       #657
      00FF99CAH   LINE      CODE     ---       #658
      00FF99D1H   LINE      CODE     ---       #659
      00FF99D8H   LINE      CODE     ---       #660
      00FF99DFH   LINE      CODE     ---       #662
      00FF99E4H   LINE      CODE     ---       #664
      00FF99E9H   LINE      CODE     ---       #665
      00FF99F0H   LINE      CODE     ---       #667
      00FF99F5H   LINE      CODE     ---       #669
      00FF99FEH   LINE      CODE     ---       #670
      ---         BLOCKEND  ---      ---       LVL=0

      ---         MODULE    ---      ---       zf_device_ble6a20
      00FFE01CH   PUBLIC    CODE     ---       ble6a20_read_buffer
      00FFB9A5H   PUBLIC    CODE     ---       ble6a20_send_string
      00FFE86EH   PUBLIC    CODE     ---       ble6a20_callback
      00FFDC04H   PUBLIC    CODE     ---       ble6a20_init
      00FFE351H   PUBLIC    CODE     ---       ble6a20_send_byte
      000000D0H   SFRSYM    DATA     BYTE      PSW
      0000009DH   SFRSYM    DATA     BYTE      IRCBAND
      00000097H   SFRSYM    DATA     BYTE      AUXR2
      000000EFH   SFRSYM    DATA     BYTE      AUXINTIF
      000000FDH   SFRSYM    DATA     BYTE      S4CON
      000000ACH   SFRSYM    DATA     BYTE      S3CON
      0000009AH   SFRSYM    DATA     BYTE      S2CON
      000000B7H   SFRSYM    DATA     BYTE      IPH
      000000CDH   SFRSYM    DATA     BYTE      SPSTAT
L251 LINKER/LOCATER V4.66.93.0                                                        05/06/2025  18:54:37  PAGE 93


      000000DDH   SFRSYM    DATA     BYTE      T4T3M
      000000C1H   SFRSYM    DATA     BYTE      WDT_CONTR
      000000DFH   SFRSYM    DATA     BYTE      IP3
      000000F4H   SFRSYM    DATA     BYTE      USBCON
      000000B5H   SFRSYM    DATA     BYTE      IP2
      000000FFH   SFRSYM    DATA     BYTE      RSTCFG
      000000C7H   SFRSYM    DATA     BYTE      IAP_CONTR
      0000008EH   SFRSYM    DATA     BYTE      AUXR
      000000AFH   SFRSYM    DATA     BYTE      IE2
      00000088H   SFRSYM    DATA     BYTE      TCON
      00000089H   SFRSYM    DATA     BYTE      TMOD
      00000098H   SFRSYM    DATA     BYTE      SCON
      00000087H   SFRSYM    DATA     BYTE      PCON
      000000BCH   SFRSYM    DATA     BYTE      ADC_CONTR
      000000D1H   SFRSYM    DATA     BYTE      PSW1
      000000E7H   SFRSYM    DATA     BYTE      CMPCR2
      000000E6H   SFRSYM    DATA     BYTE      CMPCR1
      000000DEH   SFRSYM    DATA     BYTE      ADCCFG
      000000B8H   SFRSYM    DATA     BYTE      IP
      0000008FH   SFRSYM    DATA     BYTE      INTCLKO
      000000EEH   SFRSYM    DATA     BYTE      IP3H
      000000B6H   SFRSYM    DATA     BYTE      IP2H
      000000BFH   SFRSYM    DATA     BYTE      P_SW4
      000000A8H   SFRSYM    DATA     BYTE      IE
      000000BBH   SFRSYM    DATA     BYTE      P_SW3
      000000BAH   SFRSYM    DATA     BYTE      P_SW2
      000000A2H   SFRSYM    DATA     BYTE      P_SW1
      000000CEH   SFRSYM    DATA     BYTE      SPCTL
      000000F8H   SFRSYM    DATA     BYTE      P7
      000000E8H   SFRSYM    DATA     BYTE      P6
      000000C8H   SFRSYM    DATA     BYTE      P5
      000000C0H   SFRSYM    DATA     BYTE      P4
      000000ABH   SFRSYM    DATA     BYTE      WKTCH
      000000B0H   SFRSYM    DATA     BYTE      P3
      000000A0H   SFRSYM    DATA     BYTE      P2
      00000090H   SFRSYM    DATA     BYTE      P1
      00000080H   SFRSYM    DATA     BYTE      P0
      0001080DH   SYMBOL    XDATA    ---       ble6a20_buffer
      0001084DH   SYMBOL    XDATA    ---       ble6a20_fifo
      00FFEE9BH   SYMBOL    HCONST   ---       ?tpl?0001

      00FFE351H   BLOCK     CODE     ---       LVL=0
      000114E3H   SYMBOL    XDATA    BYTE      dat
      00FFE355H   BLOCK     CODE     NEAR LAB  LVL=1
      000114E4H   SYMBOL    XDATA    WORD      time_count
      ---         BLOCKEND  ---      ---       LVL=1
      00FFE351H   LINE      CODE     ---       #73
      00FFE355H   LINE      CODE     ---       #74
      00FFE355H   LINE      CODE     ---       #75
      00FFE35FH   LINE      CODE     ---       #77
      00FFE361H   LINE      CODE     ---       #79
      00FFE36AH   LINE      CODE     ---       #81
      00FFE375H   LINE      CODE     ---       #82
      00FFE377H   LINE      CODE     ---       #83
      00FFE377H   LINE      CODE     ---       #85
      00FFE382H   LINE      CODE     ---       #86
      00FFE389H   LINE      CODE     ---       #87
      00FFE393H   LINE      CODE     ---       #89
      00FFE3A5H   LINE      CODE     ---       #90
      ---         BLOCKEND  ---      ---       LVL=0
      000111ACH   SYMBOL    XDATA    ---       buff
      000111B0H   SYMBOL    XDATA    DWORD     len
      000111B4H   SYMBOL    XDATA    WORD      time_count

      00FFB9A5H   BLOCK     CODE     ---       LVL=0
L251 LINKER/LOCATER V4.66.93.0                                                        05/06/2025  18:54:37  PAGE 94


      0001060FH   SYMBOL    XDATA    ---       str
      00FFB9AFH   BLOCK     CODE     NEAR LAB  LVL=1
      00010613H   SYMBOL    XDATA    WORD      time_count
      00010615H   SYMBOL    XDATA    DWORD     len
      00010619H   SYMBOL    XDATA    ---       temp
      ---         BLOCKEND  ---      ---       LVL=1
      00FFB9A5H   LINE      CODE     ---       #144
      00FFB9AFH   LINE      CODE     ---       #145
      00FFB9AFH   LINE      CODE     ---       #146
      00FFB9B7H   LINE      CODE     ---       #147
      00FFB9D0H   LINE      CODE     ---       #148
      00FFB9E5H   LINE      CODE     ---       #151
      00FFB9E8H   LINE      CODE     ---       #153
      00FFB9F4H   LINE      CODE     ---       #155
      00FFBA04H   LINE      CODE     ---       #157
      00FFBA21H   LINE      CODE     ---       #158
      00FFBA34H   LINE      CODE     ---       #159
      00FFBA49H   LINE      CODE     ---       #160
      00FFBA5EH   LINE      CODE     ---       #161
      00FFBA66H   LINE      CODE     ---       #162
      00FFBA68H   LINE      CODE     ---       #165
      00FFBA8BH   LINE      CODE     ---       #166
      00FFBAA6H   LINE      CODE     ---       #167
      00FFBAB2H   LINE      CODE     ---       #168
      00FFBAB4H   LINE      CODE     ---       #169
      00FFBAB4H   LINE      CODE     ---       #170
      00FFBAB4H   LINE      CODE     ---       #173
      00FFBAC5H   LINE      CODE     ---       #175
      00FFBAC5H   LINE      CODE     ---       #176
      00FFBAC5H   LINE      CODE     ---       #178
      00FFBACCH   LINE      CODE     ---       #179
      00FFBACCH   LINE      CODE     ---       #180
      00FFBADDH   LINE      CODE     ---       #182
      00FFBAE7H   LINE      CODE     ---       #183
      ---         BLOCKEND  ---      ---       LVL=0

      00FFE01CH   BLOCK     CODE     ---       LVL=0
      00010E96H   SYMBOL    XDATA    ---       buff
      00010E9AH   SYMBOL    XDATA    DWORD     len
      00FFE030H   BLOCK     CODE     NEAR LAB  LVL=1
      00010E9EH   SYMBOL    XDATA    DWORD     data_len
      ---         BLOCKEND  ---      ---       LVL=1
      00FFE01CH   LINE      CODE     ---       #194
      00FFE030H   LINE      CODE     ---       #195
      00FFE030H   LINE      CODE     ---       #196
      00FFE044H   LINE      CODE     ---       #198
      00FFE073H   LINE      CODE     ---       #199
      00FFE07DH   LINE      CODE     ---       #200
      ---         BLOCKEND  ---      ---       LVL=0

      00FFE86EH   BLOCK     CODE     ---       LVL=0
      0001150FH   SYMBOL    XDATA    BYTE      uart_dat
      00FFE86EH   LINE      CODE     ---       #211
      00FFE872H   LINE      CODE     ---       #214
      00FFE893H   LINE      CODE     ---       #215
      ---         BLOCKEND  ---      ---       LVL=0

      00FFDC04H   BLOCK     CODE     ---       LVL=0
      00011510H   SYMBOL    XDATA    BYTE      return_state
      00FFDC04H   LINE      CODE     ---       #224
      00FFDC04H   LINE      CODE     ---       #225
      00FFDC04H   LINE      CODE     ---       #226
      00FFDC09H   LINE      CODE     ---       #229
      00FFDC10H   LINE      CODE     ---       #231
      00FFDC23H   LINE      CODE     ---       #233
L251 LINKER/LOCATER V4.66.93.0                                                        05/06/2025  18:54:37  PAGE 95


      00FFDC50H   LINE      CODE     ---       #234
      00FFDC61H   LINE      CODE     ---       #237
      00FFDC7EH   LINE      CODE     ---       #238
      00FFDC87H   LINE      CODE     ---       #240
      00FFDC8BH   LINE      CODE     ---       #241
      ---         BLOCKEND  ---      ---       LVL=0

      ---         MODULE    ---      ---       zf_device_imu660ra
      00FFDD0EH   PUBLIC    CODE     ---       imu660ra_get_gyro
      00FF99FFH   PUBLIC    CODE     ---       imu660ra_init
      00FFDD86H   PUBLIC    CODE     ---       imu660ra_get_acc
      00010B08H   PUBLIC    XDATA    INT       imu660ra_acc_x
      00010B0AH   PUBLIC    XDATA    INT       imu660ra_acc_y
      00010B0CH   PUBLIC    XDATA    INT       imu660ra_acc_z
      00010B0EH   PUBLIC    XDATA    INT       imu660ra_gyro_x
      00010B10H   PUBLIC    XDATA    INT       imu660ra_gyro_y
      00010B12H   PUBLIC    XDATA    INT       imu660ra_gyro_z
      00010B14H   PUBLIC    XDATA    ---       imu660ra_transition_factor
      00010B1CH   PUBLIC    XDATA    INT       imu_acc_x_pre
      00010B1EH   PUBLIC    XDATA    INT       imu_acc_y_pre
      00010B20H   PUBLIC    XDATA    INT       imu_acc_z_pre
      00010B22H   PUBLIC    XDATA    INT       imu_gyro_x_pre
      00010B24H   PUBLIC    XDATA    INT       imu_gyro_y_pre
      00010B26H   PUBLIC    XDATA    INT       imu_gyro_z_pre
      000000D0H   SFRSYM    DATA     BYTE      PSW
      0000009DH   SFRSYM    DATA     BYTE      IRCBAND
      00000097H   SFRSYM    DATA     BYTE      AUXR2
      000000EFH   SFRSYM    DATA     BYTE      AUXINTIF
      000000FDH   SFRSYM    DATA     BYTE      S4CON
      000000ACH   SFRSYM    DATA     BYTE      S3CON
      0000009AH   SFRSYM    DATA     BYTE      S2CON
      000000B7H   SFRSYM    DATA     BYTE      IPH
      000000CDH   SFRSYM    DATA     BYTE      SPSTAT
      000000DDH   SFRSYM    DATA     BYTE      T4T3M
      000000C1H   SFRSYM    DATA     BYTE      WDT_CONTR
      000000DFH   SFRSYM    DATA     BYTE      IP3
      000000F4H   SFRSYM    DATA     BYTE      USBCON
      000000B5H   SFRSYM    DATA     BYTE      IP2
      000000FFH   SFRSYM    DATA     BYTE      RSTCFG
      000000C7H   SFRSYM    DATA     BYTE      IAP_CONTR
      0000008EH   SFRSYM    DATA     BYTE      AUXR
      000000AFH   SFRSYM    DATA     BYTE      IE2
      00000088H   SFRSYM    DATA     BYTE      TCON
      00000089H   SFRSYM    DATA     BYTE      TMOD
      00000098H   SFRSYM    DATA     BYTE      SCON
      00000087H   SFRSYM    DATA     BYTE      PCON
      000000BCH   SFRSYM    DATA     BYTE      ADC_CONTR
      000000D1H   SFRSYM    DATA     BYTE      PSW1
      000000E7H   SFRSYM    DATA     BYTE      CMPCR2
      000000E6H   SFRSYM    DATA     BYTE      CMPCR1
      000000DEH   SFRSYM    DATA     BYTE      ADCCFG
      000000B8H   SFRSYM    DATA     BYTE      IP
      0000008FH   SFRSYM    DATA     BYTE      INTCLKO
      000000EEH   SFRSYM    DATA     BYTE      IP3H
      000000B6H   SFRSYM    DATA     BYTE      IP2H
      000000BFH   SFRSYM    DATA     BYTE      P_SW4
      000000A8H   SFRSYM    DATA     BYTE      IE
      000000BBH   SFRSYM    DATA     BYTE      P_SW3
      000000BAH   SFRSYM    DATA     BYTE      P_SW2
      000000A2H   SFRSYM    DATA     BYTE      P_SW1
      000000CEH   SFRSYM    DATA     BYTE      SPCTL
      000000F8H   SFRSYM    DATA     BYTE      P7
      000000E8H   SFRSYM    DATA     BYTE      P6
      000000C8H   SFRSYM    DATA     BYTE      P5
      000000C0H   SFRSYM    DATA     BYTE      P4
L251 LINKER/LOCATER V4.66.93.0                                                        05/06/2025  18:54:37  PAGE 96


      000000ABH   SFRSYM    DATA     BYTE      WKTCH
      000000B0H   SFRSYM    DATA     BYTE      P3
      000000A0H   SFRSYM    DATA     BYTE      P2
      00000090H   SFRSYM    DATA     BYTE      P1
      00000080H   SFRSYM    DATA     BYTE      P0
      00FFE613H   SYMBOL    CODE     ---       imu660ra_read_register
      00FFE3A6H   SYMBOL    CODE     ---       imu660ra_write_registers
      00FFE7C7H   SYMBOL    CODE     ---       imu660ra_write_register
      00FFE07EH   SYMBOL    CODE     ---       imu660ra_self_check
      00FFCEA7H   SYMBOL    CODE     ---       imu660ra_read_registers

      00FFE7C7H   BLOCK     CODE     ---       LVL=0
      000114FAH   SYMBOL    XDATA    BYTE      reg
      000114FBH   SYMBOL    XDATA    BYTE      dat
      00FFE7C7H   LINE      CODE     ---       #92
      00FFE7D1H   LINE      CODE     ---       #94
      00FFE7D9H   LINE      CODE     ---       #95
      00FFE7EAH   LINE      CODE     ---       #96
      00FFE7F3H   LINE      CODE     ---       #97
      ---         BLOCKEND  ---      ---       LVL=0

      00FFE3A6H   BLOCK     CODE     ---       LVL=0
      00011299H   SYMBOL    XDATA    BYTE      reg
      0001129AH   SYMBOL    XDATA    ---       dat
      0001129EH   SYMBOL    XDATA    DWORD     len
      00FFE3A6H   LINE      CODE     ---       #107
      00FFE3BEH   LINE      CODE     ---       #109
      00FFE3C6H   LINE      CODE     ---       #110
      00FFE3EFH   LINE      CODE     ---       #111
      00FFE3F8H   LINE      CODE     ---       #112
      ---         BLOCKEND  ---      ---       LVL=0

      00FFE613H   BLOCK     CODE     ---       LVL=0
      000114E6H   SYMBOL    XDATA    BYTE      reg
      00FFE617H   BLOCK     CODE     NEAR LAB  LVL=1
      000114E7H   SYMBOL    XDATA    ---       dat
      ---         BLOCKEND  ---      ---       LVL=1
      00FFE613H   LINE      CODE     ---       #121
      00FFE617H   LINE      CODE     ---       #122
      00FFE617H   LINE      CODE     ---       #124
      00FFE61FH   LINE      CODE     ---       #125
      00FFE642H   LINE      CODE     ---       #126
      00FFE64BH   LINE      CODE     ---       #127
      00FFE64FH   LINE      CODE     ---       #128
      ---         BLOCKEND  ---      ---       LVL=0

      00FFCEA7H   BLOCK     CODE     ---       LVL=0
      00010CAAH   SYMBOL    XDATA    BYTE      reg
      00010CABH   SYMBOL    XDATA    ---       dat
      00010CAFH   SYMBOL    XDATA    DWORD     len
      00FFCEBFH   BLOCK     CODE     NEAR LAB  LVL=1
      00010CB3H   SYMBOL    XDATA    WORD      i
      00010CB5H   SYMBOL    XDATA    ---       temp_data
      ---         BLOCKEND  ---      ---       LVL=1
      00FFCEA7H   LINE      CODE     ---       #139
      00FFCEBFH   LINE      CODE     ---       #140
      00FFCEBFH   LINE      CODE     ---       #141
      00FFCEC7H   LINE      CODE     ---       #143
      00FFCECFH   LINE      CODE     ---       #144
      00FFCEFAH   LINE      CODE     ---       #145
      00FFCF03H   LINE      CODE     ---       #147
      00FFCF0DH   LINE      CODE     ---       #149
      00FFCF41H   LINE      CODE     ---       #150
      00FFCF62H   LINE      CODE     ---       #151
      ---         BLOCKEND  ---      ---       LVL=0
L251 LINKER/LOCATER V4.66.93.0                                                        05/06/2025  18:54:37  PAGE 97



      00FFE07EH   BLOCK     CODE     ---       LVL=0
      00011468H   SYMBOL    XDATA    BYTE      dat
      00011469H   SYMBOL    XDATA    BYTE      return_state
      0001146AH   SYMBOL    XDATA    WORD      timeout_count
      00FFE07EH   LINE      CODE     ---       #161
      00FFE07EH   LINE      CODE     ---       #162
      00FFE07EH   LINE      CODE     ---       #163
      00FFE088H   LINE      CODE     ---       #164
      00FFE090H   LINE      CODE     ---       #166
      00FFE090H   LINE      CODE     ---       #168
      00FFE0A3H   LINE      CODE     ---       #170
      00FFE0A9H   LINE      CODE     ---       #171
      00FFE0ABH   LINE      CODE     ---       #172
      00FFE0ABH   LINE      CODE     ---       #174
      00FFE0B3H   LINE      CODE     ---       #175
      00FFE0CAH   LINE      CODE     ---       #176
      00FFE0D1H   LINE      CODE     ---       #177
      00FFE0D8H   LINE      CODE     ---       #180
      00FFE0DCH   LINE      CODE     ---       #181
      ---         BLOCKEND  ---      ---       LVL=0

      00FFDD86H   BLOCK     CODE     ---       LVL=0
      000113A9H   SYMBOL    XDATA    ---       dat
      00FFDD86H   LINE      CODE     ---       #191
      00FFDD86H   LINE      CODE     ---       #192
      00FFDD86H   LINE      CODE     ---       #195
      00FFDD92H   LINE      CODE     ---       #196
      00FFDD9EH   LINE      CODE     ---       #197
      00FFDDAAH   LINE      CODE     ---       #199
      00FFDDBBH   LINE      CODE     ---       #200
      00FFDDD1H   LINE      CODE     ---       #201
      00FFDDE7H   LINE      CODE     ---       #202
      00FFDDFDH   LINE      CODE     ---       #203
      ---         BLOCKEND  ---      ---       LVL=0

      00FFDD0EH   BLOCK     CODE     ---       LVL=0
      000113AFH   SYMBOL    XDATA    ---       dat
      00FFDD0EH   LINE      CODE     ---       #212
      00FFDD0EH   LINE      CODE     ---       #213
      00FFDD0EH   LINE      CODE     ---       #216
      00FFDD1AH   LINE      CODE     ---       #217
      00FFDD26H   LINE      CODE     ---       #218
      00FFDD32H   LINE      CODE     ---       #220
      00FFDD43H   LINE      CODE     ---       #221
      00FFDD59H   LINE      CODE     ---       #222
      00FFDD6FH   LINE      CODE     ---       #223
      00FFDD85H   LINE      CODE     ---       #224
      ---         BLOCKEND  ---      ---       LVL=0

      00FF99FFH   BLOCK     CODE     ---       LVL=0
      00011511H   SYMBOL    XDATA    BYTE      return_state
      00FF99FFH   LINE      CODE     ---       #233
      00FF99FFH   LINE      CODE     ---       #234
      00FF99FFH   LINE      CODE     ---       #235
      00FF9A04H   LINE      CODE     ---       #236
      00FF9A0BH   LINE      CODE     ---       #241
      00FF9A44H   LINE      CODE     ---       #242
      00FF9A55H   LINE      CODE     ---       #246
      00FF9A55H   LINE      CODE     ---       #248
      00FF9A5AH   LINE      CODE     ---       #253
      00FF9A65H   LINE      CODE     ---       #254
      00FF9A6BH   LINE      CODE     ---       #255
      00FF9A6EH   LINE      CODE     ---       #256
      00FF9A6EH   LINE      CODE     ---       #258
L251 LINKER/LOCATER V4.66.93.0                                                        05/06/2025  18:54:37  PAGE 98


      00FF9A75H   LINE      CODE     ---       #259
      00FF9A7CH   LINE      CODE     ---       #260
      00FF9A83H   LINE      CODE     ---       #261
      00FF9A94H   LINE      CODE     ---       #262
      00FF9A9CH   LINE      CODE     ---       #263
      00FF9AA3H   LINE      CODE     ---       #265
      00FF9AADH   LINE      CODE     ---       #270
      00FF9AB8H   LINE      CODE     ---       #271
      00FF9ABEH   LINE      CODE     ---       #272
      00FF9AC1H   LINE      CODE     ---       #273
      00FF9AC1H   LINE      CODE     ---       #275
      00FF9AC9H   LINE      CODE     ---       #276
      00FF9AD1H   LINE      CODE     ---       #277
      00FF9AD9H   LINE      CODE     ---       #284
      00FF9AF1H   LINE      CODE     ---       #286
      00FF9AF1H   LINE      CODE     ---       #288
      00FF9AFCH   LINE      CODE     ---       #289
      00FF9B02H   LINE      CODE     ---       #291
      00FF9B04H   LINE      CODE     ---       #293
      00FF9B04H   LINE      CODE     ---       #295
      00FF9B0BH   LINE      CODE     ---       #296
      00FF9B1BH   LINE      CODE     ---       #298
      00FF9B1DH   LINE      CODE     ---       #300
      00FF9B1DH   LINE      CODE     ---       #302
      00FF9B25H   LINE      CODE     ---       #303
      00FF9B35H   LINE      CODE     ---       #305
      00FF9B37H   LINE      CODE     ---       #307
      00FF9B37H   LINE      CODE     ---       #309
      00FF9B3FH   LINE      CODE     ---       #310
      00FF9B4FH   LINE      CODE     ---       #312
      00FF9B51H   LINE      CODE     ---       #314
      00FF9B51H   LINE      CODE     ---       #316
      00FF9B59H   LINE      CODE     ---       #317
      00FF9B69H   LINE      CODE     ---       #319
      00FF9B69H   LINE      CODE     ---       #320
      00FF9B69H   LINE      CODE     ---       #322
      00FF9B75H   LINE      CODE     ---       #324
      00FF9B75H   LINE      CODE     ---       #325
      00FF9B75H   LINE      CODE     ---       #333
      00FF9B94H   LINE      CODE     ---       #335
      00FF9B94H   LINE      CODE     ---       #337
      00FF9B9FH   LINE      CODE     ---       #338
      00FF9BA5H   LINE      CODE     ---       #340
      00FF9BA8H   LINE      CODE     ---       #342
      00FF9BA8H   LINE      CODE     ---       #344
      00FF9BB0H   LINE      CODE     ---       #345
      00FF9BC2H   LINE      CODE     ---       #347
      00FF9BC4H   LINE      CODE     ---       #349
      00FF9BC4H   LINE      CODE     ---       #351
      00FF9BCCH   LINE      CODE     ---       #352
      00FF9BDEH   LINE      CODE     ---       #354
      00FF9BE0H   LINE      CODE     ---       #356
      00FF9BE0H   LINE      CODE     ---       #358
      00FF9BE8H   LINE      CODE     ---       #359
      00FF9BFAH   LINE      CODE     ---       #361
      00FF9BFCH   LINE      CODE     ---       #363
      00FF9BFCH   LINE      CODE     ---       #365
      00FF9C04H   LINE      CODE     ---       #366
      00FF9C16H   LINE      CODE     ---       #368
      00FF9C18H   LINE      CODE     ---       #370
      00FF9C18H   LINE      CODE     ---       #372
      00FF9C1FH   LINE      CODE     ---       #373
      00FF9C31H   LINE      CODE     ---       #375
      00FF9C31H   LINE      CODE     ---       #376
      00FF9C31H   LINE      CODE     ---       #378
L251 LINKER/LOCATER V4.66.93.0                                                        05/06/2025  18:54:37  PAGE 99


      00FF9C31H   LINE      CODE     ---       #380
      00FF9C31H   LINE      CODE     ---       #381
      00FF9C31H   LINE      CODE     ---       #385
      00FF9C35H   LINE      CODE     ---       #386
      ---         BLOCKEND  ---      ---       LVL=0

      ---         MODULE    ---      ---       zf_device_gps_tau1201
      00FF81F6H   PUBLIC    CODE     ---       get_two_points_distance
      00FF9E55H   PUBLIC    CODE     ---       gps_data_parse
      00FF90A3H   PUBLIC    CODE     ---       gps_init
      00FF655FH   PUBLIC    CODE     ---       get_two_points_azimuth
      00FFB0FCH   PUBLIC    CODE     ---       gps_uart_callback
      00010219H   PUBLIC    XDATA    BYTE      gps_tau1201_flag
      0001029AH   PUBLIC    XDATA    ---       gps_tau1201
      000103CEH   PUBLIC    XDATA    INT       gps_gga_state
      000103D0H   PUBLIC    XDATA    INT       gps_rmc_state
      000106FCH   PUBLIC    XDATA    BYTE      ?get_two_points_distance?BYTE
      000109D9H   PUBLIC    XDATA    BYTE      ?get_two_points_azimuth?BYTE
      000000D0H   SFRSYM    DATA     BYTE      PSW
      0000009DH   SFRSYM    DATA     BYTE      IRCBAND
      00000097H   SFRSYM    DATA     BYTE      AUXR2
      000000EFH   SFRSYM    DATA     BYTE      AUXINTIF
      000000FDH   SFRSYM    DATA     BYTE      S4CON
      000000ACH   SFRSYM    DATA     BYTE      S3CON
      0000009AH   SFRSYM    DATA     BYTE      S2CON
      000000B7H   SFRSYM    DATA     BYTE      IPH
      000000CDH   SFRSYM    DATA     BYTE      SPSTAT
      000000DDH   SFRSYM    DATA     BYTE      T4T3M
      000000C1H   SFRSYM    DATA     BYTE      WDT_CONTR
      000000DFH   SFRSYM    DATA     BYTE      IP3
      000000F4H   SFRSYM    DATA     BYTE      USBCON
      000000B5H   SFRSYM    DATA     BYTE      IP2
      000000FFH   SFRSYM    DATA     BYTE      RSTCFG
      000000C7H   SFRSYM    DATA     BYTE      IAP_CONTR
      0000008EH   SFRSYM    DATA     BYTE      AUXR
      000000AFH   SFRSYM    DATA     BYTE      IE2
      00000088H   SFRSYM    DATA     BYTE      TCON
      00000089H   SFRSYM    DATA     BYTE      TMOD
      00000098H   SFRSYM    DATA     BYTE      SCON
      00000087H   SFRSYM    DATA     BYTE      PCON
      000000BCH   SFRSYM    DATA     BYTE      ADC_CONTR
      000000D1H   SFRSYM    DATA     BYTE      PSW1
      000000E7H   SFRSYM    DATA     BYTE      CMPCR2
      000000E6H   SFRSYM    DATA     BYTE      CMPCR1
      000000DEH   SFRSYM    DATA     BYTE      ADCCFG
      000000B8H   SFRSYM    DATA     BYTE      IP
      0000008FH   SFRSYM    DATA     BYTE      INTCLKO
      000000EEH   SFRSYM    DATA     BYTE      IP3H
      000000B6H   SFRSYM    DATA     BYTE      IP2H
      000000BFH   SFRSYM    DATA     BYTE      P_SW4
      000000A8H   SFRSYM    DATA     BYTE      IE
      000000BBH   SFRSYM    DATA     BYTE      P_SW3
      000000BAH   SFRSYM    DATA     BYTE      P_SW2
      000000A2H   SFRSYM    DATA     BYTE      P_SW1
      000000CEH   SFRSYM    DATA     BYTE      SPCTL
      000000F8H   SFRSYM    DATA     BYTE      P7
      000000E8H   SFRSYM    DATA     BYTE      P6
      000000C8H   SFRSYM    DATA     BYTE      P5
      000000C0H   SFRSYM    DATA     BYTE      P4
      000000ABH   SFRSYM    DATA     BYTE      WKTCH
      000000B0H   SFRSYM    DATA     BYTE      P3
      000000A0H   SFRSYM    DATA     BYTE      P2
      00000090H   SFRSYM    DATA     BYTE      P1
      00000080H   SFRSYM    DATA     BYTE      P0
      00FFED7EH   SYMBOL    HCONST   ---       ?tpl?0001
L251 LINKER/LOCATER V4.66.93.0                                                        05/06/2025  18:54:37  PAGE 100


      00FFED83H   SYMBOL    HCONST   ---       ?tpl?0002
      00FFED9FH   SYMBOL    HCONST   ---       ?tpl?0003
      00FFEDAAH   SYMBOL    HCONST   ---       ?tpl?0004
      00FFEDB5H   SYMBOL    HCONST   ---       ?tpl?0005
      00FFEDC0H   SYMBOL    HCONST   ---       ?tpl?0006
      00FFEDCBH   SYMBOL    HCONST   ---       ?tpl?0007
      00FFEDD6H   SYMBOL    HCONST   ---       ?tpl?0008
      00FFEDE1H   SYMBOL    HCONST   ---       ?tpl?0009
      00FFEDECH   SYMBOL    HCONST   ---       ?tpl?000A
      00FFEDF7H   SYMBOL    HCONST   ---       ?tpl?000B
      00FFEE02H   SYMBOL    HCONST   ---       ?tpl?000C
      00FFEE0DH   SYMBOL    HCONST   ---       ?tpl?000D
      00FFD22BH   SYMBOL    CODE     ---       get_double_number
      00FFD835H   SYMBOL    CODE     ---       get_float_number
      00FFAC56H   SYMBOL    CODE     ---       utc_to_btc
      00FFC89BH   SYMBOL    CODE     ---       gps_gngga_parse
      00FF5390H   SYMBOL    CODE     ---       gps_gnrmc_parse
      00FFDC8CH   SYMBOL    CODE     ---       get_int_number
      00FFCD2CH   SYMBOL    CODE     ---       get_parameter_index
      00010202H   SYMBOL    XDATA    ---       gps_tau1201_receiver_fifo
      0001021AH   SYMBOL    XDATA    ---       gps_gga_buffer
      000102CDH   SYMBOL    XDATA    BYTE      gps_tau1201_state
      000102CEH   SYMBOL    XDATA    ---       gps_rmc_buffer
      0001034EH   SYMBOL    XDATA    ---       gps_tau1201_receiver_buffer

      00FFCD2CH   BLOCK     CODE     ---       LVL=0
      00010DB7H   SYMBOL    XDATA    BYTE      num
      00010DB8H   SYMBOL    XDATA    ---       str
      00FFCD3AH   BLOCK     CODE     NEAR LAB  LVL=1
      00010DBCH   SYMBOL    XDATA    BYTE      i
      00010DBDH   SYMBOL    XDATA    BYTE      j
      00010DBEH   SYMBOL    XDATA    ---       temp
      00010DC2H   SYMBOL    XDATA    BYTE      len
      00010DC3H   SYMBOL    XDATA    BYTE      len1
      ---         BLOCKEND  ---      ---       LVL=1
      00FFCD2CH   LINE      CODE     ---       #81
      00FFCD3AH   LINE      CODE     ---       #82
      00FFCD3AH   LINE      CODE     ---       #83
      00FFCD44H   LINE      CODE     ---       #84
      00FFCD5DH   LINE      CODE     ---       #85
      00FFCD67H   LINE      CODE     ---       #87
      00FFCD75H   LINE      CODE     ---       #89
      00FFCD91H   LINE      CODE     ---       #90
      00FFCD91H   LINE      CODE     ---       #92
      00FFCD98H   LINE      CODE     ---       #94
      00FFCDB0H   LINE      CODE     ---       #96
      00FFCDB6H   LINE      CODE     ---       #97
      00FFCDB6H   LINE      CODE     ---       #98
      00FFCDC4H   LINE      CODE     ---       #100
      00FFCDD0H   LINE      CODE     ---       #101
      00FFCDD2H   LINE      CODE     ---       #102
      00FFCDE6H   LINE      CODE     ---       #105
      00FFCDEAH   LINE      CODE     ---       #106
      ---         BLOCKEND  ---      ---       LVL=0

      00FFDC8CH   BLOCK     CODE     ---       LVL=0
      00010CF2H   SYMBOL    XDATA    ---       s
      00FFDC96H   BLOCK     CODE     NEAR LAB  LVL=1
      00010CF6H   SYMBOL    XDATA    ---       buf
      00010D00H   SYMBOL    XDATA    BYTE      i
      00010D01H   SYMBOL    XDATA    INT       return_value
      ---         BLOCKEND  ---      ---       LVL=1
      00FFDC8CH   LINE      CODE     ---       #115
      00FFDC96H   LINE      CODE     ---       #116
      00FFDC96H   LINE      CODE     ---       #118
L251 LINKER/LOCATER V4.66.93.0                                                        05/06/2025  18:54:37  PAGE 101


      00FFDC9BH   LINE      CODE     ---       #119
      00FFDCA3H   LINE      CODE     ---       #120
      00FFDCB6H   LINE      CODE     ---       #121
      00FFDCC2H   LINE      CODE     ---       #122
      00FFDCE1H   LINE      CODE     ---       #123
      00FFDCF6H   LINE      CODE     ---       #124
      00FFDD07H   LINE      CODE     ---       #125
      00FFDD0DH   LINE      CODE     ---       #126
      ---         BLOCKEND  ---      ---       LVL=0

      00FFD835H   BLOCK     CODE     ---       LVL=0
      00010BE6H   SYMBOL    XDATA    ---       s
      00FFD83FH   BLOCK     CODE     NEAR LAB  LVL=1
      00010BEAH   SYMBOL    XDATA    BYTE      i
      00010BEBH   SYMBOL    XDATA    ---       buf
      00010BFAH   SYMBOL    XDATA    FLOAT     return_value
      ---         BLOCKEND  ---      ---       LVL=1
      00FFD835H   LINE      CODE     ---       #135
      00FFD83FH   LINE      CODE     ---       #136
      00FFD83FH   LINE      CODE     ---       #137
      00FFD844H   LINE      CODE     ---       #139
      00FFD850H   LINE      CODE     ---       #141
      00FFD863H   LINE      CODE     ---       #142
      00FFD86FH   LINE      CODE     ---       #143
      00FFD88EH   LINE      CODE     ---       #144
      00FFD8A3H   LINE      CODE     ---       #145
      00FFD8BBH   LINE      CODE     ---       #146
      00FFD8C5H   LINE      CODE     ---       #147
      ---         BLOCKEND  ---      ---       LVL=0

      00FFD22BH   BLOCK     CODE     ---       LVL=0
      00010B80H   SYMBOL    XDATA    ---       s
      00FFD235H   BLOCK     CODE     NEAR LAB  LVL=1
      00010B84H   SYMBOL    XDATA    BYTE      i
      00010B85H   SYMBOL    XDATA    ---       buf
      00010B94H   SYMBOL    XDATA    DOUBLE    return_value
      ---         BLOCKEND  ---      ---       LVL=1
      00FFD22BH   LINE      CODE     ---       #156
      00FFD235H   LINE      CODE     ---       #157
      00FFD235H   LINE      CODE     ---       #158
      00FFD23AH   LINE      CODE     ---       #160
      00FFD250H   LINE      CODE     ---       #162
      00FFD263H   LINE      CODE     ---       #163
      00FFD26FH   LINE      CODE     ---       #164
      00FFD28EH   LINE      CODE     ---       #165
      00FFD2A3H   LINE      CODE     ---       #166
      00FFD2C0H   LINE      CODE     ---       #167
      00FFD2D2H   LINE      CODE     ---       #168
      ---         BLOCKEND  ---      ---       LVL=0

      00FFAC56H   BLOCK     CODE     ---       LVL=0
      000113EBH   SYMBOL    XDATA    ---       time
      00FFAC60H   BLOCK     CODE     NEAR LAB  LVL=1
      000113EFH   SYMBOL    XDATA    BYTE      day_num
      ---         BLOCKEND  ---      ---       LVL=1
      00FFAC56H   LINE      CODE     ---       #177
      00FFAC60H   LINE      CODE     ---       #178
      00FFAC60H   LINE      CODE     ---       #179
      00FFAC65H   LINE      CODE     ---       #181
      00FFAC87H   LINE      CODE     ---       #182
      00FFAC9DH   LINE      CODE     ---       #184
      00FFACB1H   LINE      CODE     ---       #185
      00FFACC6H   LINE      CODE     ---       #187
      00FFACD7H   LINE      CODE     ---       #189
      00FFACDDH   LINE      CODE     ---       #190
L251 LINKER/LOCATER V4.66.93.0                                                        05/06/2025  18:54:37  PAGE 102


      00FFAD1EH   LINE      CODE     ---       #192
      00FFAD24H   LINE      CODE     ---       #193
      00FFAD26H   LINE      CODE     ---       #197
      00FFAD2CH   LINE      CODE     ---       #198
      00FFAD76H   LINE      CODE     ---       #200
      00FFAD7CH   LINE      CODE     ---       #201
      00FFAD7CH   LINE      CODE     ---       #204
      00FFAD92H   LINE      CODE     ---       #206
      00FFADA2H   LINE      CODE     ---       #207
      00FFADB5H   LINE      CODE     ---       #208
      00FFADC8H   LINE      CODE     ---       #210
      00FFADDCH   LINE      CODE     ---       #211
      00FFADEEH   LINE      CODE     ---       #212
      00FFADEEH   LINE      CODE     ---       #214
      00FFADEEH   LINE      CODE     ---       #215
      ---         BLOCKEND  ---      ---       LVL=0

      00FF5390H   BLOCK     CODE     ---       LVL=0
      00010864H   SYMBOL    XDATA    ---       line
      00010868H   SYMBOL    XDATA    ---       gps
      00FF53A4H   BLOCK     CODE     NEAR LAB  LVL=1
      0001086CH   SYMBOL    XDATA    BYTE      state
      0001086DH   SYMBOL    XDATA    BYTE      temp
      0001086EH   SYMBOL    XDATA    DOUBLE    latitude
      00010876H   SYMBOL    XDATA    DOUBLE    longitude
      0001087EH   SYMBOL    XDATA    DOUBLE    lati_cent_tmp
      00010886H   SYMBOL    XDATA    DOUBLE    lati_second_tmp
      0001088EH   SYMBOL    XDATA    DOUBLE    long_cent_tmp
      00010896H   SYMBOL    XDATA    DOUBLE    long_second_tmp
      0001089EH   SYMBOL    XDATA    FLOAT     speed_tmp
      000108A2H   SYMBOL    XDATA    ---       buf
      000108A6H   SYMBOL    XDATA    BYTE      return_state
      ---         BLOCKEND  ---      ---       LVL=1
      00FF5390H   LINE      CODE     ---       #225
      00FF53A4H   LINE      CODE     ---       #226
      00FF53A4H   LINE      CODE     ---       #227
      00FF53AEH   LINE      CODE     ---       #229
      00FF53C4H   LINE      CODE     ---       #230
      00FF53DAH   LINE      CODE     ---       #232
      00FF5406H   LINE      CODE     ---       #233
      00FF5432H   LINE      CODE     ---       #234
      00FF543EH   LINE      CODE     ---       #235
      00FF5452H   LINE      CODE     ---       #236
      00FF5457H   LINE      CODE     ---       #238
      00FF547BH   LINE      CODE     ---       #240
      00FF548AH   LINE      CODE     ---       #241
      00FF5496H   LINE      CODE     ---       #243
      00FF549CH   LINE      CODE     ---       #244
      00FF54ACH   LINE      CODE     ---       #245
      00FF54DAH   LINE      CODE     ---       #246
      00FF5508H   LINE      CODE     ---       #248
      00FF553AH   LINE      CODE     ---       #249
      00FF556CH   LINE      CODE     ---       #251
      00FF5596H   LINE      CODE     ---       #252
      00FF55DBH   LINE      CODE     ---       #253
      00FF55FEH   LINE      CODE     ---       #254
      00FF5648H   LINE      CODE     ---       #255
      00FF566BH   LINE      CODE     ---       #257
      00FF5695H   LINE      CODE     ---       #258
      00FF56DAH   LINE      CODE     ---       #259
      00FF56FDH   LINE      CODE     ---       #260
      00FF5747H   LINE      CODE     ---       #261
      00FF576AH   LINE      CODE     ---       #263
      00FF57BAH   LINE      CODE     ---       #264
      00FF580AH   LINE      CODE     ---       #266
L251 LINKER/LOCATER V4.66.93.0                                                        05/06/2025  18:54:37  PAGE 103


      00FF5834H   LINE      CODE     ---       #267
      00FF585BH   LINE      CODE     ---       #268
      00FF588DH   LINE      CODE     ---       #269
      00FF588DH   LINE      CODE     ---       #272
      00FF58CBH   LINE      CODE     ---       #273
      00FF5909H   LINE      CODE     ---       #274
      00FF5947H   LINE      CODE     ---       #275
      00FF595AH   LINE      CODE     ---       #276
      00FF59A7H   LINE      CODE     ---       #277
      00FF59F5H   LINE      CODE     ---       #278
      00FF5A46H   LINE      CODE     ---       #280
      00FF5A53H   LINE      CODE     ---       #282
      00FF5A57H   LINE      CODE     ---       #283
      ---         BLOCKEND  ---      ---       LVL=0

      00FFC89BH   BLOCK     CODE     ---       LVL=0
      00010D75H   SYMBOL    XDATA    ---       line
      00010D79H   SYMBOL    XDATA    ---       gps
      00FFC8B1H   BLOCK     CODE     NEAR LAB  LVL=1
      00010D7DH   SYMBOL    XDATA    BYTE      state
      00010D7EH   SYMBOL    XDATA    ---       buf
      00010D82H   SYMBOL    XDATA    BYTE      return_state
      ---         BLOCKEND  ---      ---       LVL=1
      00FFC89BH   LINE      CODE     ---       #293
      00FFC8B1H   LINE      CODE     ---       #294
      00FFC8B1H   LINE      CODE     ---       #295
      00FFC8B6H   LINE      CODE     ---       #296
      00FFC8CAH   LINE      CODE     ---       #297
      00FFC8CFH   LINE      CODE     ---       #299
      00FFC8F3H   LINE      CODE     ---       #301
      00FFC8FFH   LINE      CODE     ---       #303
      00FFC92DH   LINE      CODE     ---       #304
      00FFC986H   LINE      CODE     ---       #305
      00FFC98CH   LINE      CODE     ---       #306
      00FFC98CH   LINE      CODE     ---       #308
      00FFC990H   LINE      CODE     ---       #309
      ---         BLOCKEND  ---      ---       LVL=0

      00FF81F6H   BLOCK     CODE     ---       LVL=0
      000106FCH   SYMBOL    XDATA    DOUBLE    latitude1
      00010704H   SYMBOL    XDATA    DOUBLE    longitude1
      0001070CH   SYMBOL    XDATA    DOUBLE    latitude2
      00010714H   SYMBOL    XDATA    DOUBLE    longitude2
      00FF8208H   BLOCK     CODE     NEAR LAB  LVL=1
      0001071CH   SYMBOL    XDATA    DOUBLE    EARTH_RADIUS
      00010724H   SYMBOL    XDATA    DOUBLE    rad_latitude1
      0001072CH   SYMBOL    XDATA    DOUBLE    rad_latitude2
      00010734H   SYMBOL    XDATA    DOUBLE    rad_longitude1
      0001073CH   SYMBOL    XDATA    DOUBLE    rad_longitude2
      00010744H   SYMBOL    XDATA    DOUBLE    distance
      0001074CH   SYMBOL    XDATA    DOUBLE    a
      00010754H   SYMBOL    XDATA    DOUBLE    b
      ---         BLOCKEND  ---      ---       LVL=1
      00FF81F6H   LINE      CODE     ---       #321
      00FF8208H   LINE      CODE     ---       #322
      00FF8208H   LINE      CODE     ---       #323
      00FF8228H   LINE      CODE     ---       #324
      00FF823EH   LINE      CODE     ---       #325
      00FF8254H   LINE      CODE     ---       #326
      00FF826AH   LINE      CODE     ---       #327
      00FF8280H   LINE      CODE     ---       #328
      00FF8296H   LINE      CODE     ---       #329
      00FF82ACH   LINE      CODE     ---       #330
      00FF82C2H   LINE      CODE     ---       #332
      00FF8306H   LINE      CODE     ---       #333
L251 LINKER/LOCATER V4.66.93.0                                                        05/06/2025  18:54:37  PAGE 104


      00FF834AH   LINE      CODE     ---       #334
      00FF838EH   LINE      CODE     ---       #335
      00FF83D2H   LINE      CODE     ---       #337
      00FF840BH   LINE      CODE     ---       #338
      00FF8444H   LINE      CODE     ---       #340
      00FF851CH   LINE      CODE     ---       #341
      00FF8555H   LINE      CODE     ---       #343
      00FF8567H   LINE      CODE     ---       #344
      ---         BLOCKEND  ---      ---       LVL=0

      00FF655FH   BLOCK     CODE     ---       LVL=0
      000109D9H   SYMBOL    XDATA    DOUBLE    latitude1
      000109E1H   SYMBOL    XDATA    DOUBLE    longitude1
      000109E9H   SYMBOL    XDATA    DOUBLE    latitude2
      000109F1H   SYMBOL    XDATA    DOUBLE    longitude2
      00FF6571H   BLOCK     CODE     NEAR LAB  LVL=1
      000109F9H   SYMBOL    XDATA    DOUBLE    x
      00010A01H   SYMBOL    XDATA    DOUBLE    y
      00010A09H   SYMBOL    XDATA    DOUBLE    angle
      ---         BLOCKEND  ---      ---       LVL=1
      00FF655FH   LINE      CODE     ---       #356
      00FF6571H   LINE      CODE     ---       #357
      00FF6571H   LINE      CODE     ---       #358
      00FF6587H   LINE      CODE     ---       #359
      00FF659DH   LINE      CODE     ---       #360
      00FF65B3H   LINE      CODE     ---       #363
      00FF65F7H   LINE      CODE     ---       #364
      00FF663BH   LINE      CODE     ---       #365
      00FF667FH   LINE      CODE     ---       #366
      00FF66C3H   LINE      CODE     ---       #368
      00FF671FH   LINE      CODE     ---       #369
      00FF67DBH   LINE      CODE     ---       #371
      00FF6837H   LINE      CODE     ---       #374
      00FF687AH   LINE      CODE     ---       #376
      00FF6898H   LINE      CODE     ---       #378
      00FF68C0H   LINE      CODE     ---       #379
      00FF68DCH   LINE      CODE     ---       #380
      00FF68DFH   LINE      CODE     ---       #382
      00FF68FDH   LINE      CODE     ---       #384
      00FF691FH   LINE      CODE     ---       #385
      00FF693BH   LINE      CODE     ---       #386
      00FF693EH   LINE      CODE     ---       #389
      00FF69A4H   LINE      CODE     ---       #390
      00FF6A08H   LINE      CODE     ---       #391
      00FF6A08H   LINE      CODE     ---       #393
      00FF6A29H   LINE      CODE     ---       #395
      00FF6A5AH   LINE      CODE     ---       #396
      00FF6A5CH   LINE      CODE     ---       #397
      00FF6A77H   LINE      CODE     ---       #399
      00FF6AA8H   LINE      CODE     ---       #400
      00FF6AA8H   LINE      CODE     ---       #402
      00FF6ABAH   LINE      CODE     ---       #403
      ---         BLOCKEND  ---      ---       LVL=0

      00FF9E55H   BLOCK     CODE     ---       LVL=0
      00010EA2H   SYMBOL    XDATA    BYTE      return_state
      00010EA3H   SYMBOL    XDATA    ---       check_buffer
      00010EA8H   SYMBOL    XDATA    BYTE      bbc_xor_origin
      00010EA9H   SYMBOL    XDATA    BYTE      bbc_xor_calculation
      00010EAAH   SYMBOL    XDATA    DWORD     data_len
      00FF9E55H   LINE      CODE     ---       #412
      00FF9E55H   LINE      CODE     ---       #413
      00FF9E55H   LINE      CODE     ---       #414
      00FF9E5AH   LINE      CODE     ---       #415
      00FF9E6FH   LINE      CODE     ---       #416
L251 LINKER/LOCATER V4.66.93.0                                                        05/06/2025  18:54:37  PAGE 105


      00FF9E74H   LINE      CODE     ---       #417
      00FF9E79H   LINE      CODE     ---       #418
      00FF9E85H   LINE      CODE     ---       #420
      00FF9E85H   LINE      CODE     ---       #422
      00FF9E94H   LINE      CODE     ---       #424
      00FF9E9EH   LINE      CODE     ---       #425
      00FF9EC0H   LINE      CODE     ---       #426
      00FF9ED1H   LINE      CODE     ---       #427
      00FF9EE9H   LINE      CODE     ---       #429
      00FF9F07H   LINE      CODE     ---       #430
      00FF9F32H   LINE      CODE     ---       #431
      00FF9F40H   LINE      CODE     ---       #434
      00FF9F46H   LINE      CODE     ---       #435
      00FF9F49H   LINE      CODE     ---       #436
      00FF9F49H   LINE      CODE     ---       #438
      00FF9F5CH   LINE      CODE     ---       #439
      00FF9F5CH   LINE      CODE     ---       #440
      00FF9F64H   LINE      CODE     ---       #442
      00FF9F73H   LINE      CODE     ---       #444
      00FF9F7DH   LINE      CODE     ---       #445
      00FF9F9FH   LINE      CODE     ---       #446
      00FF9FB0H   LINE      CODE     ---       #448
      00FF9FC8H   LINE      CODE     ---       #450
      00FF9FE6H   LINE      CODE     ---       #451
      00FFA011H   LINE      CODE     ---       #452
      00FFA01FH   LINE      CODE     ---       #455
      00FFA025H   LINE      CODE     ---       #456
      00FFA027H   LINE      CODE     ---       #457
      00FFA027H   LINE      CODE     ---       #459
      00FFA03AH   LINE      CODE     ---       #460
      00FFA03AH   LINE      CODE     ---       #461
      00FFA042H   LINE      CODE     ---       #463
      00FFA042H   LINE      CODE     ---       #464
      00FFA046H   LINE      CODE     ---       #465
      ---         BLOCKEND  ---      ---       LVL=0

      00FFB0FCH   BLOCK     CODE     ---       LVL=0
      00010FE3H   SYMBOL    XDATA    BYTE      uart_dat
      00FFB100H   BLOCK     CODE     NEAR LAB  LVL=1
      00010FE4H   SYMBOL    XDATA    ---       temp_gps
      00010FEAH   SYMBOL    XDATA    DWORD     temp_length
      ---         BLOCKEND  ---      ---       LVL=1
      00FFB0FCH   LINE      CODE     ---       #475
      00FFB100H   LINE      CODE     ---       #476
      00FFB100H   LINE      CODE     ---       #478
      00FFB10CH   LINE      CODE     ---       #480
      00FFB115H   LINE      CODE     ---       #482
      00FFB136H   LINE      CODE     ---       #483
      00FFB142H   LINE      CODE     ---       #486
      00FFB150H   LINE      CODE     ---       #487
      00FFB17FH   LINE      CODE     ---       #490
      00FFB19CH   LINE      CODE     ---       #493
      00FFB1ABH   LINE      CODE     ---       #495
      00FFB1B5H   LINE      CODE     ---       #496
      00FFB1CAH   LINE      CODE     ---       #497
      00FFB1F7H   LINE      CODE     ---       #498
      00FFB1F9H   LINE      CODE     ---       #500
      00FFB216H   LINE      CODE     ---       #503
      00FFB222H   LINE      CODE     ---       #505
      00FFB22CH   LINE      CODE     ---       #506
      00FFB241H   LINE      CODE     ---       #507
      00FFB26EH   LINE      CODE     ---       #508
      00FFB26EH   LINE      CODE     ---       #512
      00FFB279H   LINE      CODE     ---       #514
      00FFB27FH   LINE      CODE     ---       #515
L251 LINKER/LOCATER V4.66.93.0                                                        05/06/2025  18:54:37  PAGE 106


      00FFB27FH   LINE      CODE     ---       #517
      ---         BLOCKEND  ---      ---       LVL=0

      00FF90A3H   BLOCK     CODE     ---       LVL=0
      0001057AH   SYMBOL    XDATA    ---       set_rate
      00010596H   SYMBOL    XDATA    ---       open_gga
      000105A1H   SYMBOL    XDATA    ---       open_rmc
      000105ACH   SYMBOL    XDATA    ---       close_gll
      000105B7H   SYMBOL    XDATA    ---       close_gsa
      000105C2H   SYMBOL    XDATA    ---       close_grs
      000105CDH   SYMBOL    XDATA    ---       close_gsv
      000105D8H   SYMBOL    XDATA    ---       close_vtg
      000105E3H   SYMBOL    XDATA    ---       close_zda
      000105EEH   SYMBOL    XDATA    ---       close_gst
      000105F9H   SYMBOL    XDATA    ---       close_txt
      00010604H   SYMBOL    XDATA    ---       close_txt_ant
      00FF90A3H   LINE      CODE     ---       #526
      00FF90A3H   LINE      CODE     ---       #527
      00FF90A3H   LINE      CODE     ---       #528
      00FF90B8H   LINE      CODE     ---       #529
      00FF90CDH   LINE      CODE     ---       #530
      00FF90E2H   LINE      CODE     ---       #532
      00FF90F7H   LINE      CODE     ---       #533
      00FF910CH   LINE      CODE     ---       #534
      00FF9121H   LINE      CODE     ---       #535
      00FF9136H   LINE      CODE     ---       #536
      00FF914BH   LINE      CODE     ---       #537
      00FF9160H   LINE      CODE     ---       #538
      00FF9175H   LINE      CODE     ---       #539
      00FF918AH   LINE      CODE     ---       #540
      00FF919FH   LINE      CODE     ---       #542
      00FF91CCH   LINE      CODE     ---       #543
      00FF91D3H   LINE      CODE     ---       #545
      00FF91EEH   LINE      CODE     ---       #546
      00FF91F4H   LINE      CODE     ---       #548
      00FF9205H   LINE      CODE     ---       #550
      00FF9216H   LINE      CODE     ---       #551
      00FF921DH   LINE      CODE     ---       #553
      00FF922EH   LINE      CODE     ---       #554
      00FF9235H   LINE      CODE     ---       #555
      00FF9246H   LINE      CODE     ---       #556
      00FF924DH   LINE      CODE     ---       #557
      00FF925EH   LINE      CODE     ---       #558
      00FF9265H   LINE      CODE     ---       #559
      00FF9276H   LINE      CODE     ---       #560
      00FF927DH   LINE      CODE     ---       #561
      00FF928EH   LINE      CODE     ---       #562
      00FF9295H   LINE      CODE     ---       #563
      00FF92A6H   LINE      CODE     ---       #564
      00FF92ADH   LINE      CODE     ---       #565
      00FF92BEH   LINE      CODE     ---       #566
      00FF92C5H   LINE      CODE     ---       #567
      00FF92D6H   LINE      CODE     ---       #568
      00FF92DDH   LINE      CODE     ---       #569
      00FF92EEH   LINE      CODE     ---       #570
      00FF92F5H   LINE      CODE     ---       #571
      00FF9306H   LINE      CODE     ---       #572
      00FF930DH   LINE      CODE     ---       #573
      00FF931EH   LINE      CODE     ---       #574
      00FF9325H   LINE      CODE     ---       #576
      00FF932BH   LINE      CODE     ---       #577
      00FF9332H   LINE      CODE     ---       #578
      ---         BLOCKEND  ---      ---       LVL=0

      ---         MODULE    ---      ---       zf_device_tsl1401
L251 LINKER/LOCATER V4.66.93.0                                                        05/06/2025  18:54:37  PAGE 107


      00010000H   PUBLIC    XDATA    BYTE      tsl1401_finish_flag
      00010001H   PUBLIC    XDATA    ---       tsl1401_data
      000000D0H   SFRSYM    DATA     BYTE      PSW
      0000009DH   SFRSYM    DATA     BYTE      IRCBAND
      00000097H   SFRSYM    DATA     BYTE      AUXR2
      000000EFH   SFRSYM    DATA     BYTE      AUXINTIF
      000000FDH   SFRSYM    DATA     BYTE      S4CON
      000000ACH   SFRSYM    DATA     BYTE      S3CON
      0000009AH   SFRSYM    DATA     BYTE      S2CON
      000000B7H   SFRSYM    DATA     BYTE      IPH
      000000CDH   SFRSYM    DATA     BYTE      SPSTAT
      000000DDH   SFRSYM    DATA     BYTE      T4T3M
      000000C1H   SFRSYM    DATA     BYTE      WDT_CONTR
      000000DFH   SFRSYM    DATA     BYTE      IP3
      000000F4H   SFRSYM    DATA     BYTE      USBCON
      000000B5H   SFRSYM    DATA     BYTE      IP2
      000000FFH   SFRSYM    DATA     BYTE      RSTCFG
      000000C7H   SFRSYM    DATA     BYTE      IAP_CONTR
      0000008EH   SFRSYM    DATA     BYTE      AUXR
      000000AFH   SFRSYM    DATA     BYTE      IE2
      00000088H   SFRSYM    DATA     BYTE      TCON
      00000089H   SFRSYM    DATA     BYTE      TMOD
      00000098H   SFRSYM    DATA     BYTE      SCON
      00000087H   SFRSYM    DATA     BYTE      PCON
      000000BCH   SFRSYM    DATA     BYTE      ADC_CONTR
      000000D1H   SFRSYM    DATA     BYTE      PSW1
      000000E7H   SFRSYM    DATA     BYTE      CMPCR2
      000000E6H   SFRSYM    DATA     BYTE      CMPCR1
      000000DEH   SFRSYM    DATA     BYTE      ADCCFG
      000000B8H   SFRSYM    DATA     BYTE      IP
      0000008FH   SFRSYM    DATA     BYTE      INTCLKO
      000000EEH   SFRSYM    DATA     BYTE      IP3H
      000000B6H   SFRSYM    DATA     BYTE      IP2H
      000000BFH   SFRSYM    DATA     BYTE      P_SW4
      000000A8H   SFRSYM    DATA     BYTE      IE
      000000BBH   SFRSYM    DATA     BYTE      P_SW3
      000000BAH   SFRSYM    DATA     BYTE      P_SW2
      000000A2H   SFRSYM    DATA     BYTE      P_SW1
      000000CEH   SFRSYM    DATA     BYTE      SPCTL
      000000F8H   SFRSYM    DATA     BYTE      P7
      000000E8H   SFRSYM    DATA     BYTE      P6
      000000C8H   SFRSYM    DATA     BYTE      P5
      000000C0H   SFRSYM    DATA     BYTE      P4
      000000ABH   SFRSYM    DATA     BYTE      WKTCH
      000000B0H   SFRSYM    DATA     BYTE      P3
      000000A0H   SFRSYM    DATA     BYTE      P2
      00000090H   SFRSYM    DATA     BYTE      P1
      00000080H   SFRSYM    DATA     BYTE      P0
      00010201H   SYMBOL    XDATA    BYTE      tsl1401_init_state
      00011512H   SYMBOL    XDATA    BYTE      i
      0001146CH   SYMBOL    XDATA    INT       uart_n
      0001146EH   SYMBOL    XDATA    BYTE      index
      0001146FH   SYMBOL    XDATA    BYTE      i

      ---         MODULE    ---      ---       zf_device_type
      00FFD5DDH   PUBLIC    CODE     ---       set_gps_type
      00FFD674H   PUBLIC    CODE     ---       set_wireless_type
      00011312H   PUBLIC    XDATA    ---       tof_module_exti_handler
      00011314H   PUBLIC    XDATA    INT       wireless_type
      00011316H   PUBLIC    XDATA    INT       tof_type
      00011318H   PUBLIC    XDATA    INT       gps_type
      000000D0H   SFRSYM    DATA     BYTE      PSW
      0000009DH   SFRSYM    DATA     BYTE      IRCBAND
      00000097H   SFRSYM    DATA     BYTE      AUXR2
      000000EFH   SFRSYM    DATA     BYTE      AUXINTIF
L251 LINKER/LOCATER V4.66.93.0                                                        05/06/2025  18:54:37  PAGE 108


      000000FDH   SFRSYM    DATA     BYTE      S4CON
      000000ACH   SFRSYM    DATA     BYTE      S3CON
      0000009AH   SFRSYM    DATA     BYTE      S2CON
      000000B7H   SFRSYM    DATA     BYTE      IPH
      000000CDH   SFRSYM    DATA     BYTE      SPSTAT
      000000DDH   SFRSYM    DATA     BYTE      T4T3M
      000000C1H   SFRSYM    DATA     BYTE      WDT_CONTR
      000000DFH   SFRSYM    DATA     BYTE      IP3
      000000F4H   SFRSYM    DATA     BYTE      USBCON
      000000B5H   SFRSYM    DATA     BYTE      IP2
      000000FFH   SFRSYM    DATA     BYTE      RSTCFG
      000000C7H   SFRSYM    DATA     BYTE      IAP_CONTR
      0000008EH   SFRSYM    DATA     BYTE      AUXR
      000000AFH   SFRSYM    DATA     BYTE      IE2
      00000088H   SFRSYM    DATA     BYTE      TCON
      00000089H   SFRSYM    DATA     BYTE      TMOD
      00000098H   SFRSYM    DATA     BYTE      SCON
      00000087H   SFRSYM    DATA     BYTE      PCON
      000000BCH   SFRSYM    DATA     BYTE      ADC_CONTR
      000000D1H   SFRSYM    DATA     BYTE      PSW1
      000000E7H   SFRSYM    DATA     BYTE      CMPCR2
      000000E6H   SFRSYM    DATA     BYTE      CMPCR1
      000000DEH   SFRSYM    DATA     BYTE      ADCCFG
      000000B8H   SFRSYM    DATA     BYTE      IP
      0000008FH   SFRSYM    DATA     BYTE      INTCLKO
      000000EEH   SFRSYM    DATA     BYTE      IP3H
      000000B6H   SFRSYM    DATA     BYTE      IP2H
      000000BFH   SFRSYM    DATA     BYTE      P_SW4
      000000A8H   SFRSYM    DATA     BYTE      IE
      000000BBH   SFRSYM    DATA     BYTE      P_SW3
      000000BAH   SFRSYM    DATA     BYTE      P_SW2
      000000A2H   SFRSYM    DATA     BYTE      P_SW1
      000000CEH   SFRSYM    DATA     BYTE      SPCTL
      000000F8H   SFRSYM    DATA     BYTE      P7
      000000E8H   SFRSYM    DATA     BYTE      P6
      000000C8H   SFRSYM    DATA     BYTE      P5
      000000C0H   SFRSYM    DATA     BYTE      P4
      000000ABH   SFRSYM    DATA     BYTE      WKTCH
      000000B0H   SFRSYM    DATA     BYTE      P3
      000000A0H   SFRSYM    DATA     BYTE      P2
      00000090H   SFRSYM    DATA     BYTE      P1
      00000080H   SFRSYM    DATA     BYTE      P0

      00FFD674H   BLOCK     CODE     ---       LVL=0
      0001131AH   SYMBOL    XDATA    INT       type_set
      0001131CH   SYMBOL    XDATA    INT       uartx
      0001131EH   SYMBOL    XDATA    ---       uart_callback
      00FFD674H   LINE      CODE     ---       #52
      00FFD68AH   LINE      CODE     ---       #54
      00FFD696H   LINE      CODE     ---       #56
      00FFD6A0H   LINE      CODE     ---       #58
      00FFD6B0H   LINE      CODE     ---       #59
      00FFD6B2H   LINE      CODE     ---       #60
      00FFD6BEH   LINE      CODE     ---       #62
      00FFD6CEH   LINE      CODE     ---       #63
      00FFD6D0H   LINE      CODE     ---       #64
      00FFD6DCH   LINE      CODE     ---       #66
      00FFD6ECH   LINE      CODE     ---       #67
      00FFD6EEH   LINE      CODE     ---       #68
      00FFD6FAH   LINE      CODE     ---       #70
      00FFD70AH   LINE      CODE     ---       #71
      ---         BLOCKEND  ---      ---       LVL=0
      000113B5H   SYMBOL    XDATA    INT       type_set
      000113B7H   SYMBOL    XDATA    ---       exti_callback

L251 LINKER/LOCATER V4.66.93.0                                                        05/06/2025  18:54:37  PAGE 109


      00FFD5DDH   BLOCK     CODE     ---       LVL=0
      00011322H   SYMBOL    XDATA    INT       type_set
      00011324H   SYMBOL    XDATA    INT       uartx
      00011326H   SYMBOL    XDATA    ---       uart_callback
      00FFD5DDH   LINE      CODE     ---       #97
      00FFD5F3H   LINE      CODE     ---       #99
      00FFD5FFH   LINE      CODE     ---       #100
      00FFD609H   LINE      CODE     ---       #102
      00FFD619H   LINE      CODE     ---       #103
      00FFD61BH   LINE      CODE     ---       #104
      00FFD627H   LINE      CODE     ---       #106
      00FFD637H   LINE      CODE     ---       #107
      00FFD639H   LINE      CODE     ---       #108
      00FFD645H   LINE      CODE     ---       #110
      00FFD655H   LINE      CODE     ---       #111
      00FFD657H   LINE      CODE     ---       #112
      00FFD663H   LINE      CODE     ---       #114
      00FFD673H   LINE      CODE     ---       #115
      ---         BLOCKEND  ---      ---       LVL=0

      ---         MODULE    ---      ---       isr
      00FFE44BH   PUBLIC    CODE     ---       TM11_IRQHandler
      00FFD955H   PUBLIC    CODE     ---       my_pit_init
      00FFD2D3H   PUBLIC    CODE     ---       DMA_UART1_IRQHandler
      00FFD9E1H   PUBLIC    CODE     ---       DMA_UART2_IRQHandler
      00FFDA6AH   PUBLIC    CODE     ---       DMA_UART3_IRQHandler
      00FFDAF3H   PUBLIC    CODE     ---       DMA_UART4_IRQHandler
      00FF0026H   PUBLIC    CODE     ---       pit_hanlder_gps
      00FFA231H   PUBLIC    CODE     ---       pit_hanlder_imu
      00FFE4DDH   PUBLIC    CODE     ---       TM0_IRQHandler
      00FFE51BH   PUBLIC    CODE     ---       TM1_IRQHandler
      00FFE559H   PUBLIC    CODE     ---       TM2_IRQHandler
      00FFE597H   PUBLIC    CODE     ---       TM3_IRQHandler
      00FFE5D5H   PUBLIC    CODE     ---       TM4_IRQHandler
      00FFC584H   PUBLIC    CODE     ---       pit_hanlder_angle
      00000020H.2 PUBLIC    BIT      BIT       pid_enable
      000000D0H   SFRSYM    DATA     BYTE      PSW
      0000009DH   SFRSYM    DATA     BYTE      IRCBAND
      00000097H   SFRSYM    DATA     BYTE      AUXR2
      000000EFH   SFRSYM    DATA     BYTE      AUXINTIF
      000000FDH   SFRSYM    DATA     BYTE      S4CON
      000000ACH   SFRSYM    DATA     BYTE      S3CON
      0000009AH   SFRSYM    DATA     BYTE      S2CON
      000000B7H   SFRSYM    DATA     BYTE      IPH
      000000CDH   SFRSYM    DATA     BYTE      SPSTAT
      000000DDH   SFRSYM    DATA     BYTE      T4T3M
      000000C1H   SFRSYM    DATA     BYTE      WDT_CONTR
      000000DFH   SFRSYM    DATA     BYTE      IP3
      000000F4H   SFRSYM    DATA     BYTE      USBCON
      000000B5H   SFRSYM    DATA     BYTE      IP2
      000000FFH   SFRSYM    DATA     BYTE      RSTCFG
      000000C7H   SFRSYM    DATA     BYTE      IAP_CONTR
      0000008EH   SFRSYM    DATA     BYTE      AUXR
      000000AFH   SFRSYM    DATA     BYTE      IE2
      00000088H   SFRSYM    DATA     BYTE      TCON
      00000089H   SFRSYM    DATA     BYTE      TMOD
      00000098H   SFRSYM    DATA     BYTE      SCON
      00000087H   SFRSYM    DATA     BYTE      PCON
      000000BCH   SFRSYM    DATA     BYTE      ADC_CONTR
      000000D1H   SFRSYM    DATA     BYTE      PSW1
      000000E7H   SFRSYM    DATA     BYTE      CMPCR2
      000000E6H   SFRSYM    DATA     BYTE      CMPCR1
      000000DEH   SFRSYM    DATA     BYTE      ADCCFG
      000000B8H   SFRSYM    DATA     BYTE      IP
      0000008FH   SFRSYM    DATA     BYTE      INTCLKO
L251 LINKER/LOCATER V4.66.93.0                                                        05/06/2025  18:54:37  PAGE 110


      000000EEH   SFRSYM    DATA     BYTE      IP3H
      000000B6H   SFRSYM    DATA     BYTE      IP2H
      000000BFH   SFRSYM    DATA     BYTE      P_SW4
      000000A8H   SFRSYM    DATA     BYTE      IE
      000000BBH   SFRSYM    DATA     BYTE      P_SW3
      000000BAH   SFRSYM    DATA     BYTE      P_SW2
      000000A2H   SFRSYM    DATA     BYTE      P_SW1
      000000CEH   SFRSYM    DATA     BYTE      SPCTL
      000000F8H   SFRSYM    DATA     BYTE      P7
      000000E8H   SFRSYM    DATA     BYTE      P6
      000000C8H   SFRSYM    DATA     BYTE      P5
      000000C0H   SFRSYM    DATA     BYTE      P4
      000000ABH   SFRSYM    DATA     BYTE      WKTCH
      000000B0H   SFRSYM    DATA     BYTE      P3
      000000A0H   SFRSYM    DATA     BYTE      P2
      00000090H   SFRSYM    DATA     BYTE      P1
      00000080H   SFRSYM    DATA     BYTE      P0

      00FFD2D3H   BLOCK     CODE     ---       LVL=0
      00FFD2E7H   BLOCK     CODE     NEAR LAB  LVL=1
      00011513H   SYMBOL    XDATA    BYTE      dwon_count
      ---         BLOCKEND  ---      ---       LVL=1
      00FFD2D3H   LINE      CODE     ---       #37
      00FFD2E7H   LINE      CODE     ---       #38
      00FFD2E7H   LINE      CODE     ---       #40
      00FFD2F5H   LINE      CODE     ---       #42
      00FFD305H   LINE      CODE     ---       #43
      00FFD30AH   LINE      CODE     ---       #46
      00FFD311H   LINE      CODE     ---       #48
      00FFD320H   LINE      CODE     ---       #50
      00FFD323H   LINE      CODE     ---       #51
      00FFD325H   LINE      CODE     ---       #55
      00FFD32AH   LINE      CODE     ---       #56
      00FFD32AH   LINE      CODE     ---       #58
      00FFD334H   LINE      CODE     ---       #60
      00FFD340H   LINE      CODE     ---       #61
      00FFD340H   LINE      CODE     ---       #64
      00FFD34EH   LINE      CODE     ---       #66
      00FFD35EH   LINE      CODE     ---       #67
      00FFD363H   LINE      CODE     ---       #71
      ---         BLOCKEND  ---      ---       LVL=0

      00FFD9E1H   BLOCK     CODE     ---       LVL=0
      00FFD9E1H   LINE      CODE     ---       #76
      00FFD9F5H   LINE      CODE     ---       #79
      00FFDA03H   LINE      CODE     ---       #81
      00FFDA13H   LINE      CODE     ---       #82
      00FFDA1AH   LINE      CODE     ---       #84
      00FFDA24H   LINE      CODE     ---       #86
      00FFDA30H   LINE      CODE     ---       #87
      00FFDA30H   LINE      CODE     ---       #90
      00FFDA3EH   LINE      CODE     ---       #92
      00FFDA4EH   LINE      CODE     ---       #93
      00FFDA55H   LINE      CODE     ---       #98
      ---         BLOCKEND  ---      ---       LVL=0

      00FFDA6AH   BLOCK     CODE     ---       LVL=0
      00FFDA6AH   LINE      CODE     ---       #101
      00FFDA7EH   LINE      CODE     ---       #104
      00FFDA8CH   LINE      CODE     ---       #106
      00FFDA9CH   LINE      CODE     ---       #107
      00FFDAA3H   LINE      CODE     ---       #109
      00FFDAADH   LINE      CODE     ---       #112
      00FFDAB9H   LINE      CODE     ---       #114
      00FFDAB9H   LINE      CODE     ---       #117
L251 LINKER/LOCATER V4.66.93.0                                                        05/06/2025  18:54:37  PAGE 111


      00FFDAC7H   LINE      CODE     ---       #119
      00FFDAD7H   LINE      CODE     ---       #120
      00FFDADEH   LINE      CODE     ---       #125
      ---         BLOCKEND  ---      ---       LVL=0

      00FFDAF3H   BLOCK     CODE     ---       LVL=0
      00FFDAF3H   LINE      CODE     ---       #128
      00FFDB07H   LINE      CODE     ---       #131
      00FFDB15H   LINE      CODE     ---       #133
      00FFDB25H   LINE      CODE     ---       #134
      00FFDB2CH   LINE      CODE     ---       #136
      00FFDB36H   LINE      CODE     ---       #138
      00FFDB42H   LINE      CODE     ---       #140
      00FFDB42H   LINE      CODE     ---       #143
      00FFDB50H   LINE      CODE     ---       #145
      00FFDB60H   LINE      CODE     ---       #146
      00FFDB67H   LINE      CODE     ---       #151
      ---         BLOCKEND  ---      ---       LVL=0

      00FFE4DDH   BLOCK     CODE     ---       LVL=0
      00FFE4DDH   LINE      CODE     ---       #155
      00FFE4F1H   LINE      CODE     ---       #157
      00FFE4F4H   LINE      CODE     ---       #159
      00FFE4FEH   LINE      CODE     ---       #161
      00FFE506H   LINE      CODE     ---       #162
      ---         BLOCKEND  ---      ---       LVL=0

      00FFE51BH   BLOCK     CODE     ---       LVL=0
      00FFE51BH   LINE      CODE     ---       #164
      00FFE52FH   LINE      CODE     ---       #166
      00FFE532H   LINE      CODE     ---       #168
      00FFE53CH   LINE      CODE     ---       #170
      00FFE544H   LINE      CODE     ---       #171
      ---         BLOCKEND  ---      ---       LVL=0

      00FFE559H   BLOCK     CODE     ---       LVL=0
      00FFE559H   LINE      CODE     ---       #173
      00FFE56DH   LINE      CODE     ---       #175
      00FFE570H   LINE      CODE     ---       #177
      00FFE57AH   LINE      CODE     ---       #179
      00FFE582H   LINE      CODE     ---       #180
      ---         BLOCKEND  ---      ---       LVL=0

      00FFE597H   BLOCK     CODE     ---       LVL=0
      00FFE597H   LINE      CODE     ---       #182
      00FFE5ABH   LINE      CODE     ---       #184
      00FFE5AEH   LINE      CODE     ---       #186
      00FFE5B8H   LINE      CODE     ---       #188
      00FFE5C0H   LINE      CODE     ---       #189
      ---         BLOCKEND  ---      ---       LVL=0

      00FFE5D5H   BLOCK     CODE     ---       LVL=0
      00FFE5D5H   LINE      CODE     ---       #192
      00FFE5E9H   LINE      CODE     ---       #194
      00FFE5ECH   LINE      CODE     ---       #196
      00FFE5F6H   LINE      CODE     ---       #198
      00FFE5FEH   LINE      CODE     ---       #199
      ---         BLOCKEND  ---      ---       LVL=0

      00FFE44BH   BLOCK     CODE     ---       LVL=0
      00FFE44BH   LINE      CODE     ---       #202
      00FFE45FH   LINE      CODE     ---       #204
      00FFE46FH   LINE      CODE     ---       #206
      00FFE479H   LINE      CODE     ---       #208
      00FFE481H   LINE      CODE     ---       #209
L251 LINKER/LOCATER V4.66.93.0                                                        05/06/2025  18:54:37  PAGE 112


      ---         BLOCKEND  ---      ---       LVL=0

      00FFA231H   BLOCK     CODE     ---       LVL=0
      00FFA231H   LINE      CODE     ---       #217
      00FFA231H   LINE      CODE     ---       #221
      00FFA234H   LINE      CODE     ---       #222
      00FFA237H   LINE      CODE     ---       #225
      00FFA25CH   LINE      CODE     ---       #226
      00FFA281H   LINE      CODE     ---       #227
      00FFA2A6H   LINE      CODE     ---       #230
      00FFA2CBH   LINE      CODE     ---       #231
      00FFA2F0H   LINE      CODE     ---       #232
      00FFA315H   LINE      CODE     ---       #235
      00FFA337H   LINE      CODE     ---       #236
      00FFA372H   LINE      CODE     ---       #237
      00FFA394H   LINE      CODE     ---       #240
      00FFA3B6H   LINE      CODE     ---       #241
      00FFA3D8H   LINE      CODE     ---       #242
      00FFA3FAH   LINE      CODE     ---       #245
      00FFA40DH   LINE      CODE     ---       #250
      ---         BLOCKEND  ---      ---       LVL=0

      00FF0026H   BLOCK     CODE     ---       LVL=0
      00FF0026H   LINE      CODE     ---       #256
      00FF0026H   LINE      CODE     ---       #259
      00FF002CH   LINE      CODE     ---       #261
      00FF0031H   LINE      CODE     ---       #262
      00FF003CH   LINE      CODE     ---       #263
      00FF003EH   LINE      CODE     ---       #264
      00FF0040H   LINE      CODE     ---       #265
      ---         BLOCKEND  ---      ---       LVL=0

      00FFC584H   BLOCK     CODE     ---       LVL=0
      00010EAEH   SYMBOL    XDATA    DWORD     angle_duty
      00010EB2H   SYMBOL    XDATA    FLOAT     angle_u
      00010EB6H   SYMBOL    XDATA    FLOAT     velocity_u
      00FFC584H   LINE      CODE     ---       #272
      00FFC584H   LINE      CODE     ---       #273
      00FFC584H   LINE      CODE     ---       #275
      00FFC590H   LINE      CODE     ---       #276
      00FFC59CH   LINE      CODE     ---       #277
      00FFC59FH   LINE      CODE     ---       #280
      00FFC5B4H   LINE      CODE     ---       #283
      00FFC5B4H   LINE      CODE     ---       #285
      00FFC5CCH   LINE      CODE     ---       #286
      00FFC5DDH   LINE      CODE     ---       #288
      00FFC5F5H   LINE      CODE     ---       #289
      00FFC606H   LINE      CODE     ---       #291
      00FFC638H   LINE      CODE     ---       #292
      00FFC649H   LINE      CODE     ---       #294
      00FFC67BH   LINE      CODE     ---       #295
      00FFC68CH   LINE      CODE     ---       #297
      ---         BLOCKEND  ---      ---       LVL=0

      00FFD955H   BLOCK     CODE     ---       LVL=0
      00FFD955H   LINE      CODE     ---       #298
      00FFD955H   LINE      CODE     ---       #301
      00FFD95FH   LINE      CODE     ---       #302
      00FFD982H   LINE      CODE     ---       #304
      00FFD98CH   LINE      CODE     ---       #305
      00FFD9B1H   LINE      CODE     ---       #307
      00FFD9BBH   LINE      CODE     ---       #308
      00FFD9E0H   LINE      CODE     ---       #309
      ---         BLOCKEND  ---      ---       LVL=0

L251 LINKER/LOCATER V4.66.93.0                                                        05/06/2025  18:54:37  PAGE 113


      ---         MODULE    ---      ---       main
      00FF4290H   PUBLIC    CODE     ---       main
      000000D0H   SFRSYM    DATA     BYTE      PSW
      0000009DH   SFRSYM    DATA     BYTE      IRCBAND
      00000097H   SFRSYM    DATA     BYTE      AUXR2
      000000EFH   SFRSYM    DATA     BYTE      AUXINTIF
      000000FDH   SFRSYM    DATA     BYTE      S4CON
      000000ACH   SFRSYM    DATA     BYTE      S3CON
      0000009AH   SFRSYM    DATA     BYTE      S2CON
      000000B7H   SFRSYM    DATA     BYTE      IPH
      000000CDH   SFRSYM    DATA     BYTE      SPSTAT
      000000DDH   SFRSYM    DATA     BYTE      T4T3M
      000000C1H   SFRSYM    DATA     BYTE      WDT_CONTR
      000000DFH   SFRSYM    DATA     BYTE      IP3
      000000F4H   SFRSYM    DATA     BYTE      USBCON
      000000B5H   SFRSYM    DATA     BYTE      IP2
      000000FFH   SFRSYM    DATA     BYTE      RSTCFG
      000000C7H   SFRSYM    DATA     BYTE      IAP_CONTR
      0000008EH   SFRSYM    DATA     BYTE      AUXR
      000000AFH   SFRSYM    DATA     BYTE      IE2
      00000088H   SFRSYM    DATA     BYTE      TCON
      00000089H   SFRSYM    DATA     BYTE      TMOD
      00000098H   SFRSYM    DATA     BYTE      SCON
      00000087H   SFRSYM    DATA     BYTE      PCON
      000000BCH   SFRSYM    DATA     BYTE      ADC_CONTR
      000000D1H   SFRSYM    DATA     BYTE      PSW1
      000000E7H   SFRSYM    DATA     BYTE      CMPCR2
      000000E6H   SFRSYM    DATA     BYTE      CMPCR1
      000000DEH   SFRSYM    DATA     BYTE      ADCCFG
      000000B8H   SFRSYM    DATA     BYTE      IP
      0000008FH   SFRSYM    DATA     BYTE      INTCLKO
      000000EEH   SFRSYM    DATA     BYTE      IP3H
      000000B6H   SFRSYM    DATA     BYTE      IP2H
      000000BFH   SFRSYM    DATA     BYTE      P_SW4
      000000A8H   SFRSYM    DATA     BYTE      IE
      000000BBH   SFRSYM    DATA     BYTE      P_SW3
      000000BAH   SFRSYM    DATA     BYTE      P_SW2
      000000A2H   SFRSYM    DATA     BYTE      P_SW1
      000000CEH   SFRSYM    DATA     BYTE      SPCTL
      000000F8H   SFRSYM    DATA     BYTE      P7
      000000E8H   SFRSYM    DATA     BYTE      P6
      000000C8H   SFRSYM    DATA     BYTE      P5
      000000C0H   SFRSYM    DATA     BYTE      P4
      000000ABH   SFRSYM    DATA     BYTE      WKTCH
      000000B0H   SFRSYM    DATA     BYTE      P3
      000000A0H   SFRSYM    DATA     BYTE      P2
      00000090H   SFRSYM    DATA     BYTE      P1
      00000080H   SFRSYM    DATA     BYTE      P0

      00FF4290H   BLOCK     CODE     ---       LVL=0
      000108E8H   SYMBOL    XDATA    ---       command
      000108EAH   SYMBOL    XDATA    ---       str_buffer
      0001091CH   SYMBOL    XDATA    CHAR      write_index
      0001091DH   SYMBOL    XDATA    CHAR      read_index
      0001091EH   SYMBOL    XDATA    DOUBLE    distance
      00FF4290H   LINE      CODE     ---       #37
      00FF4290H   LINE      CODE     ---       #38
      00FF4290H   LINE      CODE     ---       #43
      00FF4295H   LINE      CODE     ---       #44
      00FF429BH   LINE      CODE     ---       #46
      00FF42B7H   LINE      CODE     ---       #49
      00FF42C9H   LINE      CODE     ---       #51
      00FF42CCH   LINE      CODE     ---       #54
      00FF42CCH   LINE      CODE     ---       #57
      00FF42CFH   LINE      CODE     ---       #59
L251 LINKER/LOCATER V4.66.93.0                                                        05/06/2025  18:54:37  PAGE 114


      00FF42DAH   LINE      CODE     ---       #79
      00FF43C5H   LINE      CODE     ---       #81
      00FF440FH   LINE      CODE     ---       #82
      00FF442DH   LINE      CODE     ---       #83
      00FF4466H   LINE      CODE     ---       #84
      00FF449FH   LINE      CODE     ---       #85
      00FF4508H   LINE      CODE     ---       #86
      00FF4525H   LINE      CODE     ---       #87
      00FF4542H   LINE      CODE     ---       #88
      00FF455FH   LINE      CODE     ---       #89
      00FF457CH   LINE      CODE     ---       #90
      00FF45A6H   LINE      CODE     ---       #91
      00FF45C7H   LINE      CODE     ---       #92
      00FF45EEH   LINE      CODE     ---       #93
      00FF461BH   LINE      CODE     ---       #94
      00FF4650H   LINE      CODE     ---       #95
      00FF467DH   LINE      CODE     ---       #96
      00FF46E5H   LINE      CODE     ---       #97
      00FF46ECH   LINE      CODE     ---       #98
      00FF470AH   LINE      CODE     ---       #99
      00FF470AH   LINE      CODE     ---       #100
      00FF470AH   LINE      CODE     ---       #102
      00FF470FH   LINE      CODE     ---       #103
      00FF4714H   LINE      CODE     ---       #104
      00FF471AH   LINE      CODE     ---       #106
      00FF4720H   LINE      CODE     ---       #108
      00FF47B3H   LINE      CODE     ---       #110
      00FF47D5H   LINE      CODE     ---       #113
      00FF47D7H   LINE      CODE     ---       #115
      00FF4865H   LINE      CODE     ---       #117
      00FF4888H   LINE      CODE     ---       #118
      00FF48A2H   LINE      CODE     ---       #119
      00FF48BEH   LINE      CODE     ---       #121
      00FF48C1H   LINE      CODE     ---       #123
      00FF4922H   LINE      CODE     ---       #125
      00FF4940H   LINE      CODE     ---       #126
      00FF496AH   LINE      CODE     ---       #129
      00FF496DH   LINE      CODE     ---       #134
      00FF4A00H   LINE      CODE     ---       #136
      00FF4A22H   LINE      CODE     ---       #139
      00FF4A70H   LINE      CODE     ---       #142
      00FF4A8EH   LINE      CODE     ---       #143
      00FF4AB8H   LINE      CODE     ---       #145
      00FF4ABFH   LINE      CODE     ---       #147
      00FF4AE9H   LINE      CODE     ---       #148
      00FF4AE9H   LINE      CODE     ---       #150
      00FF4AE9H   LINE      CODE     ---       #151
      00FF4AE9H   LINE      CODE     ---       #152
      00FF4B16H   LINE      CODE     ---       #153
      00FF4B45H   LINE      CODE     ---       #164
      00FF4B74H   LINE      CODE     ---       #165
      00FF4B77H   LINE      CODE     ---       #166
      ---         BLOCKEND  ---      ---       LVL=0

      ---         MODULE    ---      ---       pid
      00FFBFD8H   PUBLIC    CODE     ---       Angle_Pid_fun
      00FF00C6H   PUBLIC    CODE     ---       My_Pid_Init
      00FFDF50H   PUBLIC    CODE     ---       constrain_float
      00FF9584H   PUBLIC    CODE     ---       PidLocCtrl
      00FFE3F9H   PUBLIC    CODE     ---       constrain_uint32
      00FFBC28H   PUBLIC    CODE     ---       Pid_Param_Init
      000104DAH   PUBLIC    XDATA    FLOAT     angle_KI
      000104DEH   PUBLIC    XDATA    FLOAT     velocity_error
      000104E2H   PUBLIC    XDATA    FLOAT     velocity_IMAX
      000104E6H   PUBLIC    XDATA    FLOAT     angle_KP
L251 LINKER/LOCATER V4.66.93.0                                                        05/06/2025  18:54:37  PAGE 115


      000104EAH   PUBLIC    XDATA    ---       velocity_pid
      0001051EH   PUBLIC    XDATA    FLOAT     angle_error
      00010522H   PUBLIC    XDATA    FLOAT     angle_IMAX
      00010526H   PUBLIC    XDATA    ---       angle_pid
      0001055AH   PUBLIC    XDATA    FLOAT     velocity_OUTMAX
      0001055EH   PUBLIC    XDATA    FLOAT     angle_OUTMAX
      00010562H   PUBLIC    XDATA    FLOAT     velocity_target
      00010566H   PUBLIC    XDATA    FLOAT     velocity_KD
      0001056AH   PUBLIC    XDATA    FLOAT     velocity_KI
      0001056EH   PUBLIC    XDATA    FLOAT     velocity_KP
      00010572H   PUBLIC    XDATA    FLOAT     angle_target
      00010576H   PUBLIC    XDATA    FLOAT     angle_KD
      00010BFEH   PUBLIC    XDATA    BYTE      ?Pid_Param_Init?BYTE
      00010EBAH   PUBLIC    XDATA    BYTE      ?PidLocCtrl?BYTE
      00010EC6H   PUBLIC    XDATA    BYTE      ?PidIncCtrl?BYTE
      00010ED2H   PUBLIC    XDATA    BYTE      ?constrain_float?BYTE
      000000D0H   SFRSYM    DATA     BYTE      PSW
      0000009DH   SFRSYM    DATA     BYTE      IRCBAND
      00000097H   SFRSYM    DATA     BYTE      AUXR2
      000000EFH   SFRSYM    DATA     BYTE      AUXINTIF
      000000FDH   SFRSYM    DATA     BYTE      S4CON
      000000ACH   SFRSYM    DATA     BYTE      S3CON
      0000009AH   SFRSYM    DATA     BYTE      S2CON
      000000B7H   SFRSYM    DATA     BYTE      IPH
      000000CDH   SFRSYM    DATA     BYTE      SPSTAT
      000000DDH   SFRSYM    DATA     BYTE      T4T3M
      000000C1H   SFRSYM    DATA     BYTE      WDT_CONTR
      000000DFH   SFRSYM    DATA     BYTE      IP3
      000000F4H   SFRSYM    DATA     BYTE      USBCON
      000000B5H   SFRSYM    DATA     BYTE      IP2
      000000FFH   SFRSYM    DATA     BYTE      RSTCFG
      000000C7H   SFRSYM    DATA     BYTE      IAP_CONTR
      0000008EH   SFRSYM    DATA     BYTE      AUXR
      000000AFH   SFRSYM    DATA     BYTE      IE2
      00000088H   SFRSYM    DATA     BYTE      TCON
      00000089H   SFRSYM    DATA     BYTE      TMOD
      00000098H   SFRSYM    DATA     BYTE      SCON
      00000087H   SFRSYM    DATA     BYTE      PCON
      000000BCH   SFRSYM    DATA     BYTE      ADC_CONTR
      000000D1H   SFRSYM    DATA     BYTE      PSW1
      000000E7H   SFRSYM    DATA     BYTE      CMPCR2
      000000E6H   SFRSYM    DATA     BYTE      CMPCR1
      000000DEH   SFRSYM    DATA     BYTE      ADCCFG
      000000B8H   SFRSYM    DATA     BYTE      IP
      0000008FH   SFRSYM    DATA     BYTE      INTCLKO
      000000EEH   SFRSYM    DATA     BYTE      IP3H
      000000B6H   SFRSYM    DATA     BYTE      IP2H
      000000BFH   SFRSYM    DATA     BYTE      P_SW4
      000000A8H   SFRSYM    DATA     BYTE      IE
      000000BBH   SFRSYM    DATA     BYTE      P_SW3
      000000BAH   SFRSYM    DATA     BYTE      P_SW2
      000000A2H   SFRSYM    DATA     BYTE      P_SW1
      000000CEH   SFRSYM    DATA     BYTE      SPCTL
      000000F8H   SFRSYM    DATA     BYTE      P7
      000000E8H   SFRSYM    DATA     BYTE      P6
      000000C8H   SFRSYM    DATA     BYTE      P5
      000000C0H   SFRSYM    DATA     BYTE      P4
      000000ABH   SFRSYM    DATA     BYTE      WKTCH
      000000B0H   SFRSYM    DATA     BYTE      P3
      000000A0H   SFRSYM    DATA     BYTE      P2
      00000090H   SFRSYM    DATA     BYTE      P1
      00000080H   SFRSYM    DATA     BYTE      P0

      00FFBFD8H   BLOCK     CODE     ---       LVL=0
      00011470H   SYMBOL    XDATA    FLOAT     dt
L251 LINKER/LOCATER V4.66.93.0                                                        05/06/2025  18:54:37  PAGE 116


      00FFBFD8H   LINE      CODE     ---       #18
      00FFBFE2H   LINE      CODE     ---       #20
      00FFBFE8H   LINE      CODE     ---       #22
      00FFC076H   LINE      CODE     ---       #23
      00FFC099H   LINE      CODE     ---       #24
      00FFC0B3H   LINE      CODE     ---       #25
      00FFC0B3H   LINE      CODE     ---       #26
      00FFC0D4H   LINE      CODE     ---       #28
      00FFC0FDH   LINE      CODE     ---       #30
      00FFC107H   LINE      CODE     ---       #31
      ---         BLOCKEND  ---      ---       LVL=0
      00011474H   SYMBOL    XDATA    FLOAT     dt

      00FF00C6H   BLOCK     CODE     ---       LVL=0
      00FF00C6H   LINE      CODE     ---       #48
      00FF00C6H   LINE      CODE     ---       #50
      00FF012BH   LINE      CODE     ---       #51
      00FF0190H   LINE      CODE     ---       #52
      ---         BLOCKEND  ---      ---       LVL=0

      00FFBC28H   BLOCK     CODE     ---       LVL=0
      00010BFEH   SYMBOL    XDATA    ---       pid
      00010C02H   SYMBOL    XDATA    FLOAT     kp
      00010C06H   SYMBOL    XDATA    FLOAT     ki
      00010C0AH   SYMBOL    XDATA    FLOAT     kd
      00010C0EH   SYMBOL    XDATA    FLOAT     imax
      00010C12H   SYMBOL    XDATA    FLOAT     outmax
      00FFBC28H   LINE      CODE     ---       #61
      00FFBC3CH   LINE      CODE     ---       #63
      00FFBC57H   LINE      CODE     ---       #64
      00FFBC73H   LINE      CODE     ---       #65
      00FFBC8FH   LINE      CODE     ---       #66
      00FFBCABH   LINE      CODE     ---       #67
      00FFBCBFH   LINE      CODE     ---       #68
      00FFBCD3H   LINE      CODE     ---       #69
      00FFBCE7H   LINE      CODE     ---       #70
      00FFBCFBH   LINE      CODE     ---       #71
      00FFBD17H   LINE      CODE     ---       #72
      00FFBD2BH   LINE      CODE     ---       #73
      00FFBD3FH   LINE      CODE     ---       #74
      00FFBD53H   LINE      CODE     ---       #75
      00FFBD67H   LINE      CODE     ---       #76
      ---         BLOCKEND  ---      ---       LVL=0

      00FF9584H   BLOCK     CODE     ---       LVL=0
      00010EBAH   SYMBOL    XDATA    ---       pid
      00010EBEH   SYMBOL    XDATA    FLOAT     error
      00010EC2H   SYMBOL    XDATA    FLOAT     t
      00FF9584H   LINE      CODE     ---       #84
      00FF9598H   LINE      CODE     ---       #87
      00FF95C1H   LINE      CODE     ---       #90
      00FF961FH   LINE      CODE     ---       #93
      00FF964FH   LINE      CODE     ---       #94
      00FF9695H   LINE      CODE     ---       #95
      00FF96ECH   LINE      CODE     ---       #97
      00FF9708H   LINE      CODE     ---       #99
      00FF9756H   LINE      CODE     ---       #101
      00FF97B4H   LINE      CODE     ---       #103
      00FF97C6H   LINE      CODE     ---       #104
      ---         BLOCKEND  ---      ---       LVL=0
      00010EC6H   SYMBOL    XDATA    ---       pid
      00010ECAH   SYMBOL    XDATA    FLOAT     error
      00010ECEH   SYMBOL    XDATA    FLOAT     t

      00FFDF50H   BLOCK     CODE     ---       LVL=0
L251 LINKER/LOCATER V4.66.93.0                                                        05/06/2025  18:54:37  PAGE 117


      00010ED2H   SYMBOL    XDATA    FLOAT     amt
      00010ED6H   SYMBOL    XDATA    FLOAT     low
      00010EDAH   SYMBOL    XDATA    FLOAT     high
      00FFDF50H   LINE      CODE     ---       #135
      00FFDF64H   LINE      CODE     ---       #137
      00FFDFB8H   LINE      CODE     ---       #138
      ---         BLOCKEND  ---      ---       LVL=0
      000113BBH   SYMBOL    XDATA    INT       amt
      000113BDH   SYMBOL    XDATA    INT       low
      000113BFH   SYMBOL    XDATA    INT       high

      00FFE3F9H   BLOCK     CODE     ---       LVL=0
      00011478H   SYMBOL    XDATA    FLOAT     amt
      00FFE3F9H   LINE      CODE     ---       #157
      00FFE403H   LINE      CODE     ---       #159
      00FFE44AH   LINE      CODE     ---       #160
      ---         BLOCKEND  ---      ---       LVL=0

      ---         MODULE    ---      ---       ips114
      00FFC356H   PUBLIC    CODE     ---       IPS114_Show_Unit
      00FF9C36H   PUBLIC    CODE     ---       IPS114_Show_Info
      000000D0H   SFRSYM    DATA     BYTE      PSW
      0000009DH   SFRSYM    DATA     BYTE      IRCBAND
      00000097H   SFRSYM    DATA     BYTE      AUXR2
      000000EFH   SFRSYM    DATA     BYTE      AUXINTIF
      000000FDH   SFRSYM    DATA     BYTE      S4CON
      000000ACH   SFRSYM    DATA     BYTE      S3CON
      0000009AH   SFRSYM    DATA     BYTE      S2CON
      000000B7H   SFRSYM    DATA     BYTE      IPH
      000000CDH   SFRSYM    DATA     BYTE      SPSTAT
      000000DDH   SFRSYM    DATA     BYTE      T4T3M
      000000C1H   SFRSYM    DATA     BYTE      WDT_CONTR
      000000DFH   SFRSYM    DATA     BYTE      IP3
      000000F4H   SFRSYM    DATA     BYTE      USBCON
      000000B5H   SFRSYM    DATA     BYTE      IP2
      000000FFH   SFRSYM    DATA     BYTE      RSTCFG
      000000C7H   SFRSYM    DATA     BYTE      IAP_CONTR
      0000008EH   SFRSYM    DATA     BYTE      AUXR
      000000AFH   SFRSYM    DATA     BYTE      IE2
      00000088H   SFRSYM    DATA     BYTE      TCON
      00000089H   SFRSYM    DATA     BYTE      TMOD
      00000098H   SFRSYM    DATA     BYTE      SCON
      00000087H   SFRSYM    DATA     BYTE      PCON
      000000BCH   SFRSYM    DATA     BYTE      ADC_CONTR
      000000D1H   SFRSYM    DATA     BYTE      PSW1
      000000E7H   SFRSYM    DATA     BYTE      CMPCR2
      000000E6H   SFRSYM    DATA     BYTE      CMPCR1
      000000DEH   SFRSYM    DATA     BYTE      ADCCFG
      000000B8H   SFRSYM    DATA     BYTE      IP
      0000008FH   SFRSYM    DATA     BYTE      INTCLKO
      000000EEH   SFRSYM    DATA     BYTE      IP3H
      000000B6H   SFRSYM    DATA     BYTE      IP2H
      000000BFH   SFRSYM    DATA     BYTE      P_SW4
      000000A8H   SFRSYM    DATA     BYTE      IE
      000000BBH   SFRSYM    DATA     BYTE      P_SW3
      000000BAH   SFRSYM    DATA     BYTE      P_SW2
      000000A2H   SFRSYM    DATA     BYTE      P_SW1
      000000CEH   SFRSYM    DATA     BYTE      SPCTL
      000000F8H   SFRSYM    DATA     BYTE      P7
      000000E8H   SFRSYM    DATA     BYTE      P6
      000000C8H   SFRSYM    DATA     BYTE      P5
      000000C0H   SFRSYM    DATA     BYTE      P4
      000000ABH   SFRSYM    DATA     BYTE      WKTCH
      000000B0H   SFRSYM    DATA     BYTE      P3
      000000A0H   SFRSYM    DATA     BYTE      P2
L251 LINKER/LOCATER V4.66.93.0                                                        05/06/2025  18:54:37  PAGE 118


      00000090H   SFRSYM    DATA     BYTE      P1
      00000080H   SFRSYM    DATA     BYTE      P0

      00FFC356H   BLOCK     CODE     ---       LVL=0
      00FFC356H   LINE      CODE     ---       #8
      00FFC356H   LINE      CODE     ---       #11
      00FFC361H   LINE      CODE     ---       #12
      00FFC370H   LINE      CODE     ---       #13
      00FFC37DH   LINE      CODE     ---       #14
      00FFC38AH   LINE      CODE     ---       #15
      00FFC397H   LINE      CODE     ---       #18
      00FFC3A2H   LINE      CODE     ---       #19
      00FFC3B3H   LINE      CODE     ---       #20
      00FFC3C0H   LINE      CODE     ---       #21
      00FFC3CDH   LINE      CODE     ---       #22
      00FFC3DAH   LINE      CODE     ---       #25
      00FFC3E5H   LINE      CODE     ---       #26
      00FFC3F6H   LINE      CODE     ---       #27
      00FFC409H   LINE      CODE     ---       #28
      00FFC41CH   LINE      CODE     ---       #30
      00FFC42DH   LINE      CODE     ---       #31
      00FFC440H   LINE      CODE     ---       #32
      00FFC451H   LINE      CODE     ---       #33
      00FFC464H   LINE      CODE     ---       #35
      00FFC46FH   LINE      CODE     ---       #36
      ---         BLOCKEND  ---      ---       LVL=0

      00FF9C36H   BLOCK     CODE     ---       LVL=0
      00011514H   SYMBOL    XDATA    BYTE      index
      00FF9C36H   LINE      CODE     ---       #42
      00FF9C36H   LINE      CODE     ---       #43
      00FF9C36H   LINE      CODE     ---       #45
      00FF9C3BH   LINE      CODE     ---       #47
      00FF9C68H   LINE      CODE     ---       #48
      00FF9C95H   LINE      CODE     ---       #49
      00FF9C9DH   LINE      CODE     ---       #51
      00FF9CE3H   LINE      CODE     ---       #52
      00FF9D29H   LINE      CODE     ---       #53
      00FF9D3BH   LINE      CODE     ---       #55
      00FF9D41H   LINE      CODE     ---       #58
      00FF9D50H   LINE      CODE     ---       #59
      00FF9D5FH   LINE      CODE     ---       #60
      00FF9D8EH   LINE      CODE     ---       #62
      00FF9DC2H   LINE      CODE     ---       #63
      00FF9DF6H   LINE      CODE     ---       #64
      00FF9E25H   LINE      CODE     ---       #65
      00FF9E54H   LINE      CODE     ---       #66
      ---         BLOCKEND  ---      ---       LVL=0

      ---         MODULE    ---      ---       imu
      000107B5H   PUBLIC    XDATA    FLOAT     pitch
      000107B9H   PUBLIC    XDATA    FLOAT     q0
      000107BDH   PUBLIC    XDATA    FLOAT     q1
      000107C1H   PUBLIC    XDATA    FLOAT     q2
      000107C5H   PUBLIC    XDATA    FLOAT     q3
      000107C9H   PUBLIC    XDATA    FLOAT     roll
      000107CDH   PUBLIC    XDATA    FLOAT     x_p
      000107D1H   PUBLIC    XDATA    FLOAT     y_p
      000107D5H   PUBLIC    XDATA    FLOAT     z_p
      000107D9H   PUBLIC    XDATA    FLOAT     x_v
      000107DDH   PUBLIC    XDATA    FLOAT     y_v
      000107E1H   PUBLIC    XDATA    FLOAT     z_v
      000107E5H   PUBLIC    XDATA    FLOAT     yaw
      000107E9H   PUBLIC    XDATA    ---       imu_acc
      000107F5H   PUBLIC    XDATA    FLOAT     integralFBx
L251 LINKER/LOCATER V4.66.93.0                                                        05/06/2025  18:54:37  PAGE 119


      000107F9H   PUBLIC    XDATA    FLOAT     integralFBy
      000107FDH   PUBLIC    XDATA    FLOAT     integralFBz
      00010801H   PUBLIC    XDATA    ---       imu_gyro
      000000D0H   SFRSYM    DATA     BYTE      PSW
      0000009DH   SFRSYM    DATA     BYTE      IRCBAND
      00000097H   SFRSYM    DATA     BYTE      AUXR2
      000000EFH   SFRSYM    DATA     BYTE      AUXINTIF
      000000FDH   SFRSYM    DATA     BYTE      S4CON
      000000ACH   SFRSYM    DATA     BYTE      S3CON
      0000009AH   SFRSYM    DATA     BYTE      S2CON
      000000B7H   SFRSYM    DATA     BYTE      IPH
      000000CDH   SFRSYM    DATA     BYTE      SPSTAT
      000000DDH   SFRSYM    DATA     BYTE      T4T3M
      000000C1H   SFRSYM    DATA     BYTE      WDT_CONTR
      000000DFH   SFRSYM    DATA     BYTE      IP3
      000000F4H   SFRSYM    DATA     BYTE      USBCON
      000000B5H   SFRSYM    DATA     BYTE      IP2
      000000FFH   SFRSYM    DATA     BYTE      RSTCFG
      000000C7H   SFRSYM    DATA     BYTE      IAP_CONTR
      0000008EH   SFRSYM    DATA     BYTE      AUXR
      000000AFH   SFRSYM    DATA     BYTE      IE2
      00000088H   SFRSYM    DATA     BYTE      TCON
      00000089H   SFRSYM    DATA     BYTE      TMOD
      00000098H   SFRSYM    DATA     BYTE      SCON
      00000087H   SFRSYM    DATA     BYTE      PCON
      000000BCH   SFRSYM    DATA     BYTE      ADC_CONTR
      000000D1H   SFRSYM    DATA     BYTE      PSW1
      000000E7H   SFRSYM    DATA     BYTE      CMPCR2
      000000E6H   SFRSYM    DATA     BYTE      CMPCR1
      000000DEH   SFRSYM    DATA     BYTE      ADCCFG
      000000B8H   SFRSYM    DATA     BYTE      IP
      0000008FH   SFRSYM    DATA     BYTE      INTCLKO
      000000EEH   SFRSYM    DATA     BYTE      IP3H
      000000B6H   SFRSYM    DATA     BYTE      IP2H
      000000BFH   SFRSYM    DATA     BYTE      P_SW4
      000000A8H   SFRSYM    DATA     BYTE      IE
      000000BBH   SFRSYM    DATA     BYTE      P_SW3
      000000BAH   SFRSYM    DATA     BYTE      P_SW2
      000000A2H   SFRSYM    DATA     BYTE      P_SW1
      000000CEH   SFRSYM    DATA     BYTE      SPCTL
      000000F8H   SFRSYM    DATA     BYTE      P7
      000000E8H   SFRSYM    DATA     BYTE      P6
      000000C8H   SFRSYM    DATA     BYTE      P5
      000000C0H   SFRSYM    DATA     BYTE      P4
      000000ABH   SFRSYM    DATA     BYTE      WKTCH
      000000B0H   SFRSYM    DATA     BYTE      P3
      000000A0H   SFRSYM    DATA     BYTE      P2
      00000090H   SFRSYM    DATA     BYTE      P1
      00000080H   SFRSYM    DATA     BYTE      P0

      ---         MODULE    ---      ---       gps
      00FFD7A0H   PUBLIC    CODE     ---       ReadPoint
      00FFE8B9H   PUBLIC    CODE     ---       WritePoint
      0001099EH   PUBLIC    XDATA    ---       target_point
      000109AEH   PUBLIC    XDATA    ---       origin_point
      000109BEH   PUBLIC    XDATA    ---       pObject
      000109C2H   PUBLIC    XDATA    ---       PID_param_index
      000109C5H   PUBLIC    XDATA    ---       gps_point_error
      000109D5H   PUBLIC    XDATA    ---       Object_one_index
      00000020H.0 PUBLIC    BIT      BIT       gps_date_ready
      00000020H.1 PUBLIC    BIT      BIT       init_yaw_lock
      000000D0H   SFRSYM    DATA     BYTE      PSW
      0000009DH   SFRSYM    DATA     BYTE      IRCBAND
      00000097H   SFRSYM    DATA     BYTE      AUXR2
      000000EFH   SFRSYM    DATA     BYTE      AUXINTIF
L251 LINKER/LOCATER V4.66.93.0                                                        05/06/2025  18:54:37  PAGE 120


      000000FDH   SFRSYM    DATA     BYTE      S4CON
      000000ACH   SFRSYM    DATA     BYTE      S3CON
      0000009AH   SFRSYM    DATA     BYTE      S2CON
      000000B7H   SFRSYM    DATA     BYTE      IPH
      000000CDH   SFRSYM    DATA     BYTE      SPSTAT
      000000DDH   SFRSYM    DATA     BYTE      T4T3M
      000000C1H   SFRSYM    DATA     BYTE      WDT_CONTR
      000000DFH   SFRSYM    DATA     BYTE      IP3
      000000F4H   SFRSYM    DATA     BYTE      USBCON
      000000B5H   SFRSYM    DATA     BYTE      IP2
      000000FFH   SFRSYM    DATA     BYTE      RSTCFG
      000000C7H   SFRSYM    DATA     BYTE      IAP_CONTR
      0000008EH   SFRSYM    DATA     BYTE      AUXR
      000000AFH   SFRSYM    DATA     BYTE      IE2
      00000088H   SFRSYM    DATA     BYTE      TCON
      00000089H   SFRSYM    DATA     BYTE      TMOD
      00000098H   SFRSYM    DATA     BYTE      SCON
      00000087H   SFRSYM    DATA     BYTE      PCON
      000000BCH   SFRSYM    DATA     BYTE      ADC_CONTR
      000000D1H   SFRSYM    DATA     BYTE      PSW1
      000000E7H   SFRSYM    DATA     BYTE      CMPCR2
      000000E6H   SFRSYM    DATA     BYTE      CMPCR1
      000000DEH   SFRSYM    DATA     BYTE      ADCCFG
      000000B8H   SFRSYM    DATA     BYTE      IP
      0000008FH   SFRSYM    DATA     BYTE      INTCLKO
      000000EEH   SFRSYM    DATA     BYTE      IP3H
      000000B6H   SFRSYM    DATA     BYTE      IP2H
      000000BFH   SFRSYM    DATA     BYTE      P_SW4
      000000A8H   SFRSYM    DATA     BYTE      IE
      000000BBH   SFRSYM    DATA     BYTE      P_SW3
      000000BAH   SFRSYM    DATA     BYTE      P_SW2
      000000A2H   SFRSYM    DATA     BYTE      P_SW1
      000000CEH   SFRSYM    DATA     BYTE      SPCTL
      000000F8H   SFRSYM    DATA     BYTE      P7
      000000E8H   SFRSYM    DATA     BYTE      P6
      000000C8H   SFRSYM    DATA     BYTE      P5
      000000C0H   SFRSYM    DATA     BYTE      P4
      000000ABH   SFRSYM    DATA     BYTE      WKTCH
      000000B0H   SFRSYM    DATA     BYTE      P3
      000000A0H   SFRSYM    DATA     BYTE      P2
      00000090H   SFRSYM    DATA     BYTE      P1
      00000080H   SFRSYM    DATA     BYTE      P0

      00FFE8B9H   BLOCK     CODE     ---       LVL=0
      00011515H   SYMBOL    XDATA    BYTE      offset
      00FFE8B9H   LINE      CODE     ---       #31
      00FFE8BDH   LINE      CODE     ---       #34
      00FFE8DAH   LINE      CODE     ---       #35
      ---         BLOCKEND  ---      ---       LVL=0

      00FFD7A0H   BLOCK     CODE     ---       LVL=0
      00011516H   SYMBOL    XDATA    BYTE      offset
      00FFD7A0H   LINE      CODE     ---       #38
      00FFD7A4H   LINE      CODE     ---       #41
      00FFD7C8H   LINE      CODE     ---       #44
      00FFD7FEH   LINE      CODE     ---       #45
      00FFD834H   LINE      CODE     ---       #46
      ---         BLOCKEND  ---      ---       LVL=0

      ---         MODULE    ---      ---       bluetooth
      00FFE24EH   PUBLIC    CODE     ---       blue_tooth_read
      000108A7H   PUBLIC    XDATA    BYTE      data_len
      000108A8H   PUBLIC    XDATA    ---       data_buffer
      000000D0H   SFRSYM    DATA     BYTE      PSW
      0000009DH   SFRSYM    DATA     BYTE      IRCBAND
L251 LINKER/LOCATER V4.66.93.0                                                        05/06/2025  18:54:37  PAGE 121


      00000097H   SFRSYM    DATA     BYTE      AUXR2
      000000EFH   SFRSYM    DATA     BYTE      AUXINTIF
      000000FDH   SFRSYM    DATA     BYTE      S4CON
      000000ACH   SFRSYM    DATA     BYTE      S3CON
      0000009AH   SFRSYM    DATA     BYTE      S2CON
      000000B7H   SFRSYM    DATA     BYTE      IPH
      000000CDH   SFRSYM    DATA     BYTE      SPSTAT
      000000DDH   SFRSYM    DATA     BYTE      T4T3M
      000000C1H   SFRSYM    DATA     BYTE      WDT_CONTR
      000000DFH   SFRSYM    DATA     BYTE      IP3
      000000F4H   SFRSYM    DATA     BYTE      USBCON
      000000B5H   SFRSYM    DATA     BYTE      IP2
      000000FFH   SFRSYM    DATA     BYTE      RSTCFG
      000000C7H   SFRSYM    DATA     BYTE      IAP_CONTR
      0000008EH   SFRSYM    DATA     BYTE      AUXR
      000000AFH   SFRSYM    DATA     BYTE      IE2
      00000088H   SFRSYM    DATA     BYTE      TCON
      00000089H   SFRSYM    DATA     BYTE      TMOD
      00000098H   SFRSYM    DATA     BYTE      SCON
      00000087H   SFRSYM    DATA     BYTE      PCON
      000000BCH   SFRSYM    DATA     BYTE      ADC_CONTR
      000000D1H   SFRSYM    DATA     BYTE      PSW1
      000000E7H   SFRSYM    DATA     BYTE      CMPCR2
      000000E6H   SFRSYM    DATA     BYTE      CMPCR1
      000000DEH   SFRSYM    DATA     BYTE      ADCCFG
      000000B8H   SFRSYM    DATA     BYTE      IP
      0000008FH   SFRSYM    DATA     BYTE      INTCLKO
      000000EEH   SFRSYM    DATA     BYTE      IP3H
      000000B6H   SFRSYM    DATA     BYTE      IP2H
      000000BFH   SFRSYM    DATA     BYTE      P_SW4
      000000A8H   SFRSYM    DATA     BYTE      IE
      000000BBH   SFRSYM    DATA     BYTE      P_SW3
      000000BAH   SFRSYM    DATA     BYTE      P_SW2
      000000A2H   SFRSYM    DATA     BYTE      P_SW1
      000000CEH   SFRSYM    DATA     BYTE      SPCTL
      000000F8H   SFRSYM    DATA     BYTE      P7
      000000E8H   SFRSYM    DATA     BYTE      P6
      000000C8H   SFRSYM    DATA     BYTE      P5
      000000C0H   SFRSYM    DATA     BYTE      P4
      000000ABH   SFRSYM    DATA     BYTE      WKTCH
      000000B0H   SFRSYM    DATA     BYTE      P3
      000000A0H   SFRSYM    DATA     BYTE      P2
      00000090H   SFRSYM    DATA     BYTE      P1
      00000080H   SFRSYM    DATA     BYTE      P0

      00FFE24EH   BLOCK     CODE     ---       LVL=0
      0001147CH   SYMBOL    XDATA    ---       buffer
      00FFE24EH   LINE      CODE     ---       #24
      00FFE258H   LINE      CODE     ---       #26
      00FFE26BH   LINE      CODE     ---       #28
      00FFE276H   LINE      CODE     ---       #29
      00FFE27DH   LINE      CODE     ---       #30
      00FFE288H   LINE      CODE     ---       #31
      00FFE2A5H   LINE      CODE     ---       #32
      ---         BLOCKEND  ---      ---       LVL=0

      ---         MODULE    ---      ---       init
      00FFE2A6H   PUBLIC    CODE     ---       init
      000000D0H   SFRSYM    DATA     BYTE      PSW
      0000009DH   SFRSYM    DATA     BYTE      IRCBAND
      00000097H   SFRSYM    DATA     BYTE      AUXR2
      000000EFH   SFRSYM    DATA     BYTE      AUXINTIF
      000000FDH   SFRSYM    DATA     BYTE      S4CON
      000000ACH   SFRSYM    DATA     BYTE      S3CON
      0000009AH   SFRSYM    DATA     BYTE      S2CON
L251 LINKER/LOCATER V4.66.93.0                                                        05/06/2025  18:54:37  PAGE 122


      000000B7H   SFRSYM    DATA     BYTE      IPH
      000000CDH   SFRSYM    DATA     BYTE      SPSTAT
      000000DDH   SFRSYM    DATA     BYTE      T4T3M
      000000C1H   SFRSYM    DATA     BYTE      WDT_CONTR
      000000DFH   SFRSYM    DATA     BYTE      IP3
      000000F4H   SFRSYM    DATA     BYTE      USBCON
      000000B5H   SFRSYM    DATA     BYTE      IP2
      000000FFH   SFRSYM    DATA     BYTE      RSTCFG
      000000C7H   SFRSYM    DATA     BYTE      IAP_CONTR
      0000008EH   SFRSYM    DATA     BYTE      AUXR
      000000AFH   SFRSYM    DATA     BYTE      IE2
      00000088H   SFRSYM    DATA     BYTE      TCON
      00000089H   SFRSYM    DATA     BYTE      TMOD
      00000098H   SFRSYM    DATA     BYTE      SCON
      00000087H   SFRSYM    DATA     BYTE      PCON
      000000BCH   SFRSYM    DATA     BYTE      ADC_CONTR
      000000D1H   SFRSYM    DATA     BYTE      PSW1
      000000E7H   SFRSYM    DATA     BYTE      CMPCR2
      000000E6H   SFRSYM    DATA     BYTE      CMPCR1
      000000DEH   SFRSYM    DATA     BYTE      ADCCFG
      000000B8H   SFRSYM    DATA     BYTE      IP
      0000008FH   SFRSYM    DATA     BYTE      INTCLKO
      000000EEH   SFRSYM    DATA     BYTE      IP3H
      000000B6H   SFRSYM    DATA     BYTE      IP2H
      000000BFH   SFRSYM    DATA     BYTE      P_SW4
      000000A8H   SFRSYM    DATA     BYTE      IE
      000000BBH   SFRSYM    DATA     BYTE      P_SW3
      000000BAH   SFRSYM    DATA     BYTE      P_SW2
      000000A2H   SFRSYM    DATA     BYTE      P_SW1
      000000CEH   SFRSYM    DATA     BYTE      SPCTL
      000000F8H   SFRSYM    DATA     BYTE      P7
      000000E8H   SFRSYM    DATA     BYTE      P6
      000000C8H   SFRSYM    DATA     BYTE      P5
      000000C0H   SFRSYM    DATA     BYTE      P4
      000000ABH   SFRSYM    DATA     BYTE      WKTCH
      000000B0H   SFRSYM    DATA     BYTE      P3
      000000A0H   SFRSYM    DATA     BYTE      P2
      00000090H   SFRSYM    DATA     BYTE      P1
      00000080H   SFRSYM    DATA     BYTE      P0

      00FFE2A6H   BLOCK     CODE     ---       LVL=0
      00FFE2A6H   LINE      CODE     ---       #3
      00FFE2A6H   LINE      CODE     ---       #5
      00FFE2B1H   LINE      CODE     ---       #6
      00FFE2B4H   LINE      CODE     ---       #9
      00FFE2B7H   LINE      CODE     ---       #10
      00FFE2BAH   LINE      CODE     ---       #14
      00FFE2BDH   LINE      CODE     ---       #18
      00FFE2C0H   LINE      CODE     ---       #21
      00FFE2C5H   LINE      CODE     ---       #24
      00FFE2C7H   LINE      CODE     ---       #27
      00FFE2D8H   LINE      CODE     ---       #31
      00FFE2DDH   LINE      CODE     ---       #34
      00FFE2E4H   LINE      CODE     ---       #35
      00FFE2E7H   LINE      CODE     ---       #41
      00FFE2EAH   LINE      CODE     ---       #44
      00FFE2EDH   LINE      CODE     ---       #47
      00FFE2F0H   LINE      CODE     ---       #50
      00FFE2FBH   LINE      CODE     ---       #51
      ---         BLOCKEND  ---      ---       LVL=0

      ---         MODULE    ---      ---       pwm
      00FFE13AH   PUBLIC    CODE     ---       my_pwm_init
      00010D03H   PUBLIC    XDATA    INT       duty_up_right
      00010D05H   PUBLIC    XDATA    INT       duty_up_left
L251 LINKER/LOCATER V4.66.93.0                                                        05/06/2025  18:54:37  PAGE 123


      00010D07H   PUBLIC    XDATA    INT       duty_forward_right
      00010D09H   PUBLIC    XDATA    INT       duty_forward_left
      00010D0BH   PUBLIC    XDATA    ---       duty
      000000D0H   SFRSYM    DATA     BYTE      PSW
      0000009DH   SFRSYM    DATA     BYTE      IRCBAND
      00000097H   SFRSYM    DATA     BYTE      AUXR2
      000000EFH   SFRSYM    DATA     BYTE      AUXINTIF
      000000FDH   SFRSYM    DATA     BYTE      S4CON
      000000ACH   SFRSYM    DATA     BYTE      S3CON
      0000009AH   SFRSYM    DATA     BYTE      S2CON
      000000B7H   SFRSYM    DATA     BYTE      IPH
      000000CDH   SFRSYM    DATA     BYTE      SPSTAT
      000000DDH   SFRSYM    DATA     BYTE      T4T3M
      000000C1H   SFRSYM    DATA     BYTE      WDT_CONTR
      000000DFH   SFRSYM    DATA     BYTE      IP3
      000000F4H   SFRSYM    DATA     BYTE      USBCON
      000000B5H   SFRSYM    DATA     BYTE      IP2
      000000FFH   SFRSYM    DATA     BYTE      RSTCFG
      000000C7H   SFRSYM    DATA     BYTE      IAP_CONTR
      0000008EH   SFRSYM    DATA     BYTE      AUXR
      000000AFH   SFRSYM    DATA     BYTE      IE2
      00000088H   SFRSYM    DATA     BYTE      TCON
      00000089H   SFRSYM    DATA     BYTE      TMOD
      00000098H   SFRSYM    DATA     BYTE      SCON
      00000087H   SFRSYM    DATA     BYTE      PCON
      000000BCH   SFRSYM    DATA     BYTE      ADC_CONTR
      000000D1H   SFRSYM    DATA     BYTE      PSW1
      000000E7H   SFRSYM    DATA     BYTE      CMPCR2
      000000E6H   SFRSYM    DATA     BYTE      CMPCR1
      000000DEH   SFRSYM    DATA     BYTE      ADCCFG
      000000B8H   SFRSYM    DATA     BYTE      IP
      0000008FH   SFRSYM    DATA     BYTE      INTCLKO
      000000EEH   SFRSYM    DATA     BYTE      IP3H
      000000B6H   SFRSYM    DATA     BYTE      IP2H
      000000BFH   SFRSYM    DATA     BYTE      P_SW4
      000000A8H   SFRSYM    DATA     BYTE      IE
      000000BBH   SFRSYM    DATA     BYTE      P_SW3
      000000BAH   SFRSYM    DATA     BYTE      P_SW2
      000000A2H   SFRSYM    DATA     BYTE      P_SW1
      000000CEH   SFRSYM    DATA     BYTE      SPCTL
      000000F8H   SFRSYM    DATA     BYTE      P7
      000000E8H   SFRSYM    DATA     BYTE      P6
      000000C8H   SFRSYM    DATA     BYTE      P5
      000000C0H   SFRSYM    DATA     BYTE      P4
      000000ABH   SFRSYM    DATA     BYTE      WKTCH
      000000B0H   SFRSYM    DATA     BYTE      P3
      000000A0H   SFRSYM    DATA     BYTE      P2
      00000090H   SFRSYM    DATA     BYTE      P1
      00000080H   SFRSYM    DATA     BYTE      P0

      00FFE13AH   BLOCK     CODE     ---       LVL=0
      00FFE13AH   LINE      CODE     ---       #9
      00FFE13AH   LINE      CODE     ---       #11
      00FFE151H   LINE      CODE     ---       #12
      00FFE168H   LINE      CODE     ---       #13
      00FFE17FH   LINE      CODE     ---       #14
      00FFE196H   LINE      CODE     ---       #26
      ---         BLOCKEND  ---      ---       LVL=0

      ---         MODULE    ---      ---       filter
      00FFD416H   PUBLIC    CODE     ---       FOCF
      00FFB6DFH   PUBLIC    CODE     ---       my_atan2
      00FF5FE8H   PUBLIC    CODE     ---       GetEuler
      00FF7E56H   PUBLIC    CODE     ---       EulerToQuaternion
      00010EDEH   PUBLIC    XDATA    BYTE      ?FOCF?BYTE
L251 LINKER/LOCATER V4.66.93.0                                                        05/06/2025  18:54:37  PAGE 124


      00010C16H   PUBLIC    XDATA    BYTE      ?my_atan2?BYTE
      000000D0H   SFRSYM    DATA     BYTE      PSW
      0000009DH   SFRSYM    DATA     BYTE      IRCBAND
      00000097H   SFRSYM    DATA     BYTE      AUXR2
      000000EFH   SFRSYM    DATA     BYTE      AUXINTIF
      000000FDH   SFRSYM    DATA     BYTE      S4CON
      000000ACH   SFRSYM    DATA     BYTE      S3CON
      0000009AH   SFRSYM    DATA     BYTE      S2CON
      000000B7H   SFRSYM    DATA     BYTE      IPH
      000000CDH   SFRSYM    DATA     BYTE      SPSTAT
      000000DDH   SFRSYM    DATA     BYTE      T4T3M
      000000C1H   SFRSYM    DATA     BYTE      WDT_CONTR
      000000DFH   SFRSYM    DATA     BYTE      IP3
      000000F4H   SFRSYM    DATA     BYTE      USBCON
      000000B5H   SFRSYM    DATA     BYTE      IP2
      000000FFH   SFRSYM    DATA     BYTE      RSTCFG
      000000C7H   SFRSYM    DATA     BYTE      IAP_CONTR
      0000008EH   SFRSYM    DATA     BYTE      AUXR
      000000AFH   SFRSYM    DATA     BYTE      IE2
      00000088H   SFRSYM    DATA     BYTE      TCON
      00000089H   SFRSYM    DATA     BYTE      TMOD
      00000098H   SFRSYM    DATA     BYTE      SCON
      00000087H   SFRSYM    DATA     BYTE      PCON
      000000BCH   SFRSYM    DATA     BYTE      ADC_CONTR
      000000D1H   SFRSYM    DATA     BYTE      PSW1
      000000E7H   SFRSYM    DATA     BYTE      CMPCR2
      000000E6H   SFRSYM    DATA     BYTE      CMPCR1
      000000DEH   SFRSYM    DATA     BYTE      ADCCFG
      000000B8H   SFRSYM    DATA     BYTE      IP
      0000008FH   SFRSYM    DATA     BYTE      INTCLKO
      000000EEH   SFRSYM    DATA     BYTE      IP3H
      000000B6H   SFRSYM    DATA     BYTE      IP2H
      000000BFH   SFRSYM    DATA     BYTE      P_SW4
      000000A8H   SFRSYM    DATA     BYTE      IE
      000000BBH   SFRSYM    DATA     BYTE      P_SW3
      000000BAH   SFRSYM    DATA     BYTE      P_SW2
      000000A2H   SFRSYM    DATA     BYTE      P_SW1
      000000CEH   SFRSYM    DATA     BYTE      SPCTL
      000000F8H   SFRSYM    DATA     BYTE      P7
      000000E8H   SFRSYM    DATA     BYTE      P6
      000000C8H   SFRSYM    DATA     BYTE      P5
      000000C0H   SFRSYM    DATA     BYTE      P4
      000000ABH   SFRSYM    DATA     BYTE      WKTCH
      000000B0H   SFRSYM    DATA     BYTE      P3
      000000A0H   SFRSYM    DATA     BYTE      P2
      00000090H   SFRSYM    DATA     BYTE      P1
      00000080H   SFRSYM    DATA     BYTE      P0

      00FFD416H   BLOCK     CODE     ---       LVL=0
      00010EDEH   SYMBOL    XDATA    ---       pData
      00010EE2H   SYMBOL    XDATA    ---       pPreData
      00010EE6H   SYMBOL    XDATA    FLOAT     alpha
      00FFD416H   LINE      CODE     ---       #7
      00FFD42AH   LINE      CODE     ---       #9
      00FFD45BH   LINE      CODE     ---       #10
      00FFD4AEH   LINE      CODE     ---       #11
      ---         BLOCKEND  ---      ---       LVL=0

      00FFB6DFH   BLOCK     CODE     ---       LVL=0
      00010C16H   SYMBOL    XDATA    DOUBLE    y
      00010C1EH   SYMBOL    XDATA    DOUBLE    x
      00FFB772H   BLOCK     CODE     NEAR LAB  LVL=1
      00010C26H   SYMBOL    XDATA    DOUBLE    theta
      ---         BLOCKEND  ---      ---       LVL=1
      00FFB6DFH   LINE      CODE     ---       #17
L251 LINKER/LOCATER V4.66.93.0                                                        05/06/2025  18:54:37  PAGE 125


      00FFB6F1H   LINE      CODE     ---       #19
      00FFB70FH   LINE      CODE     ---       #20
      00FFB72AH   LINE      CODE     ---       #21
      00FFB73DH   LINE      CODE     ---       #22
      00FFB758H   LINE      CODE     ---       #23
      00FFB76BH   LINE      CODE     ---       #24
      00FFB76BH   LINE      CODE     ---       #25
      00FFB772H   LINE      CODE     ---       #26
      00FFB772H   LINE      CODE     ---       #27
      00FFB772H   LINE      CODE     ---       #28
      00FFB772H   LINE      CODE     ---       #30
      00FFB7AEH   LINE      CODE     ---       #33
      00FFB7C9H   LINE      CODE     ---       #34
      00FFB7DDH   LINE      CODE     ---       #36
      00FFB7DDH   LINE      CODE     ---       #37
      00FFB7F8H   LINE      CODE     ---       #38
      00FFB81FH   LINE      CODE     ---       #39
      00FFB81FH   LINE      CODE     ---       #40
      00FFB844H   LINE      CODE     ---       #41
      00FFB844H   LINE      CODE     ---       #42
      00FFB844H   LINE      CODE     ---       #43
      00FFB844H   LINE      CODE     ---       #44
      ---         BLOCKEND  ---      ---       LVL=0

      00FF5FE8H   BLOCK     CODE     ---       LVL=0
      00010C2EH   SYMBOL    XDATA    ---       gyro
      00010C32H   SYMBOL    XDATA    FLOAT     dt
      00FF5FFCH   BLOCK     CODE     NEAR LAB  LVL=1
      00010C36H   SYMBOL    XDATA    FLOAT     norm
      00010C3AH   SYMBOL    XDATA    FLOAT     gx
      00010C3EH   SYMBOL    XDATA    FLOAT     gy
      00010C42H   SYMBOL    XDATA    FLOAT     gz
      ---         BLOCKEND  ---      ---       LVL=1
      00FF5FE8H   LINE      CODE     ---       #50
      00FF5FFCH   LINE      CODE     ---       #51
      00FF5FFCH   LINE      CODE     ---       #55
      00FF6022H   LINE      CODE     ---       #56
      00FF6049H   LINE      CODE     ---       #57
      00FF6070H   LINE      CODE     ---       #60
      00FF60F4H   LINE      CODE     ---       #61
      00FF6173H   LINE      CODE     ---       #62
      00FF61F0H   LINE      CODE     ---       #63
      00FF626FH   LINE      CODE     ---       #66
      00FF62F3H   LINE      CODE     ---       #67
      00FF6304H   LINE      CODE     ---       #68
      00FF6322H   LINE      CODE     ---       #69
      00FF6340H   LINE      CODE     ---       #70
      00FF635EH   LINE      CODE     ---       #71
      00FF637CH   LINE      CODE     ---       #74
      00FF643CH   LINE      CODE     ---       #75
      00FF649EH   LINE      CODE     ---       #76
      00FF655EH   LINE      CODE     ---       #77
      ---         BLOCKEND  ---      ---       LVL=0

      00FF7E56H   BLOCK     CODE     ---       LVL=0
      00010962H   SYMBOL    XDATA    FLOAT     roll_rad
      00010966H   SYMBOL    XDATA    FLOAT     pitch_rad
      0001096AH   SYMBOL    XDATA    FLOAT     yaw_rad
      0001096EH   SYMBOL    XDATA    DOUBLE    cr
      00010976H   SYMBOL    XDATA    DOUBLE    sr
      0001097EH   SYMBOL    XDATA    DOUBLE    cp
      00010986H   SYMBOL    XDATA    DOUBLE    sp
      0001098EH   SYMBOL    XDATA    DOUBLE    cy
      00010996H   SYMBOL    XDATA    DOUBLE    sy
      00FF7E56H   LINE      CODE     ---       #78
L251 LINKER/LOCATER V4.66.93.0                                                        05/06/2025  18:54:37  PAGE 126


      00FF7E56H   LINE      CODE     ---       #79
      00FF7E56H   LINE      CODE     ---       #81
      00FF7E75H   LINE      CODE     ---       #82
      00FF7E94H   LINE      CODE     ---       #83
      00FF7EB3H   LINE      CODE     ---       #85
      00FF7EDEH   LINE      CODE     ---       #86
      00FF7F09H   LINE      CODE     ---       #87
      00FF7F34H   LINE      CODE     ---       #88
      00FF7F5FH   LINE      CODE     ---       #89
      00FF7F8AH   LINE      CODE     ---       #90
      00FF7FB5H   LINE      CODE     ---       #92
      00FF8045H   LINE      CODE     ---       #93
      00FF80D5H   LINE      CODE     ---       #94
      00FF8165H   LINE      CODE     ---       #95
      00FF81F5H   LINE      CODE     ---       #96
      ---         BLOCKEND  ---      ---       LVL=0

      ---         MODULE    ---      ---       StateMachine
      00FF01CEH   PUBLIC    CODE     ---       StateUpdate
      00011480H   PUBLIC    XDATA    INT       State
      00011482H   PUBLIC    XDATA    INT       preState
      00FFEFAEH   PUBLIC    HCONST   ---       Event_Emergency
      00FFEFBAH   PUBLIC    HCONST   ---       Event_Finish
      00FFEFC6H   PUBLIC    HCONST   ---       Event_Restart

      00FF01CEH   BLOCK     CODE     ---       LVL=0
      00011484H   SYMBOL    XDATA    ---       Event
      00FF01CEH   LINE      CODE     ---       #25
      00FF01D8H   LINE      CODE     ---       #27
      00FF01E4H   LINE      CODE     ---       #29
      00FF0201H   LINE      CODE     ---       #31
      00FF0219H   LINE      CODE     ---       #32
      ---         BLOCKEND  ---      ---       LVL=0

      ---         MODULE    ---      ---       qspi
      00FFB845H   PUBLIC    CODE     ---       QSPI_READ_INSTR_SDATA
      00FFD17CH   PUBLIC    CODE     ---       QSPI_WRITE_INSTR
      00FFA047H   PUBLIC    CODE     ---       QSPI_READ_INSTR_SADDR24_DUMMY_QDATA
      00FFA5BBH   PUBLIC    CODE     ---       QSPI_WRITE_INSTR_SADDR24_QDATA
      00FFC231H   PUBLIC    CODE     ---       QSPI_WRITE_INSTR_SADDR8
      00FFCB6CH   PUBLIC    CODE     ---       QSPI_Init
      00FFBEA1H   PUBLIC    CODE     ---       QSPI_WRITE_INSTR_SADDR24
      00FFC108H   PUBLIC    CODE     ---       QSPI_WRITE_INSTR_SADDR16
      00010FEEH   PUBLIC    XDATA    BYTE      ?QSPI_READ_INSTR_SADDR24_SDATA?BYTE
      00010EEAH   PUBLIC    XDATA    BYTE      ?QSPI_READ_INSTR_SADDR24_DUMMY_SDATA?BYTE
      00010FF9H   PUBLIC    XDATA    BYTE      ?QSPI_DMA_READ_INSTR_SADDR24_SDATA?BYTE
      00010EF6H   PUBLIC    XDATA    BYTE      ?QSPI_DMA_READ_INSTR_SADDR24_DUMMY_SDATA?BYTE
      00011004H   PUBLIC    XDATA    BYTE      ?QSPI_READ_INSTR_SADDR32_SDATA?BYTE
      00010F02H   PUBLIC    XDATA    BYTE      ?QSPI_READ_INSTR_SADDR32_DUMMY_SDATA?BYTE
      0001100FH   PUBLIC    XDATA    BYTE      ?QSPI_DMA_READ_INSTR_SADDR32_SDATA?BYTE
      00010F0EH   PUBLIC    XDATA    BYTE      ?QSPI_DMA_READ_INSTR_SADDR32_DUMMY_SDATA?BYTE
      00010F1AH   PUBLIC    XDATA    BYTE      ?QSPI_READ_INSTR_DADDR24_DALT8_DDATA?BYTE
      00010F26H   PUBLIC    XDATA    BYTE      ?QSPI_DMA_READ_INSTR_DADDR24_DALT8_DDATA?BYTE
      00010F32H   PUBLIC    XDATA    BYTE      ?QSPI_READ_INSTR_DADDR32_DALT8_DDATA?BYTE
      00010F3EH   PUBLIC    XDATA    BYTE      ?QSPI_DMA_READ_INSTR_DADDR32_DALT8_DDATA?BYTE
      00010F4AH   PUBLIC    XDATA    BYTE      ?QSPI_READ_INSTR_SADDR24_DUMMY_DDATA?BYTE
      00010F56H   PUBLIC    XDATA    BYTE      ?QSPI_DMA_READ_INSTR_SADDR24_DUMMY_DDATA?BYTE
      00010F62H   PUBLIC    XDATA    BYTE      ?QSPI_READ_INSTR_SADDR24_DUMMY_QDATA?BYTE
      00010F6EH   PUBLIC    XDATA    BYTE      ?QSPI_DMA_READ_INSTR_SADDR24_DUMMY_QDATA?BYTE
      00010F7AH   PUBLIC    XDATA    BYTE      ?QSPI_READ_INSTR_SADDR32_DUMMY_DDATA?BYTE
      00010F86H   PUBLIC    XDATA    BYTE      ?QSPI_DMA_READ_INSTR_SADDR32_DUMMY_DDATA?BYTE
      00010F92H   PUBLIC    XDATA    BYTE      ?QSPI_READ_INSTR_SADDR32_DUMMY_QDATA?BYTE
      00010F9EH   PUBLIC    XDATA    BYTE      ?QSPI_DMA_READ_INSTR_SADDR32_DUMMY_QDATA?BYTE
      00010DC4H   PUBLIC    XDATA    BYTE      ?QSPI_READ_INSTR_QADDR24_QALT8_DUMMY_QDATA?BYTE
      00010DD1H   PUBLIC    XDATA    BYTE      ?QSPI_DMA_READ_INSTR_QADDR24_QALT8_DUMMY_QDATA?BYTE
L251 LINKER/LOCATER V4.66.93.0                                                        05/06/2025  18:54:37  PAGE 127


      00010DDEH   PUBLIC    XDATA    BYTE      ?QSPI_READ_INSTR_QADDR32_QALT8_DUMMY_QDATA?BYTE
      00010DEBH   PUBLIC    XDATA    BYTE      ?QSPI_DMA_READ_INSTR_QADDR32_QALT8_DUMMY_QDATA?BYTE
      0001101AH   PUBLIC    XDATA    BYTE      ?QSPI_WRITE_INSTR_SADDR24_SDATA?BYTE
      00011025H   PUBLIC    XDATA    BYTE      ?QSPI_DMA_WRITE_INSTR_SADDR24_SDATA?BYTE
      00011030H   PUBLIC    XDATA    BYTE      ?QSPI_WRITE_INSTR_SADDR24_QDATA?BYTE
      0001103BH   PUBLIC    XDATA    BYTE      ?QSPI_DMA_WRITE_INSTR_SADDR24_QDATA?BYTE
      00011046H   PUBLIC    XDATA    BYTE      ?QSPI_WRITE_INSTR_SADDR32_SDATA?BYTE
      00011051H   PUBLIC    XDATA    BYTE      ?QSPI_DMA_WRITE_INSTR_SADDR32_SDATA?BYTE
      0001105CH   PUBLIC    XDATA    BYTE      ?QSPI_WRITE_INSTR_SADDR32_QDATA?BYTE
      00011067H   PUBLIC    XDATA    BYTE      ?QSPI_DMA_WRITE_INSTR_SADDR32_QDATA?BYTE
      00010FAAH   PUBLIC    XDATA    BYTE      ?QSPI_READ_QINSTR_QADDR24_DUMMY_QDATA?BYTE
      00010FB6H   PUBLIC    XDATA    BYTE      ?QSPI_DMA_READ_QINSTR_QADDR24_DUMMY_QDATA?BYTE
      00010DF8H   PUBLIC    XDATA    BYTE      ?QSPI_READ_QINSTR_QADDR24_QALT8_DUMMY_QDATA?BYTE
      00010E05H   PUBLIC    XDATA    BYTE      ?QSPI_DMA_READ_QINSTR_QADDR24_QALT8_DUMMY_QDATA?BYTE
      00011072H   PUBLIC    XDATA    BYTE      ?QSPI_READ_QINSTR_QADDR24_QDATA?BYTE
      000000D0H   SFRSYM    DATA     BYTE      PSW
      0000009DH   SFRSYM    DATA     BYTE      IRCBAND
      00000097H   SFRSYM    DATA     BYTE      AUXR2
      000000EFH   SFRSYM    DATA     BYTE      AUXINTIF
      000000FDH   SFRSYM    DATA     BYTE      S4CON
      000000ACH   SFRSYM    DATA     BYTE      S3CON
      0000009AH   SFRSYM    DATA     BYTE      S2CON
      000000B7H   SFRSYM    DATA     BYTE      IPH
      000000CDH   SFRSYM    DATA     BYTE      SPSTAT
      00000090H.7 SFRSYM    DATA     BIT       SCK
      000000DDH   SFRSYM    DATA     BYTE      T4T3M
      000000C1H   SFRSYM    DATA     BYTE      WDT_CONTR
      00000090H.3 SFRSYM    DATA     BIT       WP_IO2
      000000DFH   SFRSYM    DATA     BYTE      IP3
      000000F4H   SFRSYM    DATA     BYTE      USBCON
      000000B5H   SFRSYM    DATA     BYTE      IP2
      000000FFH   SFRSYM    DATA     BYTE      RSTCFG
      000000E0H   SFRSYM    DATA     BYTE      ACC
      000000C7H   SFRSYM    DATA     BYTE      IAP_CONTR
      0000008EH   SFRSYM    DATA     BYTE      AUXR
      000000AFH   SFRSYM    DATA     BYTE      IE2
      00000088H   SFRSYM    DATA     BYTE      TCON
      00000089H   SFRSYM    DATA     BYTE      TMOD
      00000098H   SFRSYM    DATA     BYTE      SCON
      00000087H   SFRSYM    DATA     BYTE      PCON
      000000BCH   SFRSYM    DATA     BYTE      ADC_CONTR
      000000D1H   SFRSYM    DATA     BYTE      PSW1
      000000E7H   SFRSYM    DATA     BYTE      CMPCR2
      000000E6H   SFRSYM    DATA     BYTE      CMPCR1
      000000DEH   SFRSYM    DATA     BYTE      ADCCFG
      000000B8H   SFRSYM    DATA     BYTE      IP
      0000008FH   SFRSYM    DATA     BYTE      INTCLKO
      00000090H.4 SFRSYM    DATA     BIT       CS
      000000EEH   SFRSYM    DATA     BYTE      IP3H
      000000B6H   SFRSYM    DATA     BYTE      IP2H
      00000090H.6 SFRSYM    DATA     BIT       SDO_IO1
      000000BFH   SFRSYM    DATA     BYTE      P_SW4
      000000A8H   SFRSYM    DATA     BYTE      IE
      000000BBH   SFRSYM    DATA     BYTE      P_SW3
      000000BAH   SFRSYM    DATA     BYTE      P_SW2
      000000A2H   SFRSYM    DATA     BYTE      P_SW1
      00000090H.5 SFRSYM    DATA     BIT       SDI_IO0
      000000CEH   SFRSYM    DATA     BYTE      SPCTL
      000000F8H   SFRSYM    DATA     BYTE      P7
      000000E8H   SFRSYM    DATA     BYTE      P6
      000000C8H   SFRSYM    DATA     BYTE      P5
      00000090H.2 SFRSYM    DATA     BIT       HLD_IO3
      000000C0H   SFRSYM    DATA     BYTE      P4
      000000ABH   SFRSYM    DATA     BYTE      WKTCH
      000000B0H   SFRSYM    DATA     BYTE      P3
L251 LINKER/LOCATER V4.66.93.0                                                        05/06/2025  18:54:37  PAGE 128


      000000A0H   SFRSYM    DATA     BYTE      P2
      00000090H   SFRSYM    DATA     BYTE      P1
      00000080H   SFRSYM    DATA     BYTE      P0
      00000091H   SFRSYM    DATA     BYTE      P1M1
      00000092H   SFRSYM    DATA     BYTE      P1M0

      00FFCB6CH   BLOCK     CODE     ---       LVL=0
      00FFCB6CH   LINE      CODE     ---       #24
      00FFCB6CH   LINE      CODE     ---       #38
      00FFCB6FH   LINE      CODE     ---       #39
      00FFCB72H   LINE      CODE     ---       #40
      00FFCB82H   LINE      CODE     ---       #41
      00FFCB92H   LINE      CODE     ---       #42
      00FFCBA2H   LINE      CODE     ---       #43
      00FFCBA5H   LINE      CODE     ---       #46
      00FFCBA7H   LINE      CODE     ---       #47
      00FFCBA9H   LINE      CODE     ---       #48
      00FFCBABH   LINE      CODE     ---       #49
      00FFCBADH   LINE      CODE     ---       #50
      00FFCBAFH   LINE      CODE     ---       #51
      00FFCBB1H   LINE      CODE     ---       #53
      00FFCBBFH   LINE      CODE     ---       #55
      00FFCBCBH   LINE      CODE     ---       #56
      00FFCBD7H   LINE      CODE     ---       #57
      00FFCBE4H   LINE      CODE     ---       #58
      00FFCBF0H   LINE      CODE     ---       #59
      00FFCBFDH   LINE      CODE     ---       #60
      00FFCC17H   LINE      CODE     ---       #61
      00FFCC27H   LINE      CODE     ---       #62
      00FFCC34H   LINE      CODE     ---       #63
      00FFCC44H   LINE      CODE     ---       #65
      00FFCC54H   LINE      CODE     ---       #66
      ---         BLOCKEND  ---      ---       LVL=0

      00FFD17CH   BLOCK     CODE     ---       LVL=0
      00011517H   SYMBOL    XDATA    BYTE      cmd
      00FFD17CH   LINE      CODE     ---       #68
      00FFD180H   LINE      CODE     ---       #70
      00FFD18EH   LINE      CODE     ---       #72
      00FFD19EH   LINE      CODE     ---       #73
      00FFD1B6H   LINE      CODE     ---       #74
      00FFD1D0H   LINE      CODE     ---       #75
      00FFD1E0H   LINE      CODE     ---       #76
      00FFD1F0H   LINE      CODE     ---       #77
      00FFD200H   LINE      CODE     ---       #78
      00FFD20FH   LINE      CODE     ---       #80
      00FFD21DH   LINE      CODE     ---       #81
      00FFD22AH   LINE      CODE     ---       #82
      ---         BLOCKEND  ---      ---       LVL=0

      00FFB845H   BLOCK     CODE     ---       LVL=0
      00011347H   SYMBOL    XDATA    BYTE      cmd
      00011348H   SYMBOL    XDATA    ---       pdat
      0001134CH   SYMBOL    XDATA    WORD      datalen
      00FFB845H   LINE      CODE     ---       #84
      00FFB859H   LINE      CODE     ---       #86
      00FFB867H   LINE      CODE     ---       #88
      00FFB881H   LINE      CODE     ---       #89
      00FFB8ABH   LINE      CODE     ---       #90
      00FFB8C3H   LINE      CODE     ---       #91
      00FFB8DDH   LINE      CODE     ---       #92
      00FFB8EDH   LINE      CODE     ---       #93
      00FFB8FDH   LINE      CODE     ---       #94
      00FFB917H   LINE      CODE     ---       #95
      00FFB926H   LINE      CODE     ---       #97
L251 LINKER/LOCATER V4.66.93.0                                                        05/06/2025  18:54:37  PAGE 129


      00FFB934H   LINE      CODE     ---       #98
      00FFB941H   LINE      CODE     ---       #100
      00FFB943H   LINE      CODE     ---       #102
      00FFB95EH   LINE      CODE     ---       #103
      00FFB971H   LINE      CODE     ---       #104
      00FFB97CH   LINE      CODE     ---       #105
      00FFB986H   LINE      CODE     ---       #107
      00FFB988H   LINE      CODE     ---       #108
      00FFB9A4H   LINE      CODE     ---       #109
      ---         BLOCKEND  ---      ---       LVL=0

      00FFC231H   BLOCK     CODE     ---       LVL=0
      000114FCH   SYMBOL    XDATA    BYTE      cmd
      000114FDH   SYMBOL    XDATA    BYTE      addr
      00FFC231H   LINE      CODE     ---       #111
      00FFC23BH   LINE      CODE     ---       #113
      00FFC249H   LINE      CODE     ---       #115
      00FFC259H   LINE      CODE     ---       #116
      00FFC271H   LINE      CODE     ---       #117
      00FFC289H   LINE      CODE     ---       #118
      00FFC2A3H   LINE      CODE     ---       #119
      00FFC2BDH   LINE      CODE     ---       #120
      00FFC2CDH   LINE      CODE     ---       #121
      00FFC2DDH   LINE      CODE     ---       #122
      00FFC2ECH   LINE      CODE     ---       #123
      00FFC33AH   LINE      CODE     ---       #125
      00FFC348H   LINE      CODE     ---       #126
      00FFC355H   LINE      CODE     ---       #127
      ---         BLOCKEND  ---      ---       LVL=0

      00FFC108H   BLOCK     CODE     ---       LVL=0
      000114E9H   SYMBOL    XDATA    BYTE      cmd
      000114EAH   SYMBOL    XDATA    WORD      addr
      00FFC108H   LINE      CODE     ---       #129
      00FFC112H   LINE      CODE     ---       #131
      00FFC120H   LINE      CODE     ---       #133
      00FFC130H   LINE      CODE     ---       #134
      00FFC14AH   LINE      CODE     ---       #135
      00FFC162H   LINE      CODE     ---       #136
      00FFC17CH   LINE      CODE     ---       #137
      00FFC196H   LINE      CODE     ---       #138
      00FFC1A6H   LINE      CODE     ---       #139
      00FFC1B6H   LINE      CODE     ---       #140
      00FFC1C5H   LINE      CODE     ---       #141
      00FFC215H   LINE      CODE     ---       #143
      00FFC223H   LINE      CODE     ---       #144
      00FFC230H   LINE      CODE     ---       #145
      ---         BLOCKEND  ---      ---       LVL=0

      00FFBEA1H   BLOCK     CODE     ---       LVL=0
      000113F0H   SYMBOL    XDATA    BYTE      cmd
      000113F1H   SYMBOL    XDATA    DWORD     addr
      00FFBEA1H   LINE      CODE     ---       #147
      00FFBEAFH   LINE      CODE     ---       #149
      00FFBEBDH   LINE      CODE     ---       #151
      00FFBECDH   LINE      CODE     ---       #152
      00FFBEE7H   LINE      CODE     ---       #153
      00FFBEFFH   LINE      CODE     ---       #154
      00FFBF19H   LINE      CODE     ---       #155
      00FFBF33H   LINE      CODE     ---       #156
      00FFBF43H   LINE      CODE     ---       #157
      00FFBF53H   LINE      CODE     ---       #158
      00FFBF62H   LINE      CODE     ---       #159
      00FFBFBCH   LINE      CODE     ---       #161
      00FFBFCAH   LINE      CODE     ---       #162
L251 LINKER/LOCATER V4.66.93.0                                                        05/06/2025  18:54:37  PAGE 130


      00FFBFD7H   LINE      CODE     ---       #163
      ---         BLOCKEND  ---      ---       LVL=0
      000113F5H   SYMBOL    XDATA    BYTE      cmd
      000113F6H   SYMBOL    XDATA    DWORD     addr
      000113FAH   SYMBOL    XDATA    BYTE      cmd
      000113FBH   SYMBOL    XDATA    DWORD     addr
      00010FEEH   SYMBOL    XDATA    BYTE      cmd
      00010FEFH   SYMBOL    XDATA    DWORD     addr
      00010FF3H   SYMBOL    XDATA    ---       pdat
      00010FF7H   SYMBOL    XDATA    WORD      datalen
      00010EEAH   SYMBOL    XDATA    BYTE      cmd
      00010EEBH   SYMBOL    XDATA    DWORD     addr
      00010EEFH   SYMBOL    XDATA    BYTE      dcyc
      00010EF0H   SYMBOL    XDATA    ---       pdat
      00010EF4H   SYMBOL    XDATA    WORD      datalen
      00010FF9H   SYMBOL    XDATA    BYTE      cmd
      00010FFAH   SYMBOL    XDATA    DWORD     addr
      00010FFEH   SYMBOL    XDATA    ---       pdat
      00011002H   SYMBOL    XDATA    WORD      datalen
      00010EF6H   SYMBOL    XDATA    BYTE      cmd
      00010EF7H   SYMBOL    XDATA    DWORD     addr
      00010EFBH   SYMBOL    XDATA    BYTE      dcyc
      00010EFCH   SYMBOL    XDATA    ---       pdat
      00010F00H   SYMBOL    XDATA    WORD      datalen
      00011004H   SYMBOL    XDATA    BYTE      cmd
      00011005H   SYMBOL    XDATA    DWORD     addr
      00011009H   SYMBOL    XDATA    ---       pdat
      0001100DH   SYMBOL    XDATA    WORD      datalen
      00010F02H   SYMBOL    XDATA    BYTE      cmd
      00010F03H   SYMBOL    XDATA    DWORD     addr
      00010F07H   SYMBOL    XDATA    BYTE      dcyc
      00010F08H   SYMBOL    XDATA    ---       pdat
      00010F0CH   SYMBOL    XDATA    WORD      datalen
      0001100FH   SYMBOL    XDATA    BYTE      cmd
      00011010H   SYMBOL    XDATA    DWORD     addr
      00011014H   SYMBOL    XDATA    ---       pdat
      00011018H   SYMBOL    XDATA    WORD      datalen
      00010F0EH   SYMBOL    XDATA    BYTE      cmd
      00010F0FH   SYMBOL    XDATA    DWORD     addr
      00010F13H   SYMBOL    XDATA    BYTE      dcyc
      00010F14H   SYMBOL    XDATA    ---       pdat
      00010F18H   SYMBOL    XDATA    WORD      datalen
      00010F1AH   SYMBOL    XDATA    BYTE      cmd
      00010F1BH   SYMBOL    XDATA    DWORD     addr
      00010F1FH   SYMBOL    XDATA    BYTE      alt
      00010F20H   SYMBOL    XDATA    ---       pdat
      00010F24H   SYMBOL    XDATA    WORD      datalen
      00010F26H   SYMBOL    XDATA    BYTE      cmd
      00010F27H   SYMBOL    XDATA    DWORD     addr
      00010F2BH   SYMBOL    XDATA    BYTE      alt
      00010F2CH   SYMBOL    XDATA    ---       pdat
      00010F30H   SYMBOL    XDATA    WORD      datalen
      00010F32H   SYMBOL    XDATA    BYTE      cmd
      00010F33H   SYMBOL    XDATA    DWORD     addr
      00010F37H   SYMBOL    XDATA    BYTE      alt
      00010F38H   SYMBOL    XDATA    ---       pdat
      00010F3CH   SYMBOL    XDATA    WORD      datalen
      00010F3EH   SYMBOL    XDATA    BYTE      cmd
      00010F3FH   SYMBOL    XDATA    DWORD     addr
      00010F43H   SYMBOL    XDATA    BYTE      alt
      00010F44H   SYMBOL    XDATA    ---       pdat
      00010F48H   SYMBOL    XDATA    WORD      datalen
      00010F4AH   SYMBOL    XDATA    BYTE      cmd
      00010F4BH   SYMBOL    XDATA    DWORD     addr
      00010F4FH   SYMBOL    XDATA    BYTE      dcyc
L251 LINKER/LOCATER V4.66.93.0                                                        05/06/2025  18:54:37  PAGE 131


      00010F50H   SYMBOL    XDATA    ---       pdat
      00010F54H   SYMBOL    XDATA    WORD      datalen
      00010F56H   SYMBOL    XDATA    BYTE      cmd
      00010F57H   SYMBOL    XDATA    DWORD     addr
      00010F5BH   SYMBOL    XDATA    BYTE      dcyc
      00010F5CH   SYMBOL    XDATA    ---       pdat
      00010F60H   SYMBOL    XDATA    WORD      datalen

      00FFA047H   BLOCK     CODE     ---       LVL=0
      00010F62H   SYMBOL    XDATA    BYTE      cmd
      00010F63H   SYMBOL    XDATA    DWORD     addr
      00010F67H   SYMBOL    XDATA    BYTE      dcyc
      00010F68H   SYMBOL    XDATA    ---       pdat
      00010F6CH   SYMBOL    XDATA    WORD      datalen
      00FFA047H   LINE      CODE     ---       #474
      00FFA061H   LINE      CODE     ---       #476
      00FFA06FH   LINE      CODE     ---       #478
      00FFA089H   LINE      CODE     ---       #479
      00FFA0B3H   LINE      CODE     ---       #480
      00FFA0CDH   LINE      CODE     ---       #481
      00FFA0F5H   LINE      CODE     ---       #482
      00FFA10FH   LINE      CODE     ---       #483
      00FFA129H   LINE      CODE     ---       #484
      00FFA139H   LINE      CODE     ---       #485
      00FFA149H   LINE      CODE     ---       #486
      00FFA158H   LINE      CODE     ---       #487
      00FFA1B2H   LINE      CODE     ---       #489
      00FFA1C0H   LINE      CODE     ---       #490
      00FFA1CDH   LINE      CODE     ---       #492
      00FFA1CFH   LINE      CODE     ---       #494
      00FFA1EAH   LINE      CODE     ---       #495
      00FFA1FDH   LINE      CODE     ---       #496
      00FFA208H   LINE      CODE     ---       #497
      00FFA212H   LINE      CODE     ---       #499
      00FFA214H   LINE      CODE     ---       #500
      00FFA230H   LINE      CODE     ---       #501
      ---         BLOCKEND  ---      ---       LVL=0
      00010F6EH   SYMBOL    XDATA    BYTE      cmd
      00010F6FH   SYMBOL    XDATA    DWORD     addr
      00010F73H   SYMBOL    XDATA    BYTE      dcyc
      00010F74H   SYMBOL    XDATA    ---       pdat
      00010F78H   SYMBOL    XDATA    WORD      datalen
      00010F7AH   SYMBOL    XDATA    BYTE      cmd
      00010F7BH   SYMBOL    XDATA    DWORD     addr
      00010F7FH   SYMBOL    XDATA    BYTE      dcyc
      00010F80H   SYMBOL    XDATA    ---       pdat
      00010F84H   SYMBOL    XDATA    WORD      datalen
      00010F86H   SYMBOL    XDATA    BYTE      cmd
      00010F87H   SYMBOL    XDATA    DWORD     addr
      00010F8BH   SYMBOL    XDATA    BYTE      dcyc
      00010F8CH   SYMBOL    XDATA    ---       pdat
      00010F90H   SYMBOL    XDATA    WORD      datalen
      00010F92H   SYMBOL    XDATA    BYTE      cmd
      00010F93H   SYMBOL    XDATA    DWORD     addr
      00010F97H   SYMBOL    XDATA    BYTE      dcyc
      00010F98H   SYMBOL    XDATA    ---       pdat
      00010F9CH   SYMBOL    XDATA    WORD      datalen
      00010F9EH   SYMBOL    XDATA    BYTE      cmd
      00010F9FH   SYMBOL    XDATA    DWORD     addr
      00010FA3H   SYMBOL    XDATA    BYTE      dcyc
      00010FA4H   SYMBOL    XDATA    ---       pdat
      00010FA8H   SYMBOL    XDATA    WORD      datalen
      00010DC4H   SYMBOL    XDATA    BYTE      cmd
      00010DC5H   SYMBOL    XDATA    DWORD     addr
      00010DC9H   SYMBOL    XDATA    BYTE      alt
L251 LINKER/LOCATER V4.66.93.0                                                        05/06/2025  18:54:37  PAGE 132


      00010DCAH   SYMBOL    XDATA    BYTE      dcyc
      00010DCBH   SYMBOL    XDATA    ---       pdat
      00010DCFH   SYMBOL    XDATA    WORD      datalen
      00010DD1H   SYMBOL    XDATA    BYTE      cmd
      00010DD2H   SYMBOL    XDATA    DWORD     addr
      00010DD6H   SYMBOL    XDATA    BYTE      alt
      00010DD7H   SYMBOL    XDATA    BYTE      dcyc
      00010DD8H   SYMBOL    XDATA    ---       pdat
      00010DDCH   SYMBOL    XDATA    WORD      datalen
      00010DDEH   SYMBOL    XDATA    BYTE      cmd
      00010DDFH   SYMBOL    XDATA    DWORD     addr
      00010DE3H   SYMBOL    XDATA    BYTE      alt
      00010DE4H   SYMBOL    XDATA    BYTE      dcyc
      00010DE5H   SYMBOL    XDATA    ---       pdat
      00010DE9H   SYMBOL    XDATA    WORD      datalen
      00010DEBH   SYMBOL    XDATA    BYTE      cmd
      00010DECH   SYMBOL    XDATA    DWORD     addr
      00010DF0H   SYMBOL    XDATA    BYTE      alt
      00010DF1H   SYMBOL    XDATA    BYTE      dcyc
      00010DF2H   SYMBOL    XDATA    ---       pdat
      00010DF6H   SYMBOL    XDATA    WORD      datalen
      0001101AH   SYMBOL    XDATA    BYTE      cmd
      0001101BH   SYMBOL    XDATA    DWORD     addr
      0001101FH   SYMBOL    XDATA    ---       pdat
      00011023H   SYMBOL    XDATA    WORD      datalen
      00011025H   SYMBOL    XDATA    BYTE      cmd
      00011026H   SYMBOL    XDATA    DWORD     addr
      0001102AH   SYMBOL    XDATA    ---       pdat
      0001102EH   SYMBOL    XDATA    WORD      datalen

      00FFA5BBH   BLOCK     CODE     ---       LVL=0
      00011030H   SYMBOL    XDATA    BYTE      cmd
      00011031H   SYMBOL    XDATA    DWORD     addr
      00011035H   SYMBOL    XDATA    ---       pdat
      00011039H   SYMBOL    XDATA    WORD      datalen
      00FFA5BBH   LINE      CODE     ---       #772
      00FFA5D3H   LINE      CODE     ---       #774
      00FFA5E1H   LINE      CODE     ---       #776
      00FFA5F1H   LINE      CODE     ---       #777
      00FFA61BH   LINE      CODE     ---       #778
      00FFA635H   LINE      CODE     ---       #779
      00FFA64DH   LINE      CODE     ---       #780
      00FFA667H   LINE      CODE     ---       #781
      00FFA681H   LINE      CODE     ---       #782
      00FFA691H   LINE      CODE     ---       #783
      00FFA6A1H   LINE      CODE     ---       #784
      00FFA6B0H   LINE      CODE     ---       #785
      00FFA70AH   LINE      CODE     ---       #787
      00FFA70CH   LINE      CODE     ---       #789
      00FFA724H   LINE      CODE     ---       #790
      00FFA737H   LINE      CODE     ---       #791
      00FFA742H   LINE      CODE     ---       #792
      00FFA74CH   LINE      CODE     ---       #794
      00FFA75AH   LINE      CODE     ---       #795
      00FFA767H   LINE      CODE     ---       #796
      ---         BLOCKEND  ---      ---       LVL=0
      0001103BH   SYMBOL    XDATA    BYTE      cmd
      0001103CH   SYMBOL    XDATA    DWORD     addr
      00011040H   SYMBOL    XDATA    ---       pdat
      00011044H   SYMBOL    XDATA    WORD      datalen
      00011046H   SYMBOL    XDATA    BYTE      cmd
      00011047H   SYMBOL    XDATA    DWORD     addr
      0001104BH   SYMBOL    XDATA    ---       pdat
      0001104FH   SYMBOL    XDATA    WORD      datalen
      00011051H   SYMBOL    XDATA    BYTE      cmd
L251 LINKER/LOCATER V4.66.93.0                                                        05/06/2025  18:54:37  PAGE 133


      00011052H   SYMBOL    XDATA    DWORD     addr
      00011056H   SYMBOL    XDATA    ---       pdat
      0001105AH   SYMBOL    XDATA    WORD      datalen
      0001105CH   SYMBOL    XDATA    BYTE      cmd
      0001105DH   SYMBOL    XDATA    DWORD     addr
      00011061H   SYMBOL    XDATA    ---       pdat
      00011065H   SYMBOL    XDATA    WORD      datalen
      00011067H   SYMBOL    XDATA    BYTE      cmd
      00011068H   SYMBOL    XDATA    DWORD     addr
      0001106CH   SYMBOL    XDATA    ---       pdat
      00011070H   SYMBOL    XDATA    WORD      datalen
      00011518H   SYMBOL    XDATA    BYTE      cmd
      0001134EH   SYMBOL    XDATA    BYTE      cmd
      0001134FH   SYMBOL    XDATA    ---       pdat
      00011353H   SYMBOL    XDATA    WORD      datalen
      000114FEH   SYMBOL    XDATA    BYTE      cmd
      000114FFH   SYMBOL    XDATA    BYTE      addr
      00010FAAH   SYMBOL    XDATA    BYTE      cmd
      00010FABH   SYMBOL    XDATA    DWORD     addr
      00010FAFH   SYMBOL    XDATA    BYTE      dcyc
      00010FB0H   SYMBOL    XDATA    ---       pdat
      00010FB4H   SYMBOL    XDATA    WORD      datalen
      00010FB6H   SYMBOL    XDATA    BYTE      cmd
      00010FB7H   SYMBOL    XDATA    DWORD     addr
      00010FBBH   SYMBOL    XDATA    BYTE      dcyc
      00010FBCH   SYMBOL    XDATA    ---       pdat
      00010FC0H   SYMBOL    XDATA    WORD      datalen
      00010DF8H   SYMBOL    XDATA    BYTE      cmd
      00010DF9H   SYMBOL    XDATA    DWORD     addr
      00010DFDH   SYMBOL    XDATA    BYTE      alt
      00010DFEH   SYMBOL    XDATA    BYTE      dcyc
      00010DFFH   SYMBOL    XDATA    ---       pdat
      00010E03H   SYMBOL    XDATA    WORD      datalen
      00010E05H   SYMBOL    XDATA    BYTE      cmd
      00010E06H   SYMBOL    XDATA    DWORD     addr
      00010E0AH   SYMBOL    XDATA    BYTE      alt
      00010E0BH   SYMBOL    XDATA    BYTE      dcyc
      00010E0CH   SYMBOL    XDATA    ---       pdat
      00010E10H   SYMBOL    XDATA    WORD      datalen
      000113FFH   SYMBOL    XDATA    BYTE      cmd
      00011400H   SYMBOL    XDATA    DWORD     addr
      00011072H   SYMBOL    XDATA    BYTE      cmd
      00011073H   SYMBOL    XDATA    DWORD     addr
      00011077H   SYMBOL    XDATA    ---       pdat
      0001107BH   SYMBOL    XDATA    WORD      datalen
      00011404H   SYMBOL    XDATA    BYTE      cmd
      00011405H   SYMBOL    XDATA    BYTE      mask
      00011406H   SYMBOL    XDATA    BYTE      match
      00011407H   SYMBOL    XDATA    WORD      clks
      00011409H   SYMBOL    XDATA    BYTE      cmd
      0001140AH   SYMBOL    XDATA    BYTE      mask
      0001140BH   SYMBOL    XDATA    BYTE      match
      0001140CH   SYMBOL    XDATA    WORD      clks
      000113C1H   SYMBOL    XDATA    ---       pdat
      000113C5H   SYMBOL    XDATA    WORD      datalen
      000113C7H   SYMBOL    XDATA    ---       pdat
      000113CBH   SYMBOL    XDATA    WORD      datalen

      ---         MODULE    ---      ---       w25qxx
      00FFE949H   PUBLIC    CODE     ---       W25Q_ReadSR1_05
      00FF000EH   PUBLIC    CODE     ---       W25Q_WriteEnableVSR_50
      00FFE95FH   PUBLIC    CODE     ---       W25Q_ReadSR2_35
      00FF0014H   PUBLIC    CODE     ---       W25Q_WriteEnable_06
      00FFC794H   PUBLIC    CODE     ---       W25Q_PageProgram_32
      00FFE932H   PUBLIC    CODE     ---       W25Q_WriteSR2_31
L251 LINKER/LOCATER V4.66.93.0                                                        05/06/2025  18:54:37  PAGE 134


      00FFE847H   PUBLIC    CODE     ---       W25Q_Erase4K_20
      00FF0003H   PUBLIC    CODE     ---       W25Q_WaitBusy
      00FFE6C2H   PUBLIC    CODE     ---       W25Q_Enable_QE
      00FFE81FH   PUBLIC    CODE     ---       W25Q_ReadJEDECID_9F
      00FFE987H   PUBLIC    CODE     ---       W25Q_WriteSR12_01
      00FFCF63H   PUBLIC    CODE     ---       W25Q_FastRead_6B
      0001107DH   PUBLIC    XDATA    BYTE      ?W25Q_ReadData_03?BYTE
      000111B6H   PUBLIC    XDATA    BYTE      ?W25Q_DMA_ReadData_03?BYTE
      00011088H   PUBLIC    XDATA    BYTE      ?W25Q_ReadData_Addr32_13?BYTE
      000111C0H   PUBLIC    XDATA    BYTE      ?W25Q_DMA_ReadData_Addr32_13?BYTE
      00011093H   PUBLIC    XDATA    BYTE      ?W25Q_FastRead_0B?BYTE
      000111CAH   PUBLIC    XDATA    BYTE      ?W25Q_DMA_FastRead_0B?BYTE
      0001109EH   PUBLIC    XDATA    BYTE      ?W25Q_QPI_FastRead_0B?BYTE
      000111D4H   PUBLIC    XDATA    BYTE      ?W25Q_QPI_DMA_FastRead_0B?BYTE
      000110A9H   PUBLIC    XDATA    BYTE      ?W25Q_FastRead_Addr32_0C?BYTE
      000111DEH   PUBLIC    XDATA    BYTE      ?W25Q_DMA_FastRead_Addr32_0C?BYTE
      000110B4H   PUBLIC    XDATA    BYTE      ?W25Q_FastRead_3B?BYTE
      000111E8H   PUBLIC    XDATA    BYTE      ?W25Q_DMA_FastRead_3B?BYTE
      000110BFH   PUBLIC    XDATA    BYTE      ?W25Q_FastRead_Addr32_3C?BYTE
      000111F2H   PUBLIC    XDATA    BYTE      ?W25Q_DMA_FastRead_Addr32_3C?BYTE
      000110CAH   PUBLIC    XDATA    BYTE      ?W25Q_FastRead_6B?BYTE
      000111FCH   PUBLIC    XDATA    BYTE      ?W25Q_DMA_FastRead_6B?BYTE
      000110D5H   PUBLIC    XDATA    BYTE      ?W25Q_FastRead_Addr32_6C?BYTE
      00011206H   PUBLIC    XDATA    BYTE      ?W25Q_DMA_FastRead_Addr32_6C?BYTE
      000110E0H   PUBLIC    XDATA    BYTE      ?W25Q_FastRead_BB?BYTE
      00011210H   PUBLIC    XDATA    BYTE      ?W25Q_DMA_FastRead_BB?BYTE
      000110EBH   PUBLIC    XDATA    BYTE      ?W25Q_FastRead_Addr32_BC?BYTE
      0001121AH   PUBLIC    XDATA    BYTE      ?W25Q_DMA_FastRead_Addr32_BC?BYTE
      000110F6H   PUBLIC    XDATA    BYTE      ?W25Q_FastRead_EB?BYTE
      00011224H   PUBLIC    XDATA    BYTE      ?W25Q_DMA_FastRead_EB?BYTE
      00011101H   PUBLIC    XDATA    BYTE      ?W25Q_QPI_FastRead_EB?BYTE
      0001122EH   PUBLIC    XDATA    BYTE      ?W25Q_QPI_DMA_FastRead_EB?BYTE
      0001110CH   PUBLIC    XDATA    BYTE      ?W25Q_FastRead_Addr32_EC?BYTE
      00011238H   PUBLIC    XDATA    BYTE      ?W25Q_DMA_FastRead_Addr32_EC?BYTE
      00011117H   PUBLIC    XDATA    BYTE      ?W25Q_WordRead_E7?BYTE
      00011242H   PUBLIC    XDATA    BYTE      ?W25Q_DMA_WordRead_E7?BYTE
      00011122H   PUBLIC    XDATA    BYTE      ?W25Q_OctalWordRead_E3?BYTE
      0001124CH   PUBLIC    XDATA    BYTE      ?W25Q_DMA_OctalWordRead_E3?BYTE
      0001112DH   PUBLIC    XDATA    BYTE      ?W25Q_PageProgram_02?BYTE
      00011256H   PUBLIC    XDATA    BYTE      ?W25Q_DMA_PageProgram_02?BYTE
      00011138H   PUBLIC    XDATA    BYTE      ?W25Q_PageProgram_Addr32_12?BYTE
      00011260H   PUBLIC    XDATA    BYTE      ?W25Q_DMA_PageProgram_Addr32_12?BYTE
      00011143H   PUBLIC    XDATA    BYTE      ?W25Q_PageProgram_32?BYTE
      0001126AH   PUBLIC    XDATA    BYTE      ?W25Q_DMA_PageProgram_32?BYTE
      0001114EH   PUBLIC    XDATA    BYTE      ?W25Q_PageProgram_Addr32_34?BYTE
      00011274H   PUBLIC    XDATA    BYTE      ?W25Q_DMA_PageProgram_Addr32_34?BYTE
      00000020H.3 PUBLIC    BIT      BIT       ?W25Q_Erase4K_20?BIT
      00000020H.4 PUBLIC    BIT      BIT       ?W25Q_QPI_Erase4K_20?BIT
      00000020H.5 PUBLIC    BIT      BIT       ?W25Q_Erase4K_Addr32_21?BIT
      00000020H.6 PUBLIC    BIT      BIT       ?W25Q_Erase32K_52?BIT
      00000020H.7 PUBLIC    BIT      BIT       ?W25Q_QPI_Erase32K_52?BIT
      00000021H.0 PUBLIC    BIT      BIT       ?W25Q_Erase64K_D8?BIT
      00000021H.1 PUBLIC    BIT      BIT       ?W25Q_QPI_Erase64K_D8?BIT
      00000021H.2 PUBLIC    BIT      BIT       ?W25Q_Erase64K_Addr32_DC?BIT
      00000021H.3 PUBLIC    BIT      BIT       ?W25Q_EraseChip_C7?BIT
      00000021H.4 PUBLIC    BIT      BIT       ?W25Q_QPI_EraseChip_C7?BIT
      00011159H   PUBLIC    XDATA    BYTE      ?W25Q_ProgramSecurityReg_42?BYTE
      00011164H   PUBLIC    XDATA    BYTE      ?W25Q_ReadSecurityReg_48?BYTE
      0001116FH   PUBLIC    XDATA    BYTE      ?W25Q_QPI_BurstReadWithWrap_0C?BYTE
      000000D0H   SFRSYM    DATA     BYTE      PSW
      0000009DH   SFRSYM    DATA     BYTE      IRCBAND
      00000097H   SFRSYM    DATA     BYTE      AUXR2
      000000EFH   SFRSYM    DATA     BYTE      AUXINTIF
      000000FDH   SFRSYM    DATA     BYTE      S4CON
      000000ACH   SFRSYM    DATA     BYTE      S3CON
L251 LINKER/LOCATER V4.66.93.0                                                        05/06/2025  18:54:37  PAGE 135


      0000009AH   SFRSYM    DATA     BYTE      S2CON
      000000B7H   SFRSYM    DATA     BYTE      IPH
      000000CDH   SFRSYM    DATA     BYTE      SPSTAT
      000000DDH   SFRSYM    DATA     BYTE      T4T3M
      000000C1H   SFRSYM    DATA     BYTE      WDT_CONTR
      000000DFH   SFRSYM    DATA     BYTE      IP3
      000000F4H   SFRSYM    DATA     BYTE      USBCON
      000000B5H   SFRSYM    DATA     BYTE      IP2
      000000FFH   SFRSYM    DATA     BYTE      RSTCFG
      000000C7H   SFRSYM    DATA     BYTE      IAP_CONTR
      0000008EH   SFRSYM    DATA     BYTE      AUXR
      000000AFH   SFRSYM    DATA     BYTE      IE2
      00000088H   SFRSYM    DATA     BYTE      TCON
      00000089H   SFRSYM    DATA     BYTE      TMOD
      00000098H   SFRSYM    DATA     BYTE      SCON
      00000087H   SFRSYM    DATA     BYTE      PCON
      000000BCH   SFRSYM    DATA     BYTE      ADC_CONTR
      000000D1H   SFRSYM    DATA     BYTE      PSW1
      000000E7H   SFRSYM    DATA     BYTE      CMPCR2
      000000E6H   SFRSYM    DATA     BYTE      CMPCR1
      000000DEH   SFRSYM    DATA     BYTE      ADCCFG
      000000B8H   SFRSYM    DATA     BYTE      IP
      0000008FH   SFRSYM    DATA     BYTE      INTCLKO
      000000EEH   SFRSYM    DATA     BYTE      IP3H
      000000B6H   SFRSYM    DATA     BYTE      IP2H
      000000BFH   SFRSYM    DATA     BYTE      P_SW4
      000000A8H   SFRSYM    DATA     BYTE      IE
      000000BBH   SFRSYM    DATA     BYTE      P_SW3
      000000BAH   SFRSYM    DATA     BYTE      P_SW2
      000000A2H   SFRSYM    DATA     BYTE      P_SW1
      000000CEH   SFRSYM    DATA     BYTE      SPCTL
      000000F8H   SFRSYM    DATA     BYTE      P7
      000000E8H   SFRSYM    DATA     BYTE      P6
      000000C8H   SFRSYM    DATA     BYTE      P5
      000000C0H   SFRSYM    DATA     BYTE      P4
      000000ABH   SFRSYM    DATA     BYTE      WKTCH
      000000B0H   SFRSYM    DATA     BYTE      P3
      000000A0H   SFRSYM    DATA     BYTE      P2
      00000090H   SFRSYM    DATA     BYTE      P1
      00000080H   SFRSYM    DATA     BYTE      P0

      00FF0014H   BLOCK     CODE     ---       LVL=0
      00FF0014H   LINE      CODE     ---       #7
      00FF0014H   LINE      CODE     ---       #9
      00FF0019H   LINE      CODE     ---       #10
      ---         BLOCKEND  ---      ---       LVL=0

      00FF000EH   BLOCK     CODE     ---       LVL=0
      00FF000EH   LINE      CODE     ---       #17
      00FF000EH   LINE      CODE     ---       #19
      00FF0013H   LINE      CODE     ---       #20
      ---         BLOCKEND  ---      ---       LVL=0

      00FFE949H   BLOCK     CODE     ---       LVL=0
      00011519H   SYMBOL    XDATA    BYTE      dat
      00FFE949H   LINE      CODE     ---       #37
      00FFE949H   LINE      CODE     ---       #38
      00FFE949H   LINE      CODE     ---       #41
      00FFE95AH   LINE      CODE     ---       #43
      00FFE95EH   LINE      CODE     ---       #44
      ---         BLOCKEND  ---      ---       LVL=0

      00FF0003H   BLOCK     CODE     ---       LVL=0
      00FF0003H   LINE      CODE     ---       #46
      00FF0003H   LINE      CODE     ---       #48
L251 LINKER/LOCATER V4.66.93.0                                                        05/06/2025  18:54:37  PAGE 136


      00FF0009H   LINE      CODE     ---       #50
      00FF0009H   LINE      CODE     ---       #52
      ---         BLOCKEND  ---      ---       LVL=0
      0001151AH   SYMBOL    XDATA    BYTE      dat
      00011500H   SYMBOL    XDATA    INT       n

      00FFE95FH   BLOCK     CODE     ---       LVL=0
      0001151BH   SYMBOL    XDATA    BYTE      dat
      00FFE95FH   LINE      CODE     ---       #68
      00FFE95FH   LINE      CODE     ---       #69
      00FFE95FH   LINE      CODE     ---       #72
      00FFE970H   LINE      CODE     ---       #74
      00FFE974H   LINE      CODE     ---       #75
      ---         BLOCKEND  ---      ---       LVL=0
      0001151CH   SYMBOL    XDATA    BYTE      dat
      0001151DH   SYMBOL    XDATA    BYTE      dat
      0001151EH   SYMBOL    XDATA    BYTE      dat
      0001151FH   SYMBOL    XDATA    BYTE      dat

      00FFE987H   BLOCK     CODE     ---       LVL=0
      00011502H   SYMBOL    XDATA    WORD      dat
      00FFE987H   LINE      CODE     ---       #109
      00FFE98DH   LINE      CODE     ---       #111
      00FFE998H   LINE      CODE     ---       #112
      ---         BLOCKEND  ---      ---       LVL=0
      00011520H   SYMBOL    XDATA    BYTE      dat

      00FFE932H   BLOCK     CODE     ---       LVL=0
      00011521H   SYMBOL    XDATA    BYTE      dat
      00FFE932H   LINE      CODE     ---       #119
      00FFE936H   LINE      CODE     ---       #121
      00FFE941H   LINE      CODE     ---       #122
      00FFE948H   LINE      CODE     ---       #123
      ---         BLOCKEND  ---      ---       LVL=0
      00011522H   SYMBOL    XDATA    BYTE      dat
      00011523H   SYMBOL    XDATA    BYTE      dat
      00011524H   SYMBOL    XDATA    BYTE      dat
      00011525H   SYMBOL    XDATA    BYTE      dat
      00011526H   SYMBOL    XDATA    BYTE      dat
      0001107DH   SYMBOL    XDATA    DWORD     addr
      00011081H   SYMBOL    XDATA    ---       pdat
      00011085H   SYMBOL    XDATA    WORD      datalen
      00011087H   SYMBOL    XDATA    BYTE      cnt
      000111B6H   SYMBOL    XDATA    DWORD     addr
      000111BAH   SYMBOL    XDATA    ---       pdat
      000111BEH   SYMBOL    XDATA    WORD      datalen
      00011088H   SYMBOL    XDATA    DWORD     addr
      0001108CH   SYMBOL    XDATA    ---       pdat
      00011090H   SYMBOL    XDATA    WORD      datalen
      00011092H   SYMBOL    XDATA    BYTE      cnt
      000111C0H   SYMBOL    XDATA    DWORD     addr
      000111C4H   SYMBOL    XDATA    ---       pdat
      000111C8H   SYMBOL    XDATA    WORD      datalen
      00011093H   SYMBOL    XDATA    DWORD     addr
      00011097H   SYMBOL    XDATA    ---       pdat
      0001109BH   SYMBOL    XDATA    WORD      datalen
      0001109DH   SYMBOL    XDATA    BYTE      cnt
      000111CAH   SYMBOL    XDATA    DWORD     addr
      000111CEH   SYMBOL    XDATA    ---       pdat
      000111D2H   SYMBOL    XDATA    WORD      datalen
      0001109EH   SYMBOL    XDATA    DWORD     addr
      000110A2H   SYMBOL    XDATA    ---       pdat
      000110A6H   SYMBOL    XDATA    WORD      datalen
      000110A8H   SYMBOL    XDATA    BYTE      cnt
      000111D4H   SYMBOL    XDATA    DWORD     addr
L251 LINKER/LOCATER V4.66.93.0                                                        05/06/2025  18:54:37  PAGE 137


      000111D8H   SYMBOL    XDATA    ---       pdat
      000111DCH   SYMBOL    XDATA    WORD      datalen
      000110A9H   SYMBOL    XDATA    DWORD     addr
      000110ADH   SYMBOL    XDATA    ---       pdat
      000110B1H   SYMBOL    XDATA    WORD      datalen
      000110B3H   SYMBOL    XDATA    BYTE      cnt
      000111DEH   SYMBOL    XDATA    DWORD     addr
      000111E2H   SYMBOL    XDATA    ---       pdat
      000111E6H   SYMBOL    XDATA    WORD      datalen
      000110B4H   SYMBOL    XDATA    DWORD     addr
      000110B8H   SYMBOL    XDATA    ---       pdat
      000110BCH   SYMBOL    XDATA    WORD      datalen
      000110BEH   SYMBOL    XDATA    BYTE      cnt
      000111E8H   SYMBOL    XDATA    DWORD     addr
      000111ECH   SYMBOL    XDATA    ---       pdat
      000111F0H   SYMBOL    XDATA    WORD      datalen
      000110BFH   SYMBOL    XDATA    DWORD     addr
      000110C3H   SYMBOL    XDATA    ---       pdat
      000110C7H   SYMBOL    XDATA    WORD      datalen
      000110C9H   SYMBOL    XDATA    BYTE      cnt
      000111F2H   SYMBOL    XDATA    DWORD     addr
      000111F6H   SYMBOL    XDATA    ---       pdat
      000111FAH   SYMBOL    XDATA    WORD      datalen

      00FFCF63H   BLOCK     CODE     ---       LVL=0
      000110CAH   SYMBOL    XDATA    DWORD     addr
      000110CEH   SYMBOL    XDATA    ---       pdat
      000110D2H   SYMBOL    XDATA    WORD      datalen
      00FFCF77H   BLOCK     CODE     NEAR LAB  LVL=1
      000110D4H   SYMBOL    XDATA    BYTE      cnt
      ---         BLOCKEND  ---      ---       LVL=1
      00FFCF63H   LINE      CODE     ---       #325
      00FFCF77H   LINE      CODE     ---       #326
      00FFCF77H   LINE      CODE     ---       #329
      00FFCF7AH   LINE      CODE     ---       #331
      00FFCF80H   LINE      CODE     ---       #332
      00FFCF8CH   LINE      CODE     ---       #333
      00FFCF96H   LINE      CODE     ---       #335
      00FFCFC4H   LINE      CODE     ---       #337
      00FFCFD5H   LINE      CODE     ---       #338
      00FFCFF0H   LINE      CODE     ---       #339
      00FFD009H   LINE      CODE     ---       #340
      00FFD018H   LINE      CODE     ---       #341
      ---         BLOCKEND  ---      ---       LVL=0
      000111FCH   SYMBOL    XDATA    DWORD     addr
      00011200H   SYMBOL    XDATA    ---       pdat
      00011204H   SYMBOL    XDATA    WORD      datalen
      000110D5H   SYMBOL    XDATA    DWORD     addr
      000110D9H   SYMBOL    XDATA    ---       pdat
      000110DDH   SYMBOL    XDATA    WORD      datalen
      000110DFH   SYMBOL    XDATA    BYTE      cnt
      00011206H   SYMBOL    XDATA    DWORD     addr
      0001120AH   SYMBOL    XDATA    ---       pdat
      0001120EH   SYMBOL    XDATA    WORD      datalen
      000110E0H   SYMBOL    XDATA    DWORD     addr
      000110E4H   SYMBOL    XDATA    ---       pdat
      000110E8H   SYMBOL    XDATA    WORD      datalen
      000110EAH   SYMBOL    XDATA    BYTE      cnt
      00011210H   SYMBOL    XDATA    DWORD     addr
      00011214H   SYMBOL    XDATA    ---       pdat
      00011218H   SYMBOL    XDATA    WORD      datalen
      000110EBH   SYMBOL    XDATA    DWORD     addr
      000110EFH   SYMBOL    XDATA    ---       pdat
      000110F3H   SYMBOL    XDATA    WORD      datalen
      000110F5H   SYMBOL    XDATA    BYTE      cnt
L251 LINKER/LOCATER V4.66.93.0                                                        05/06/2025  18:54:37  PAGE 138


      0001121AH   SYMBOL    XDATA    DWORD     addr
      0001121EH   SYMBOL    XDATA    ---       pdat
      00011222H   SYMBOL    XDATA    WORD      datalen
      000110F6H   SYMBOL    XDATA    DWORD     addr
      000110FAH   SYMBOL    XDATA    ---       pdat
      000110FEH   SYMBOL    XDATA    WORD      datalen
      00011100H   SYMBOL    XDATA    BYTE      cnt
      00011224H   SYMBOL    XDATA    DWORD     addr
      00011228H   SYMBOL    XDATA    ---       pdat
      0001122CH   SYMBOL    XDATA    WORD      datalen
      00011101H   SYMBOL    XDATA    DWORD     addr
      00011105H   SYMBOL    XDATA    ---       pdat
      00011109H   SYMBOL    XDATA    WORD      datalen
      0001110BH   SYMBOL    XDATA    BYTE      cnt
      0001122EH   SYMBOL    XDATA    DWORD     addr
      00011232H   SYMBOL    XDATA    ---       pdat
      00011236H   SYMBOL    XDATA    WORD      datalen
      0001110CH   SYMBOL    XDATA    DWORD     addr
      00011110H   SYMBOL    XDATA    ---       pdat
      00011114H   SYMBOL    XDATA    WORD      datalen
      00011116H   SYMBOL    XDATA    BYTE      cnt
      00011238H   SYMBOL    XDATA    DWORD     addr
      0001123CH   SYMBOL    XDATA    ---       pdat
      00011240H   SYMBOL    XDATA    WORD      datalen
      00011117H   SYMBOL    XDATA    DWORD     addr
      0001111BH   SYMBOL    XDATA    ---       pdat
      0001111FH   SYMBOL    XDATA    WORD      datalen
      00011121H   SYMBOL    XDATA    BYTE      cnt
      00011242H   SYMBOL    XDATA    DWORD     addr
      00011246H   SYMBOL    XDATA    ---       pdat
      0001124AH   SYMBOL    XDATA    WORD      datalen
      00011122H   SYMBOL    XDATA    DWORD     addr
      00011126H   SYMBOL    XDATA    ---       pdat
      0001112AH   SYMBOL    XDATA    WORD      datalen
      0001112CH   SYMBOL    XDATA    BYTE      cnt
      0001124CH   SYMBOL    XDATA    DWORD     addr
      00011250H   SYMBOL    XDATA    ---       pdat
      00011254H   SYMBOL    XDATA    WORD      datalen
      00011527H   SYMBOL    XDATA    BYTE      wrap
      0001112DH   SYMBOL    XDATA    DWORD     addr
      00011131H   SYMBOL    XDATA    ---       pdat
      00011135H   SYMBOL    XDATA    WORD      datalen
      00011137H   SYMBOL    XDATA    BYTE      cnt
      00011256H   SYMBOL    XDATA    DWORD     addr
      0001125AH   SYMBOL    XDATA    ---       pdat
      0001125EH   SYMBOL    XDATA    WORD      datalen
      00011138H   SYMBOL    XDATA    DWORD     addr
      0001113CH   SYMBOL    XDATA    ---       pdat
      00011140H   SYMBOL    XDATA    WORD      datalen
      00011142H   SYMBOL    XDATA    BYTE      cnt
      00011260H   SYMBOL    XDATA    DWORD     addr
      00011264H   SYMBOL    XDATA    ---       pdat
      00011268H   SYMBOL    XDATA    WORD      datalen

      00FFC794H   BLOCK     CODE     ---       LVL=0
      00011143H   SYMBOL    XDATA    DWORD     addr
      00011147H   SYMBOL    XDATA    ---       pdat
      0001114BH   SYMBOL    XDATA    WORD      datalen
      00FFC7A8H   BLOCK     CODE     NEAR LAB  LVL=1
      0001114DH   SYMBOL    XDATA    BYTE      cnt
      ---         BLOCKEND  ---      ---       LVL=1
      00FFC794H   LINE      CODE     ---       #609
      00FFC7A8H   LINE      CODE     ---       #610
      00FFC7A8H   LINE      CODE     ---       #613
      00FFC7ABH   LINE      CODE     ---       #615
L251 LINKER/LOCATER V4.66.93.0                                                        05/06/2025  18:54:37  PAGE 139


      00FFC7AEH   LINE      CODE     ---       #617
      00FFC7B4H   LINE      CODE     ---       #618
      00FFC7C0H   LINE      CODE     ---       #619
      00FFC7CAH   LINE      CODE     ---       #621
      00FFC7EBH   LINE      CODE     ---       #622
      00FFC804H   LINE      CODE     ---       #624
      00FFC829H   LINE      CODE     ---       #626
      00FFC83AH   LINE      CODE     ---       #627
      00FFC855H   LINE      CODE     ---       #628
      00FFC86EH   LINE      CODE     ---       #630
      00FFC87AH   LINE      CODE     ---       #632
      00FFC881H   LINE      CODE     ---       #633
      00FFC884H   LINE      CODE     ---       #634
      00FFC893H   LINE      CODE     ---       #636
      00FFC89AH   LINE      CODE     ---       #637
      ---         BLOCKEND  ---      ---       LVL=0
      0001126AH   SYMBOL    XDATA    DWORD     addr
      0001126EH   SYMBOL    XDATA    ---       pdat
      00011272H   SYMBOL    XDATA    WORD      datalen
      0001114EH   SYMBOL    XDATA    DWORD     addr
      00011152H   SYMBOL    XDATA    ---       pdat
      00011156H   SYMBOL    XDATA    WORD      datalen
      00011158H   SYMBOL    XDATA    BYTE      cnt
      00011274H   SYMBOL    XDATA    DWORD     addr
      00011278H   SYMBOL    XDATA    ---       pdat
      0001127CH   SYMBOL    XDATA    WORD      datalen

      00FFE847H   BLOCK     CODE     ---       LVL=0
      00011488H   SYMBOL    XDATA    DWORD     addr
      00000020H.3 SYMBOL    BIT      BIT       wait
      00FFE847H   LINE      CODE     ---       #682
      00FFE851H   LINE      CODE     ---       #684
      00FFE854H   LINE      CODE     ---       #685
      00FFE863H   LINE      CODE     ---       #686
      00FFE866H   LINE      CODE     ---       #687
      00FFE86DH   LINE      CODE     ---       #688
      ---         BLOCKEND  ---      ---       LVL=0
      0001148CH   SYMBOL    XDATA    DWORD     addr
      00000020H.4 SYMBOL    BIT      BIT       wait
      00011490H   SYMBOL    XDATA    DWORD     addr
      00000020H.5 SYMBOL    BIT      BIT       wait
      00011494H   SYMBOL    XDATA    DWORD     addr
      00000020H.6 SYMBOL    BIT      BIT       wait
      00011498H   SYMBOL    XDATA    DWORD     addr
      00000020H.7 SYMBOL    BIT      BIT       wait
      0001149CH   SYMBOL    XDATA    DWORD     addr
      00000021H.0 SYMBOL    BIT      BIT       wait
      000114A0H   SYMBOL    XDATA    DWORD     addr
      00000021H.1 SYMBOL    BIT      BIT       wait
      000114A4H   SYMBOL    XDATA    DWORD     addr
      00000021H.2 SYMBOL    BIT      BIT       wait
      00000021H.3 SYMBOL    BIT      BIT       wait
      00000021H.4 SYMBOL    BIT      BIT       wait
      00011528H   SYMBOL    XDATA    BYTE      dat
      00011529H   SYMBOL    XDATA    BYTE      dat
      00011504H   SYMBOL    XDATA    WORD      dat
      00011506H   SYMBOL    XDATA    WORD      dat
      00011508H   SYMBOL    XDATA    WORD      dat
      000114A8H   SYMBOL    XDATA    ---       pdat

      00FFE81FH   BLOCK     CODE     ---       LVL=0
      000114ACH   SYMBOL    XDATA    DWORD     dat
      00FFE81FH   LINE      CODE     ---       #873
      00FFE81FH   LINE      CODE     ---       #874
      00FFE81FH   LINE      CODE     ---       #877
L251 LINKER/LOCATER V4.66.93.0                                                        05/06/2025  18:54:37  PAGE 140


      00FFE82BH   LINE      CODE     ---       #878
      00FFE83CH   LINE      CODE     ---       #880
      00FFE846H   LINE      CODE     ---       #881
      ---         BLOCKEND  ---      ---       LVL=0
      000114B0H   SYMBOL    XDATA    DWORD     dat
      0001132AH   SYMBOL    XDATA    BYTE      addr
      0001132BH   SYMBOL    XDATA    ---       pdat
      0001132FH   SYMBOL    XDATA    WORD      datalen
      00011331H   SYMBOL    XDATA    BYTE      cnt
      000114B4H   SYMBOL    XDATA    DWORD     addr
      00011159H   SYMBOL    XDATA    DWORD     addr
      0001115DH   SYMBOL    XDATA    ---       pdat
      00011161H   SYMBOL    XDATA    WORD      datalen
      00011163H   SYMBOL    XDATA    BYTE      cnt
      00011164H   SYMBOL    XDATA    DWORD     addr
      00011168H   SYMBOL    XDATA    ---       pdat
      0001116CH   SYMBOL    XDATA    WORD      datalen
      0001116EH   SYMBOL    XDATA    BYTE      cnt
      0001152AH   SYMBOL    XDATA    BYTE      dat
      0001116FH   SYMBOL    XDATA    DWORD     addr
      00011173H   SYMBOL    XDATA    ---       pdat
      00011177H   SYMBOL    XDATA    WORD      datalen
      00011179H   SYMBOL    XDATA    BYTE      cnt
      000114B8H   SYMBOL    XDATA    DWORD     addr
      000114BCH   SYMBOL    XDATA    DWORD     addr
      000114C0H   SYMBOL    XDATA    DWORD     addr
      000114C4H   SYMBOL    XDATA    DWORD     addr
      0001140EH   SYMBOL    XDATA    DWORD     addr
      00011412H   SYMBOL    XDATA    BYTE      dat
      00011413H   SYMBOL    XDATA    DWORD     addr
      00011417H   SYMBOL    XDATA    BYTE      dat

      00FFE6C2H   BLOCK     CODE     ---       LVL=0
      00FFE6C2H   LINE      CODE     ---       #1063
      00FFE6C2H   LINE      CODE     ---       #1065
      00FFE6D9H   LINE      CODE     ---       #1067
      00FFE6DFH   LINE      CODE     ---       #1069
      00FFE6E2H   LINE      CODE     ---       #1070
      00FFE6EBH   LINE      CODE     ---       #1072
      00FFE6F2H   LINE      CODE     ---       #1073
      00FFE6F4H   LINE      CODE     ---       #1076
      00FFE6F9H   LINE      CODE     ---       #1077
      00FFE6F9H   LINE      CODE     ---       #1078
      00FFE6F9H   LINE      CODE     ---       #1080
      ---         BLOCKEND  ---      ---       LVL=0

      ---         MODULE    ---      ---       ?C?DPADD
      00FF2225H   PUBLIC    CODE     ---       ?C?DPADD
      00FF2221H   PUBLIC    CODE     ---       ?C?DPSUB

      ---         MODULE    ---      ---       ?C?DPMUL
      00FF2334H   PUBLIC    CODE     ---       ?C?DPMUL

      ---         MODULE    ---      ---       ?C?DPDIV
      00FF2444H   PUBLIC    CODE     ---       ?C?DPDIV

      ---         MODULE    ---      ---       ?C?DPCMP
      00FF24E5H   PUBLIC    CODE     ---       ?C?DPCMP
      00FF24E3H   PUBLIC    CODE     ---       ?C?DPCMP3

      ---         MODULE    ---      ---       ?C?DPNEG
      00FF2544H   PUBLIC    CODE     ---       ?C?DPNEG

      ---         MODULE    ---      ---       ?C?DCAST
      00FF255CH   PUBLIC    CODE     NEAR LAB  ?C?DCASTC
L251 LINKER/LOCATER V4.66.93.0                                                        05/06/2025  18:54:37  PAGE 141


      00FF2557H   PUBLIC    CODE     NEAR LAB  ?C?DCASTI
      00FF2552H   PUBLIC    CODE     NEAR LAB  ?C?DCASTL

      ---         MODULE    ---      ---       ?C?CASTD
      00FF259FH   PUBLIC    CODE     NEAR LAB  ?C?CASTD

      ---         MODULE    ---      ---       ?C?DCASTF
      00FF25FFH   PUBLIC    CODE     NEAR LAB  ?C?DCASTF

      ---         MODULE    ---      ---       ?C?FCASTD
      00FF2641H   PUBLIC    CODE     NEAR LAB  ?C?FCASTD

      ---         MODULE    ---      ---       PRINTF
      00010AC3H   PUBLIC    XDATA    ---       ?PRINTF?BYTE
      00FF2678H   PUBLIC    CODE     NEAR LAB  PRINTF

      ---         MODULE    ---      ---       SPRINTF
      00010AC3H   PUBLIC    XDATA    ---       ?SPRINTF?BYTE
      00FF26A4H   PUBLIC    CODE     NEAR LAB  SPRINTF

      ---         MODULE    ---      ---       SQRT?_
      00FF26CAH   PUBLIC    CODE     ---       SQRT?_

      ---         MODULE    ---      ---       pow
      00FFAABBH   PUBLIC    CODE     ---       pow?_

      ---         MODULE    ---      ---       SIN?_
      00FF2818H   PUBLIC    CODE     ---       COS?_
      00FF2839H   PUBLIC    CODE     ---       SIN?_
      00FF286EH   PUBLIC    CODE     ---       TAN?_

      ---         MODULE    ---      ---       ATAN?_
      00FF29B0H   PUBLIC    CODE     ---       ATAN?_

      ---         MODULE    ---      ---       ASIN?_
      00FF2ACBH   PUBLIC    CODE     ---       ASIN?_

      ---         MODULE    ---      ---       ?C?DPGETOPN
      00FF2AF5H   PUBLIC    CODE     ---       ?C?DPGETOPN2
      00FF2B40H   PUBLIC    CODE     ---       ?C?DPNANRESULT
      00FF2B4CH   PUBLIC    CODE     ---       ?C?DPOVERFLOW
      00FF2B18H   PUBLIC    CODE     ---       ?C?DPRESULT
      00FF2B31H   PUBLIC    CODE     ---       ?C?DPRESULT2
      00FF2B47H   PUBLIC    CODE     ---       ?C?DPUNDERFLOW

      ---         MODULE    ---      ---       _CHKDOUBLE_?_
      00FF2B5AH   PUBLIC    CODE     ---       _CHKDOUBLE_?_

      ---         MODULE    ---      ---       ?C?PRNFMT
      00FF2BA5H   PUBLIC    CODE     ---       ?C?PRNFMT

      ---         MODULE    ---      ---       ?C?DPSERIES
      00FF2FD3H   PUBLIC    CODE     ---       ?C?DP2SERIES
      00FF2FDEH   PUBLIC    CODE     ---       ?C?DPSERIES

      ---         MODULE    ---      ---       EXP?_
      00FF30BAH   PUBLIC    CODE     ---       EXP?_

      ---         MODULE    ---      ---       LOG?_
      00FF31A3H   PUBLIC    CODE     NEAR LAB  LOG?_

      ---         MODULE    ---      ---       ?C?DPCONVERT
      00FF32BEH   PUBLIC    CODE     ---       ?C?DPCONVERT
      00FF33E5H   PUBLIC    CODE     ---       ?C?DPROUND

L251 LINKER/LOCATER V4.66.93.0                                                        05/06/2025  18:54:37  PAGE 142


      ---         MODULE    ---      ---       ?C?DTNPWR
      00FF34C0H   PUBLIC    CODE     ---       ?C?DTNPWR

      ---         MODULE    ---      ---       ?C?FPGETOPN
      00FF3546H   PUBLIC    CODE     ---       ?C?FPGETOPN2
      00FF3583H   PUBLIC    CODE     ---       ?C?FPNANRESULT
      00FF358BH   PUBLIC    CODE     ---       ?C?FPOVERFLOW
      00FF355FH   PUBLIC    CODE     ---       ?C?FPRESULT
      00FF3575H   PUBLIC    CODE     ---       ?C?FPRESULT2
      00FF3588H   PUBLIC    CODE     ---       ?C?FPUNDERFLOW

      ---         MODULE    ---      ---       ?C?FPADD
      00FF359DH   PUBLIC    CODE     ---       ?C?FPADD
      00FF359AH   PUBLIC    CODE     ---       ?C?FPSUB

      ---         MODULE    ---      ---       ?C?FPMUL
      00FF3655H   PUBLIC    CODE     ---       ?C?FPMUL

      ---         MODULE    ---      ---       ?C?FPDIV
      00FF36F5H   PUBLIC    CODE     ---       ?C?FPDIV

      ---         MODULE    ---      ---       ?C?FPCMP
      00FF3778H   PUBLIC    CODE     ---       ?C?FPCMP
      00FF3776H   PUBLIC    CODE     ---       ?C?FPCMP3

      ---         MODULE    ---      ---       ?C?FPNEG
      00FF37BCH   PUBLIC    CODE     ---       ?C?FPNEG

      ---         MODULE    ---      ---       ?C?FCAST
      00FF37D4H   PUBLIC    CODE     NEAR LAB  ?C?FCASTC
      00FF37CFH   PUBLIC    CODE     NEAR LAB  ?C?FCASTI
      00FF37CAH   PUBLIC    CODE     NEAR LAB  ?C?FCASTL

      ---         MODULE    ---      ---       ?C?CASTF
      00FF3807H   PUBLIC    CODE     NEAR LAB  ?C?CASTF

      ---         MODULE    ---      ---       ?C?INITHDATA
      00FFE21AH   PUBLIC    CODE     ---       ?C?INITHDATA

      ---         MODULE    ---      ---       ?C?SCDIV
      00FF3844H   PUBLIC    CODE     ---       ?C?SCDIV

      ---         MODULE    ---      ---       ?C?SIDIV
      00FF3866H   PUBLIC    CODE     ---       ?C?SIDIV

      ---         MODULE    ---      ---       ?C?LIMUL
      00FF3898H   PUBLIC    CODE     ---       ?C?LIMUL

      ---         MODULE    ---      ---       ?C?ULDIV
      00FF38A3H   PUBLIC    CODE     NEAR LAB  ?C?ULDIV
      00FF38A1H   PUBLIC    CODE     NEAR LAB  ?C?ULIDIV

      ---         MODULE    ---      ---       ?C?SLDIV
      00FF38F4H   PUBLIC    CODE     NEAR LAB  ?C?SLDIV

      ---         MODULE    ---      ---       ?C?BMOVEPP
      00FF392AH   PUBLIC    CODE     ---       ?C?BMOVEPP
      00FF3928H   PUBLIC    CODE     ---       ?C?BMOVEPP8

      ---         MODULE    ---      ---       STRNCMP
      00FFE6FAH   PUBLIC    CODE     ---       strncmp?_

      ---         MODULE    ---      ---       STRNCPY
      00FFE797H   PUBLIC    CODE     ---       strncpy?_

L251 LINKER/LOCATER V4.66.93.0                                                        05/06/2025  18:54:37  PAGE 143


      ---         MODULE    ---      ---       STRLEN
      00FFE999H   PUBLIC    CODE     ---       strlen?_

      ---         MODULE    ---      ---       STRCHR
      00FFE8FBH   PUBLIC    CODE     ---       strchr?_

      ---         MODULE    ---      ---       memcpy
      00FFE894H   PUBLIC    CODE     ---       memcpy?_

      ---         MODULE    ---      ---       memset
      00FF00A6H   PUBLIC    CODE     ---       memset?_

      ---         MODULE    ---      ---       ?C?INITHDATA_END
      00FFECCDH   PUBLIC    HCONST   WORD      ?C?INITHDATA_END

Program Size: data=9.5 edata+hdata=1792 xdata=5419 const=1653 code=59738
L251 RUN COMPLETE.  0 WARNING(S),  0 ERROR(S)
